 addon

 Timestamp is 63d19d9c (Wed Jan 25 16:22:36 2023)

 Preferred load address is 0000000180000000

 Start         Length     Name                   Class
 0001:00000000 00025840H .text$mn                CODE
 0001:00025840 00000040H .text$mn$00             CODE
 0001:00025880 000002e0H .text$x                 CODE
 0002:00000000 00000318H .idata$5                DATA
 0002:00000318 00000028H .00cfg                  DATA
 0002:00000340 00000008H .CRT$XCA                DATA
 0002:00000348 00000008H .CRT$XCU                DATA
 0002:00000350 00000008H .CRT$XCZ                DATA
 0002:00000358 00000008H .CRT$XIA                DATA
 0002:00000360 00000018H .CRT$XIC                DATA
 0002:00000378 00000008H .CRT$XIZ                DATA
 0002:00000380 00000008H .CRT$XPA                DATA
 0002:00000388 00000010H .CRT$XPX                DATA
 0002:00000398 00000008H .CRT$XPXA               DATA
 0002:000003a0 00000008H .CRT$XPZ                DATA
 0002:000003a8 00000008H .CRT$XTA                DATA
 0002:000003b0 00000010H .CRT$XTZ                DATA
 0002:000003b8 00000000H .gehcont$y              DATA
 0002:000003b8 00000000H .gfids$y                DATA
 0002:000003c0 000076c0H .rdata                  DATA
 0002:00007a80 00000000H .rdata$CastGuardVftablesA DATA
 0002:00007a80 00000000H .rdata$CastGuardVftablesC DATA
 0002:00007a80 000002fcH .rdata$r                DATA
 0002:00007d7c 00000020H .rdata$voltmd           DATA
 0002:00007d9c 0000038cH .rdata$zzzdbg           DATA
 0002:00008128 00000008H .rtc$IAA                DATA
 0002:00008130 00000008H .rtc$IZZ                DATA
 0002:00008138 00000008H .rtc$TAA                DATA
 0002:00008140 00000008H .rtc$TZZ                DATA
 0002:00008148 00002358H .xdata                  DATA
 0002:0000a4a0 00000180H .xdata$x                DATA
 0002:0000a620 00000050H .edata                  DATA
 0002:0000a670 00000028H .idata$2                DATA
 0002:0000a698 00000018H .idata$3                DATA
 0002:0000a6b0 00000318H .idata$4                DATA
 0002:0000a9c8 00000ce2H .idata$6                DATA
 0003:00000000 00000a20H .data                   DATA
 0003:00000a20 000000d0H .data$r                 DATA
 0003:00000af0 00000020H .data$rs                DATA
 0003:00000b10 000011e0H .bss                    DATA
 0004:00000000 00001e30H .pdata                  DATA
 0005:00000000 000000fcH _RDATA                  DATA
 0006:00000000 00000060H .rsrc$01                DATA
 0006:00000060 00000180H .rsrc$02                DATA

  Address         Publics by Value              Rva+Base               Lib:Object

 0000:00000000       __guard_fids_count         0000000000000000     <absolute>
 0000:00000000       __x64_code_ranges_to_entry_points 0000000000000000     <absolute>
 0000:00000000       __guard_longjmp_table      0000000000000000     <absolute>
 0000:00000000       __hybrid_code_map          0000000000000000     <absolute>
 0000:00000000       ___safe_se_handler_table   0000000000000000     <absolute>
 0000:00000000       __arm64x_extra_rfe_table_size 0000000000000000     <absolute>
 0000:00000000       ___safe_se_handler_count   0000000000000000     <absolute>
 0000:00000000       __x64_code_ranges_to_entry_points_count 0000000000000000     <absolute>
 0000:00000000       __arm64x_redirection_metadata 0000000000000000     <absolute>
 0000:00000000       __guard_iat_table          0000000000000000     <absolute>
 0000:00000000       __arm64x_extra_rfe_table   0000000000000000     <absolute>
 0000:00000000       __guard_iat_count          0000000000000000     <absolute>
 0000:00000000       __guard_longjmp_count      0000000000000000     <absolute>
 0000:00000000       __guard_eh_cont_count      0000000000000000     <absolute>
 0000:00000000       __dynamic_value_reloc_table 0000000000000000     <absolute>
 0000:00000000       __hybrid_auxiliary_iat     0000000000000000     <absolute>
 0000:00000000       __hybrid_auxiliary_iat_copy 0000000000000000     <absolute>
 0000:00000000       __AbsoluteZero             0000000000000000     <absolute>
 0000:00000000       __guard_check_icall_a64n_fptr 0000000000000000     <absolute>
 0000:00000000       __guard_fids_table         0000000000000000     <absolute>
 0000:00000000       __arm64x_redirection_metadata_count 0000000000000000     <absolute>
 0000:00000000       __enclave_config           0000000000000000     <absolute>
 0000:00000000       __guard_eh_cont_table      0000000000000000     <absolute>
 0000:00000000       __arm64x_native_entrypoint 0000000000000000     <absolute>
 0000:00000000       __hybrid_code_map_count    0000000000000000     <absolute>
 0000:00000100       __guard_flags              0000000000000100     <absolute>
 0000:00000000       __ImageBase                0000000180000000     <linker-defined>
 0001:000000d0       ?InitAll@@YAXV?$Local@VObject@v8@@@v8@@@Z 00000001800010d0 f   addon.obj
 0001:000002e0       ?what@exception@stdext@@UEBAPEBDXZ 00000001800012e0 f i minkowski.obj
 0001:00000300       ?_Raise@exception@stdext@@QEBAXXZ 0000000180001300 f i minkowski.obj
 0001:00000340       ?_Doraise@exception@stdext@@MEBAXXZ 0000000180001340 f i minkowski.obj
 0001:00000340       _guard_check_icall_nop     0000000180001340 f i LIBCMT:guard_support.obj
 0001:00000350       ??_Ebad_array_new_length@stdext@@UEAAPEAXI@Z 0000000180001350 f i * CIL library *:* CIL module *
 0001:00000350       ??_Eexception@stdext@@UEAAPEAXI@Z 0000000180001350 f i * CIL library *:* CIL module *
 0001:00000350       ??_Gexception@stdext@@UEAAPEAXI@Z 0000000180001350 f i minkowski.obj
 0001:00000350       ??_Gbad_array_new_length@stdext@@UEAAPEAXI@Z 0000000180001350 f i minkowski.obj
 0001:00000380       ?_Doraise@bad_alloc@stdext@@MEBAXXZ 0000000180001380 f i minkowski.obj
 0001:000003a0       ??0bad_array_new_length@stdext@@QEAA@XZ 00000001800013a0 f i minkowski.obj
 0001:000003c0       ?_Throw_bad_array_new_length@std@@YAXXZ 00000001800013c0 f i minkowski.obj
 0001:000003e0       ?_Throw_tree_length_error@std@@YAXXZ 00000001800013e0 f i minkowski.obj
 0001:00000400       ?convolve_two_polygon_sets@@YAXAEAV?$polygon_set_data@H@polygon@boost@@AEBV123@1@Z 0000000180001400 f   minkowski.obj
 0001:00000aa0       ??1?$polygon_with_holes_data@H@polygon@boost@@QEAA@XZ 0000000180001aa0 f i minkowski.obj
 0001:00000b20       ?calculateNFP@@YAXAEBV?$FunctionCallbackInfo@VValue@v8@@@Nan@@@Z 0000000180001b20 f   minkowski.obj
 0001:00001f10       ??0?$polygon_with_holes_data@H@polygon@boost@@QEAA@AEBV012@@Z 0000000180002f10 f i minkowski.obj
 0001:00002000       ?push_back@?$vector@V?$point_data@H@polygon@boost@@V?$allocator@V?$point_data@H@polygon@boost@@@std@@@std@@QEAAX$$QEAV?$point_data@H@polygon@boost@@@Z 0000000180003000 f i minkowski.obj
 0001:00002160       ??0?$polygon_data@H@polygon@boost@@QEAA@AEBV012@@Z 0000000180003160 f i minkowski.obj
 0001:000021f0       ?_Tidy@?$vector@U?$pair@U?$pair@V?$point_data@H@polygon@boost@@V123@@std@@H@std@@V?$allocator@U?$pair@U?$pair@V?$point_data@H@polygon@boost@@V123@@std@@H@std@@@2@@std@@AEAAXXZ 00000001800031f0 f i minkowski.obj
 0001:00002270       ?deallocate@?$allocator@V?$point_data@H@polygon@boost@@@std@@QEAAXQEAV?$point_data@H@polygon@boost@@_K@Z 0000000180003270 f i minkowski.obj
 0001:00002270       ?deallocate@?$allocator@U?$pair@HH@std@@@std@@QEAAXQEAU?$pair@HH@2@_K@Z 0000000180003270 f i minkowski.obj
 0001:000022c0       ?allocate@?$allocator@U?$pair@HH@std@@@std@@QEAAPEAU?$pair@HH@2@_K@Z 00000001800032c0 f i minkowski.obj
 0001:000022c0       ?allocate@?$allocator@V?$point_data@H@polygon@boost@@@std@@QEAAPEAV?$point_data@H@polygon@boost@@_K@Z 00000001800032c0 f i minkowski.obj
 0001:000022c0       ?allocate@?$allocator@PEAVactive_tail_arbitrary@?$polygon_arbitrary_formation@H@polygon@boost@@@std@@QEAAPEAPEAVactive_tail_arbitrary@?$polygon_arbitrary_formation@H@polygon@boost@@_K@Z 00000001800032c0 f i minkowski.obj
 0001:00002330       ??$convolve@V?$polygon_with_holes_data@H@polygon@boost@@V?$point_data@H@23@@polygon@boost@@YAAEAV?$polygon_with_holes_data@H@01@AEAV201@AEBV?$point_data@H@01@@Z 0000000180003330 f i minkowski.obj
 0001:00002790       ??$_Free_non_head@V?$allocator@U?$_List_node@V?$polygon_data@H@polygon@boost@@PEAX@std@@@std@@@?$_List_node@V?$polygon_data@H@polygon@boost@@PEAX@std@@SAXAEAV?$allocator@U?$_List_node@V?$polygon_data@H@polygon@boost@@PEAX@std@@@1@PEAU01@@Z 0000000180003790 f i minkowski.obj
 0001:00002830       ??$_Ucopy@PEBV?$point_data@H@polygon@boost@@@?$vector@V?$point_data@H@polygon@boost@@V?$allocator@V?$point_data@H@polygon@boost@@@std@@@std@@AEAAPEAV?$point_data@H@polygon@boost@@PEBV234@0PEAV234@@Z 0000000180003830 f i minkowski.obj
 0001:00002830       ?_Umove@?$vector@V?$point_data@H@polygon@boost@@V?$allocator@V?$point_data@H@polygon@boost@@@std@@@std@@AEAAPEAV?$point_data@H@polygon@boost@@PEAV345@00@Z 0000000180003830 f i minkowski.obj
 0001:00002830       ??$_Ucopy@PEAV?$point_data@H@polygon@boost@@@?$vector@V?$point_data@H@polygon@boost@@V?$allocator@V?$point_data@H@polygon@boost@@@std@@@std@@AEAAPEAV?$point_data@H@polygon@boost@@PEAV234@00@Z 0000000180003830 f i minkowski.obj
 0001:00002880       ?_Xlength@?$vector@V?$polygon_data@H@polygon@boost@@V?$allocator@V?$polygon_data@H@polygon@boost@@@std@@@std@@CAXXZ 0000000180003880 f i minkowski.obj
 0001:00002880       ?_Xlength@?$vector@V?$point_data@H@polygon@boost@@V?$allocator@V?$point_data@H@polygon@boost@@@std@@@std@@CAXXZ 0000000180003880 f i minkowski.obj
 0001:00002880       ?_Xlength@?$vector@V?$set@V?$point_data@H@polygon@boost@@U?$less@V?$point_data@H@polygon@boost@@@std@@V?$allocator@V?$point_data@H@polygon@boost@@@5@@std@@V?$allocator@V?$set@V?$point_data@H@polygon@boost@@U?$less@V?$point_data@H@polygon@boost@@@std@@V?$allocator@V?$point_data@H@polygon@boost@@@5@@std@@@2@@std@@CAXXZ 0000000180003880 f i minkowski.obj
 0001:00002880       ?_Xlength@?$vector@U?$pair@U?$pair@V?$point_data@H@polygon@boost@@V123@@std@@V?$vector@U?$pair@HH@std@@V?$allocator@U?$pair@HH@std@@@2@@2@@std@@V?$allocator@U?$pair@U?$pair@V?$point_data@H@polygon@boost@@V123@@std@@V?$vector@U?$pair@HH@std@@V?$allocator@U?$pair@HH@std@@@2@@2@@std@@@2@@std@@CAXXZ 0000000180003880 f i minkowski.obj
 0001:00002880       ?_Xlength@?$vector@U?$pair@V?$point_data@H@polygon@boost@@H@std@@V?$allocator@U?$pair@V?$point_data@H@polygon@boost@@H@std@@@2@@std@@CAXXZ 0000000180003880 f i minkowski.obj
 0001:00002880       ?_Xlength@?$vector@U?$pair@U?$pair@V?$point_data@H@polygon@boost@@V123@@std@@U?$pair@HH@2@@std@@V?$allocator@U?$pair@U?$pair@V?$point_data@H@polygon@boost@@V123@@std@@U?$pair@HH@2@@std@@@2@@std@@CAXXZ 0000000180003880 f i minkowski.obj
 0001:00002880       ?_Xlength@?$vector@U?$pair@HH@std@@V?$allocator@U?$pair@HH@std@@@2@@std@@CAXXZ 0000000180003880 f i minkowski.obj
 0001:00002880       ?_Xlength@?$vector@PEAVactive_tail_arbitrary@?$polygon_arbitrary_formation@H@polygon@boost@@V?$allocator@PEAVactive_tail_arbitrary@?$polygon_arbitrary_formation@H@polygon@boost@@@std@@@std@@CAXXZ 0000000180003880 f i minkowski.obj
 0001:00002880       ?_Xlength@?$vector@U?$pair@U?$pair@V?$point_data@H@polygon@boost@@V123@@std@@H@std@@V?$allocator@U?$pair@U?$pair@V?$point_data@H@polygon@boost@@V123@@std@@H@std@@@2@@std@@CAXXZ 0000000180003880 f i minkowski.obj
 0001:00002880       ?_Xlength@?$vector@U?$pair@U?$pair@U?$pair@V?$point_data@H@polygon@boost@@V123@@std@@H@std@@PEAVactive_tail_arbitrary@?$polygon_arbitrary_formation@H@polygon@boost@@@std@@V?$allocator@U?$pair@U?$pair@U?$pair@V?$point_data@H@polygon@boost@@V123@@std@@H@std@@PEAVactive_tail_arbitrary@?$polygon_arbitrary_formation@H@polygon@boost@@@std@@@2@@std@@CAXXZ 0000000180003880 f i minkowski.obj
 0001:00002880       ?_Xlength@?$vector@Vvertex_half_edge@?$scanline_base@H@polygon@boost@@V?$allocator@Vvertex_half_edge@?$scanline_base@H@polygon@boost@@@std@@@std@@CAXXZ 0000000180003880 f i minkowski.obj
 0001:00002880       ?_Xlength@?$vector@U?$pair@HU?$pair@_K_K@std@@@std@@V?$allocator@U?$pair@HU?$pair@_K_K@std@@@std@@@2@@std@@CAXXZ 0000000180003880 f i minkowski.obj
 0001:00002880       ?_Xlength@?$vector@U?$pair@Vvertex_half_edge@?$scanline_base@H@polygon@boost@@PEAVactive_tail_arbitrary@?$polygon_arbitrary_formation@H@34@@std@@V?$allocator@U?$pair@Vvertex_half_edge@?$scanline_base@H@polygon@boost@@PEAVactive_tail_arbitrary@?$polygon_arbitrary_formation@H@34@@std@@@2@@std@@CAXXZ 0000000180003880 f i minkowski.obj
 0001:00002880       ?_Xlength@?$vector@V?$polygon_with_holes_data@H@polygon@boost@@V?$allocator@V?$polygon_with_holes_data@H@polygon@boost@@@std@@@std@@CAXXZ 0000000180003880 f i minkowski.obj
 0001:00002880       ?_Xlength@?$vector@HV?$allocator@H@std@@@std@@CAXXZ 0000000180003880 f i minkowski.obj
 0001:00002880       ?_Xlength@?$vector@V?$_Tree_iterator@V?$_Tree_val@U?$_Tree_simple_types@U?$pair@$$CBU?$pair@V?$point_data@H@polygon@boost@@V123@@std@@V?$vector@U?$pair@HH@std@@V?$allocator@U?$pair@HH@std@@@2@@2@@std@@@std@@@std@@@std@@V?$allocator@V?$_Tree_iterator@V?$_Tree_val@U?$_Tree_simple_types@U?$pair@$$CBU?$pair@V?$point_data@H@polygon@boost@@V123@@std@@V?$vector@U?$pair@HH@std@@V?$allocator@U?$pair@HH@std@@@2@@2@@std@@@std@@@std@@@std@@@2@@std@@CAXXZ 0000000180003880 f i minkowski.obj
 0001:00002880       ?_Xlength@?$vector@V?$_Tree_iterator@V?$_Tree_val@U?$_Tree_simple_types@U?$pair@$$CBVvertex_half_edge@?$scanline_base@H@polygon@boost@@PEAVactive_tail_arbitrary@?$polygon_arbitrary_formation@H@34@@std@@@std@@@std@@@std@@V?$allocator@V?$_Tree_iterator@V?$_Tree_val@U?$_Tree_simple_types@U?$pair@$$CBVvertex_half_edge@?$scanline_base@H@polygon@boost@@PEAVactive_tail_arbitrary@?$polygon_arbitrary_formation@H@34@@std@@@std@@@std@@@std@@@2@@std@@CAXXZ 0000000180003880 f i minkowski.obj
 0001:000028a0       ?_Change_array@?$vector@V?$point_data@H@polygon@boost@@V?$allocator@V?$point_data@H@polygon@boost@@@std@@@std@@AEAAXQEAV?$point_data@H@polygon@boost@@_K1@Z 00000001800038a0 f i minkowski.obj
 0001:000028a0       ?_Change_array@?$vector@U?$pair@HH@std@@V?$allocator@U?$pair@HH@std@@@2@@std@@AEAAXQEAU?$pair@HH@2@_K1@Z 00000001800038a0 f i minkowski.obj
 0001:00002930       ?allocate@?$allocator@V?$polygon_data@H@polygon@boost@@@std@@QEAAPEAV?$polygon_data@H@polygon@boost@@_K@Z 0000000180003930 f i minkowski.obj
 0001:00002930       ?allocate@?$allocator@U?$pair@HU?$pair@_K_K@std@@@std@@@std@@QEAAPEAU?$pair@HU?$pair@_K_K@std@@@2@_K@Z 0000000180003930 f i minkowski.obj
 0001:000029b0       ??$convolve_two_point_sequences@V?$_Vector_const_iterator@V?$_Vector_val@U?$_Simple_types@V?$point_data@H@polygon@boost@@@std@@@std@@@std@@V12@@@YAXAEAV?$polygon_set_data@H@polygon@boost@@V?$_Vector_const_iterator@V?$_Vector_val@U?$_Simple_types@V?$point_data@H@polygon@boost@@@std@@@std@@@std@@111@Z 00000001800039b0 f i minkowski.obj
 0001:00002f30       ??$convolve@V?$polygon_data@H@polygon@boost@@V?$point_data@H@23@@polygon@boost@@YAAEAV?$polygon_data@H@01@AEAV201@AEBV?$point_data@H@01@@Z 0000000180003f30 f i minkowski.obj
 0001:00003190       ??$_Assign_cast@AEAV?$polygon_data@H@polygon@boost@@V?$_List_unchecked_const_iterator@V?$_List_val@U?$_List_simple_types@V?$polygon_data@H@polygon@boost@@@std@@@std@@U_Iterator_base0@2@@std@@@?$list@V?$polygon_data@H@polygon@boost@@V?$allocator@V?$polygon_data@H@polygon@boost@@@std@@@std@@AEAAXV?$_List_unchecked_const_iterator@V?$_List_val@U?$_List_simple_types@V?$polygon_data@H@polygon@boost@@@std@@@std@@U_Iterator_base0@2@@1@V21@@Z 0000000180004190 f i minkowski.obj
 0001:00003340       ??$_Assign_range@PEAV?$point_data@H@polygon@boost@@@?$vector@V?$point_data@H@polygon@boost@@V?$allocator@V?$point_data@H@polygon@boost@@@std@@@std@@AEAAXPEAV?$point_data@H@polygon@boost@@0Uforward_iterator_tag@1@@Z 0000000180004340 f i minkowski.obj
 0001:000034d0       ??$_Destroy_range@V?$allocator@V?$polygon_data@H@polygon@boost@@@std@@@std@@YAXPEAV?$polygon_data@H@polygon@boost@@QEAV123@AEAV?$allocator@V?$polygon_data@H@polygon@boost@@@0@@Z 00000001800044d0 f i minkowski.obj
 0001:00003560       ?push_back@?$vector@U?$pair@HH@std@@V?$allocator@U?$pair@HH@std@@@2@@std@@QEAAXAEBU?$pair@HH@2@@Z 0000000180004560 f i minkowski.obj
 0001:00003560       ?push_back@?$vector@U?$pair@HH@std@@V?$allocator@U?$pair@HH@std@@@2@@std@@QEAAX$$QEAU?$pair@HH@2@@Z 0000000180004560 f i minkowski.obj
 0001:000036b0       ??$get_fracture@V?$vector@V?$polygon_with_holes_data@H@polygon@boost@@V?$allocator@V?$polygon_with_holes_data@H@polygon@boost@@@std@@@std@@Upolygon_with_holes_concept@polygon@boost@@@?$polygon_set_data@H@polygon@boost@@AEBAXAEAV?$vector@V?$polygon_with_holes_data@H@polygon@boost@@V?$allocator@V?$polygon_with_holes_data@H@polygon@boost@@@std@@@std@@_NUpolygon_with_holes_concept@12@@Z 00000001800046b0 f i minkowski.obj
 0001:000039e0       ??$execute_boolean_op@V?$polygon_set_data@H@polygon@boost@@V123@V?$polygon_with_holes_data@H@23@$0A@@polygon@boost@@YAXAEAV?$polygon_set_data@H@01@AEBV201@AEBV?$polygon_with_holes_data@H@01@@Z 00000001800049e0 f i minkowski.obj
 0001:00003c90       ??$set@V?$_Vector_const_iterator@V?$_Vector_val@U?$_Simple_types@U?$pair@U?$pair@V?$point_data@H@polygon@boost@@V123@@std@@H@std@@@std@@@std@@@std@@@?$polygon_set_mutable_traits@V?$polygon_set_data@H@polygon@boost@@@polygon@boost@@SAXAEAV?$polygon_set_data@H@12@V?$_Vector_const_iterator@V?$_Vector_val@U?$_Simple_types@U?$pair@U?$pair@V?$point_data@H@polygon@boost@@V123@@std@@H@std@@@std@@@std@@@std@@1@Z 0000000180004c90 f i minkowski.obj
 0001:00003dc0       ??$execute_boolean_op@V?$polygon_set_data@H@polygon@boost@@V123@V?$polygon_with_holes_data@H@23@$02@polygon@boost@@YAXAEAV?$polygon_set_data@H@01@AEBV201@AEBV?$polygon_with_holes_data@H@01@@Z 0000000180004dc0 f i minkowski.obj
 0001:00004070       ??1?$vector@U?$pair@U?$pair@V?$point_data@H@polygon@boost@@V123@@std@@U?$pair@HH@2@@std@@V?$allocator@U?$pair@U?$pair@V?$point_data@H@polygon@boost@@V123@@std@@U?$pair@HH@2@@std@@@2@@std@@QEAA@XZ 0000000180005070 f i minkowski.obj
 0001:000040f0       ?clean@?$polygon_set_data@H@polygon@boost@@QEBAXXZ 00000001800050f0 f i minkowski.obj
 0001:000042d0       ??$insert_vertex_sequence@V?$_Vector_const_iterator@V?$_Vector_val@U?$_Simple_types@V?$point_data@H@polygon@boost@@@std@@@std@@@std@@@?$polygon_set_data@H@polygon@boost@@QEAAXV?$_Vector_const_iterator@V?$_Vector_val@U?$_Simple_types@V?$point_data@H@polygon@boost@@@std@@@std@@@std@@0Vdirection_1d@12@_N@Z 00000001800052d0 f i minkowski.obj
 0001:00004470       ??$insert_into_view_arg@V?$polygon_set_data@H@polygon@boost@@V?$polygon_with_holes_data@H@23@@polygon@boost@@YAXAEAV?$polygon_set_data@H@01@AEBV?$polygon_with_holes_data@H@01@@Z 0000000180005470 f i minkowski.obj
 0001:00004550       ??$execute@V?$polygon_set_data@H@polygon@boost@@V?$_Vector_const_iterator@V?$_Vector_val@U?$_Simple_types@U?$pair@U?$pair@V?$point_data@H@polygon@boost@@V123@@std@@H@std@@@std@@@std@@@std@@V45@@?$arbitrary_boolean_op@H@polygon@boost@@QEAAXAEAV?$polygon_set_data@H@12@V?$_Vector_const_iterator@V?$_Vector_val@U?$_Simple_types@U?$pair@U?$pair@V?$point_data@H@polygon@boost@@V123@@std@@H@std@@@std@@@std@@@std@@111H@Z 0000000180005550 f i minkowski.obj
 0001:00004ce0       ??$_Emplace_reallocate@Vvertex_half_edge@?$scanline_base@H@polygon@boost@@@?$vector@Vvertex_half_edge@?$scanline_base@H@polygon@boost@@V?$allocator@Vvertex_half_edge@?$scanline_base@H@polygon@boost@@@std@@@std@@QEAAPEAVvertex_half_edge@?$scanline_base@H@polygon@boost@@QEAV2345@$$QEAV2345@@Z 0000000180005ce0 f i minkowski.obj
 0001:00004f10       ??$_Erase_tree@V?$allocator@U?$_Tree_node@U?$pair@$$CBVvertex_half_edge@?$scanline_base@H@polygon@boost@@PEAVactive_tail_arbitrary@?$polygon_arbitrary_formation@H@34@@std@@PEAX@std@@@std@@@?$_Tree_val@U?$_Tree_simple_types@U?$pair@$$CBVvertex_half_edge@?$scanline_base@H@polygon@boost@@PEAVactive_tail_arbitrary@?$polygon_arbitrary_formation@H@34@@std@@@std@@@std@@QEAAXAEAV?$allocator@U?$_Tree_node@U?$pair@$$CBVvertex_half_edge@?$scanline_base@H@polygon@boost@@PEAVactive_tail_arbitrary@?$polygon_arbitrary_formation@H@34@@std@@PEAX@std@@@1@PEAU?$_Tree_node@U?$pair@$$CBVvertex_half_edge@?$scanline_base@H@polygon@boost@@PEAVactive_tail_arbitrary@?$polygon_arbitrary_formation@H@34@@std@@PEAX@1@@Z 0000000180005f10 f i minkowski.obj
 0001:00004f70       ??1?$scanline@HHV?$vector@HV?$allocator@H@std@@@std@@@polygon@boost@@QEAA@XZ 0000000180005f70 f i minkowski.obj
 0001:00005010       ??1?$vector@U?$pair@U?$pair@V?$point_data@H@polygon@boost@@V123@@std@@V?$vector@U?$pair@HH@std@@V?$allocator@U?$pair@HH@std@@@2@@2@@std@@V?$allocator@U?$pair@U?$pair@V?$point_data@H@polygon@boost@@V123@@std@@V?$vector@U?$pair@HH@std@@V?$allocator@U?$pair@HH@std@@@2@@2@@std@@@2@@std@@QEAA@XZ 0000000180006010 f i minkowski.obj
 0001:00005090       ?_Umove@?$vector@Vvertex_half_edge@?$scanline_base@H@polygon@boost@@V?$allocator@Vvertex_half_edge@?$scanline_base@H@polygon@boost@@@std@@@std@@AEAAPEAVvertex_half_edge@?$scanline_base@H@polygon@boost@@PEAV3456@00@Z 0000000180006090 f i minkowski.obj
 0001:00005090       ?_Umove@?$vector@U?$pair@U?$pair@V?$point_data@H@polygon@boost@@V123@@std@@H@std@@V?$allocator@U?$pair@U?$pair@V?$point_data@H@polygon@boost@@V123@@std@@H@std@@@2@@std@@AEAAPEAU?$pair@U?$pair@V?$point_data@H@polygon@boost@@V123@@std@@H@2@PEAU32@00@Z 0000000180006090 f i minkowski.obj
 0001:000050e0       ?insert_clean@?$polygon_set_data@H@polygon@boost@@QEAAXAEBU?$pair@U?$pair@V?$point_data@H@polygon@boost@@V123@@std@@H@std@@_N@Z 00000001800060e0 f i minkowski.obj
 0001:00005180       ??0?$vector@U?$pair@HH@std@@V?$allocator@U?$pair@HH@std@@@2@@std@@QEAA@AEBV01@@Z 0000000180006180 f i minkowski.obj
 0001:00005210       ??$emplace_back@AEBU?$pair@U?$pair@V?$point_data@H@polygon@boost@@V123@@std@@H@std@@@?$vector@U?$pair@U?$pair@V?$point_data@H@polygon@boost@@V123@@std@@H@std@@V?$allocator@U?$pair@U?$pair@V?$point_data@H@polygon@boost@@V123@@std@@H@std@@@2@@std@@QEAA?A_TAEBU?$pair@U?$pair@V?$point_data@H@polygon@boost@@V123@@std@@H@1@@Z 0000000180006210 f i minkowski.obj
 0001:00005210       ??$emplace_back@U?$pair@U?$pair@V?$point_data@H@polygon@boost@@V123@@std@@H@std@@@?$vector@U?$pair@U?$pair@V?$point_data@H@polygon@boost@@V123@@std@@H@std@@V?$allocator@U?$pair@U?$pair@V?$point_data@H@polygon@boost@@V123@@std@@H@std@@@2@@std@@QEAA?A_T$$QEAU?$pair@U?$pair@V?$point_data@H@polygon@boost@@V123@@std@@H@1@@Z 0000000180006210 f i minkowski.obj
 0001:000053a0       ?_Change_array@?$vector@U?$pair@U?$pair@V?$point_data@H@polygon@boost@@V123@@std@@H@std@@V?$allocator@U?$pair@U?$pair@V?$point_data@H@polygon@boost@@V123@@std@@H@std@@@2@@std@@AEAAXQEAU?$pair@U?$pair@V?$point_data@H@polygon@boost@@V123@@std@@H@2@_K1@Z 00000001800063a0 f i minkowski.obj
 0001:00005450       ?allocate@?$allocator@U?$pair@U?$pair@V?$point_data@H@polygon@boost@@V123@@std@@H@std@@@std@@QEAAPEAU?$pair@U?$pair@V?$point_data@H@polygon@boost@@V123@@std@@H@2@_K@Z 0000000180006450 f i minkowski.obj
 0001:000054d0       ??$processEvent_@V?$vector@V?$polygon_with_holes_data@H@polygon@boost@@V?$allocator@V?$polygon_with_holes_data@H@polygon@boost@@@std@@@std@@V?$_Vector_iterator@V?$_Vector_val@U?$_Simple_types@Vvertex_half_edge@?$scanline_base@H@polygon@boost@@@std@@@std@@@2@@?$polygon_arbitrary_formation@H@polygon@boost@@IEAA?AV?$_Vector_iterator@V?$_Vector_val@U?$_Simple_types@Vvertex_half_edge@?$scanline_base@H@polygon@boost@@@std@@@std@@@std@@AEAV?$vector@V?$polygon_with_holes_data@H@polygon@boost@@V?$allocator@V?$polygon_with_holes_data@H@polygon@boost@@@std@@@4@V34@1@Z 00000001800064d0 f i minkowski.obj
 0001:00006300       ??$insert@V?$_Vector_const_iterator@V?$_Vector_val@U?$_Simple_types@U?$pair@U?$pair@V?$point_data@H@polygon@boost@@V123@@std@@H@std@@@std@@@std@@@std@@@?$arbitrary_boolean_op@H@polygon@boost@@AEAAXV?$_Vector_const_iterator@V?$_Vector_val@U?$_Simple_types@U?$pair@U?$pair@V?$point_data@H@polygon@boost@@V123@@std@@H@std@@@std@@@std@@@std@@0H@Z 0000000180007300 f i minkowski.obj
 0001:000063b0       ??$validate_scan@V?$_Vector_iterator@V?$_Vector_val@U?$_Simple_types@U?$pair@U?$pair@V?$point_data@H@polygon@boost@@V123@@std@@U?$pair@HH@2@@std@@@std@@@std@@@std@@H@?$line_intersection@H@polygon@boost@@SAXAEAV?$vector@U?$pair@U?$pair@V?$point_data@H@polygon@boost@@V123@@std@@U?$pair@HH@2@@std@@V?$allocator@U?$pair@U?$pair@V?$point_data@H@polygon@boost@@V123@@std@@U?$pair@HH@2@@std@@@2@@std@@V?$_Vector_iterator@V?$_Vector_val@U?$_Simple_types@U?$pair@U?$pair@V?$point_data@H@polygon@boost@@V123@@std@@U?$pair@HH@2@@std@@@std@@@std@@@4@1@Z 00000001800073b0 f i minkowski.obj
 0001:000067c0       ??$_Assign_range@PEAU?$pair@HH@std@@@?$vector@U?$pair@HH@std@@V?$allocator@U?$pair@HH@std@@@2@@std@@AEAAXPEAU?$pair@HH@1@0Uforward_iterator_tag@1@@Z 00000001800077c0 f i minkowski.obj
 0001:00006950       ??$_Erase_head@V?$allocator@U?$_Tree_node@V?$point_data@H@polygon@boost@@PEAX@std@@@std@@@?$_Tree_val@U?$_Tree_simple_types@V?$point_data@H@polygon@boost@@@std@@@std@@QEAAXAEAV?$allocator@U?$_Tree_node@V?$point_data@H@polygon@boost@@PEAX@std@@@1@@Z 0000000180007950 f i minkowski.obj
 0001:000069d0       ??$_Destroy_range@V?$allocator@U?$pair@U?$pair@V?$point_data@H@polygon@boost@@V123@@std@@V?$vector@U?$pair@HH@std@@V?$allocator@U?$pair@HH@std@@@2@@2@@std@@@std@@@std@@YAXPEAU?$pair@U?$pair@V?$point_data@H@polygon@boost@@V123@@std@@V?$vector@U?$pair@HH@std@@V?$allocator@U?$pair@HH@std@@@2@@2@@0@QEAU10@AEAV?$allocator@U?$pair@U?$pair@V?$point_data@H@polygon@boost@@V123@@std@@V?$vector@U?$pair@HH@std@@V?$allocator@U?$pair@HH@std@@@2@@2@@std@@@0@@Z 00000001800079d0 f i minkowski.obj
 0001:00006a60       ??$_Erase_tree@V?$allocator@U?$_Tree_node@U?$pair@$$CBU?$pair@V?$point_data@H@polygon@boost@@V123@@std@@V?$vector@U?$pair@HH@std@@V?$allocator@U?$pair@HH@std@@@2@@2@@std@@PEAX@std@@@std@@@?$_Tree_val@U?$_Tree_simple_types@U?$pair@$$CBU?$pair@V?$point_data@H@polygon@boost@@V123@@std@@V?$vector@U?$pair@HH@std@@V?$allocator@U?$pair@HH@std@@@2@@2@@std@@@std@@@std@@QEAAXAEAV?$allocator@U?$_Tree_node@U?$pair@$$CBU?$pair@V?$point_data@H@polygon@boost@@V123@@std@@V?$vector@U?$pair@HH@std@@V?$allocator@U?$pair@HH@std@@@2@@2@@std@@PEAX@std@@@1@PEAU?$_Tree_node@U?$pair@$$CBU?$pair@V?$point_data@H@polygon@boost@@V123@@std@@V?$vector@U?$pair@HH@std@@V?$allocator@U?$pair@HH@std@@@2@@2@@std@@PEAX@1@@Z 0000000180007a60 f i minkowski.obj
 0001:00006b20       ??_Gactive_tail_arbitrary@?$polygon_arbitrary_formation@H@polygon@boost@@QEAAPEAXI@Z 0000000180007b20 f i minkowski.obj
 0001:00006c60       ?remove_retired_edges_from_scanline@?$scanline@HHV?$vector@HV?$allocator@H@std@@@std@@@polygon@boost@@QEAAXXZ 0000000180007c60 f i minkowski.obj
 0001:00007000       ?pushPoint@active_tail_arbitrary@?$polygon_arbitrary_formation@H@polygon@boost@@QEAAXV?$point_data@H@34@@Z 0000000180008000 f i minkowski.obj
 0001:00007060       ?addHole@active_tail_arbitrary@?$polygon_arbitrary_formation@H@polygon@boost@@QEAAPEAV1234@PEAV1234@@Z 0000000180008060 f i minkowski.obj
 0001:000070f0       ?join@active_tail_arbitrary@?$polygon_arbitrary_formation@H@polygon@boost@@QEAA_NPEAV1234@@Z 00000001800080f0 f i minkowski.obj
 0001:00007290       ?on_above_or_below@?$scanline_base@H@polygon@boost@@SAHV?$point_data@H@23@AEBU?$pair@V?$point_data@H@polygon@boost@@V123@@std@@@Z 0000000180008290 f i minkowski.obj
 0001:00007420       ??_Gpoly_line_arbitrary@?$polygon_arbitrary_formation@H@polygon@boost@@QEAAPEAXI@Z 0000000180008420 f i minkowski.obj
 0001:00007490       ?erase_end_events@?$scanline@HHV?$vector@HV?$allocator@H@std@@@std@@@polygon@boost@@QEAAXV?$_Tree_const_iterator@V?$_Tree_val@U?$_Tree_simple_types@V?$point_data@H@polygon@boost@@@std@@@std@@@std@@@Z 0000000180008490 f i minkowski.obj
 0001:00007680       ?clear@?$vector@U?$pair@U?$pair@V?$point_data@H@polygon@boost@@V123@@std@@V?$vector@U?$pair@HH@std@@V?$allocator@U?$pair@HH@std@@@2@@2@@std@@V?$allocator@U?$pair@U?$pair@V?$point_data@H@polygon@boost@@V123@@std@@V?$vector@U?$pair@HH@std@@V?$allocator@U?$pair@HH@std@@@2@@2@@std@@@2@@std@@QEAAXXZ 0000000180008680 f i minkowski.obj
 0001:000076b0       ?copyHoles@active_tail_arbitrary@?$polygon_arbitrary_formation@H@polygon@boost@@QEAAXAEAV1234@@Z 00000001800086b0 f i minkowski.obj
 0001:00007740       ?less_slope@?$scanline_base@H@polygon@boost@@SA_NAEBH0AEBV?$point_data@H@23@1@Z 0000000180008740 f i minkowski.obj
 0001:00007870       ?between@?$scanline_base@H@polygon@boost@@SA_NV?$point_data@H@23@00@Z 0000000180008870 f i minkowski.obj
 0001:000078e0       ?_Change_array@?$vector@U?$pair@V?$point_data@H@polygon@boost@@H@std@@V?$allocator@U?$pair@V?$point_data@H@polygon@boost@@H@std@@@2@@std@@AEAAXQEAU?$pair@V?$point_data@H@polygon@boost@@H@2@_K1@Z 00000001800088e0 f i minkowski.obj
 0001:00007990       ?allocate@?$allocator@U?$pair@V?$point_data@H@polygon@boost@@H@std@@@std@@QEAAPEAU?$pair@V?$point_data@H@polygon@boost@@H@2@_K@Z 0000000180008990 f i minkowski.obj
 0001:00007a10       ?_Extract@?$_Tree_val@U?$_Tree_simple_types@V?$point_data@H@polygon@boost@@@std@@@std@@QEAAPEAU?$_Tree_node@V?$point_data@H@polygon@boost@@PEAX@2@V?$_Tree_unchecked_const_iterator@V?$_Tree_val@U?$_Tree_simple_types@V?$point_data@H@polygon@boost@@@std@@@std@@U_Iterator_base0@2@@2@@Z 0000000180008a10 f i minkowski.obj
 0001:00007a10       ?_Extract@?$_Tree_val@U?$_Tree_simple_types@U?$pair@$$CBVvertex_half_edge@?$scanline_base@H@polygon@boost@@PEAVactive_tail_arbitrary@?$polygon_arbitrary_formation@H@34@@std@@@std@@@std@@QEAAPEAU?$_Tree_node@U?$pair@$$CBVvertex_half_edge@?$scanline_base@H@polygon@boost@@PEAVactive_tail_arbitrary@?$polygon_arbitrary_formation@H@34@@std@@PEAX@2@V?$_Tree_unchecked_const_iterator@V?$_Tree_val@U?$_Tree_simple_types@U?$pair@$$CBVvertex_half_edge@?$scanline_base@H@polygon@boost@@PEAVactive_tail_arbitrary@?$polygon_arbitrary_formation@H@34@@std@@@std@@@std@@U_Iterator_base0@2@@2@@Z 0000000180008a10 f i minkowski.obj
 0001:00007a10       ?_Extract@?$_Tree_val@U?$_Tree_simple_types@U?$pair@$$CBU?$pair@V?$point_data@H@polygon@boost@@V123@@std@@V?$vector@U?$pair@HH@std@@V?$allocator@U?$pair@HH@std@@@2@@2@@std@@@std@@@std@@QEAAPEAU?$_Tree_node@U?$pair@$$CBU?$pair@V?$point_data@H@polygon@boost@@V123@@std@@V?$vector@U?$pair@HH@std@@V?$allocator@U?$pair@HH@std@@@2@@2@@std@@PEAX@2@V?$_Tree_unchecked_const_iterator@V?$_Tree_val@U?$_Tree_simple_types@U?$pair@$$CBU?$pair@V?$point_data@H@polygon@boost@@V123@@std@@V?$vector@U?$pair@HH@std@@V?$allocator@U?$pair@HH@std@@@2@@2@@std@@@std@@@std@@U_Iterator_base0@2@@2@@Z 0000000180008a10 f i minkowski.obj
 0001:00007d90       ?_Rrotate@?$_Tree_val@U?$_Tree_simple_types@U?$pair@$$CBU?$pair@V?$point_data@H@polygon@boost@@V123@@std@@V?$vector@U?$pair@HH@std@@V?$allocator@U?$pair@HH@std@@@2@@2@@std@@@std@@@std@@QEAAXPEAU?$_Tree_node@U?$pair@$$CBU?$pair@V?$point_data@H@polygon@boost@@V123@@std@@V?$vector@U?$pair@HH@std@@V?$allocator@U?$pair@HH@std@@@2@@2@@std@@PEAX@2@@Z 0000000180008d90 f i minkowski.obj
 0001:00007d90       ?_Rrotate@?$_Tree_val@U?$_Tree_simple_types@V?$point_data@H@polygon@boost@@@std@@@std@@QEAAXPEAU?$_Tree_node@V?$point_data@H@polygon@boost@@PEAX@2@@Z 0000000180008d90 f i minkowski.obj
 0001:00007d90       ?_Rrotate@?$_Tree_val@U?$_Tree_simple_types@U?$pair@$$CBVvertex_half_edge@?$scanline_base@H@polygon@boost@@PEAVactive_tail_arbitrary@?$polygon_arbitrary_formation@H@34@@std@@@std@@@std@@QEAAXPEAU?$_Tree_node@U?$pair@$$CBVvertex_half_edge@?$scanline_base@H@polygon@boost@@PEAVactive_tail_arbitrary@?$polygon_arbitrary_formation@H@34@@std@@PEAX@2@@Z 0000000180008d90 f i minkowski.obj
 0001:00007df0       ?_Lrotate@?$_Tree_val@U?$_Tree_simple_types@U?$pair@$$CBVvertex_half_edge@?$scanline_base@H@polygon@boost@@PEAVactive_tail_arbitrary@?$polygon_arbitrary_formation@H@34@@std@@@std@@@std@@QEAAXPEAU?$_Tree_node@U?$pair@$$CBVvertex_half_edge@?$scanline_base@H@polygon@boost@@PEAVactive_tail_arbitrary@?$polygon_arbitrary_formation@H@34@@std@@PEAX@2@@Z 0000000180008df0 f i minkowski.obj
 0001:00007df0       ?_Lrotate@?$_Tree_val@U?$_Tree_simple_types@V?$point_data@H@polygon@boost@@@std@@@std@@QEAAXPEAU?$_Tree_node@V?$point_data@H@polygon@boost@@PEAX@2@@Z 0000000180008df0 f i minkowski.obj
 0001:00007df0       ?_Lrotate@?$_Tree_val@U?$_Tree_simple_types@U?$pair@$$CBU?$pair@V?$point_data@H@polygon@boost@@V123@@std@@V?$vector@U?$pair@HH@std@@V?$allocator@U?$pair@HH@std@@@2@@2@@std@@@std@@@std@@QEAAXPEAU?$_Tree_node@U?$pair@$$CBU?$pair@V?$point_data@H@polygon@boost@@V123@@std@@V?$vector@U?$pair@HH@std@@V?$allocator@U?$pair@HH@std@@@2@@2@@std@@PEAX@2@@Z 0000000180008df0 f i minkowski.obj
 0001:00007e50       ??$processPoint_@V?$vector@V?$polygon_with_holes_data@H@polygon@boost@@V?$allocator@V?$polygon_with_holes_data@H@polygon@boost@@@std@@@std@@V?$vector@U?$pair@Vvertex_half_edge@?$scanline_base@H@polygon@boost@@PEAVactive_tail_arbitrary@?$polygon_arbitrary_formation@H@34@@std@@V?$allocator@U?$pair@Vvertex_half_edge@?$scanline_base@H@polygon@boost@@PEAVactive_tail_arbitrary@?$polygon_arbitrary_formation@H@34@@std@@@2@@2@@?$polygon_arbitrary_formation@H@polygon@boost@@IEAA?AU?$pair@U?$pair@V?$point_data@H@polygon@boost@@H@std@@PEAVactive_tail_arbitrary@?$polygon_arbitrary_formation@H@polygon@boost@@@std@@AEAV?$vector@V?$polygon_with_holes_data@H@polygon@boost@@V?$allocator@V?$polygon_with_holes_data@H@polygon@boost@@@std@@@4@AEAV?$vector@U?$pair@Vvertex_half_edge@?$scanline_base@H@polygon@boost@@PEAVactive_tail_arbitrary@?$polygon_arbitrary_formation@H@34@@std@@V?$allocator@U?$pair@Vvertex_half_edge@?$scanline_base@H@polygon@boost@@PEAVactive_tail_arbitrary@?$polygon_arbitrary_formation@H@34@@std@@@2@@4@V?$point_data@H@12@AEAV?$vector@U?$pair@U?$pair@U?$pair@V?$point_data@H@polygon@boost@@V123@@std@@H@std@@PEAVactive_tail_arbitrary@?$polygon_arbitrary_formation@H@polygon@boost@@@std@@V?$allocator@U?$pair@U?$pair@U?$pair@V?$point_data@H@polygon@boost@@V123@@std@@H@std@@PEAVactive_tail_arbitrary@?$polygon_arbitrary_formation@H@polygon@boost@@@std@@@2@@4@AEAV?$vector@U?$pair@V?$point_data@H@polygon@boost@@H@std@@V?$allocator@U?$pair@V?$point_data@H@polygon@boost@@H@std@@@2@@4@@Z 0000000180008e50 f i minkowski.obj
 0001:00008fb0       ??$_Insert_range@PEBV?$point_data@H@polygon@boost@@@?$vector@V?$point_data@H@polygon@boost@@V?$allocator@V?$point_data@H@polygon@boost@@@std@@@std@@AEAAXV?$_Vector_const_iterator@V?$_Vector_val@U?$_Simple_types@V?$point_data@H@polygon@boost@@@std@@@std@@@1@PEBV?$point_data@H@polygon@boost@@1Uforward_iterator_tag@1@@Z 0000000180009fb0 f i minkowski.obj
 0001:00008fb0       ??$_Insert_range@PEAV?$point_data@H@polygon@boost@@@?$vector@V?$point_data@H@polygon@boost@@V?$allocator@V?$point_data@H@polygon@boost@@@std@@@std@@AEAAXV?$_Vector_const_iterator@V?$_Vector_val@U?$_Simple_types@V?$point_data@H@polygon@boost@@@std@@@std@@@1@PEAV?$point_data@H@polygon@boost@@1Uforward_iterator_tag@1@@Z 0000000180009fb0 f i minkowski.obj
 0001:00009280       ??$validate_scan@V?$_Vector_iterator@V?$_Vector_val@U?$_Simple_types@U?$pair@U?$pair@V?$point_data@H@polygon@boost@@V123@@std@@H@std@@@std@@@std@@@std@@@?$line_intersection@H@polygon@boost@@SAXAEAV?$vector@U?$pair@U?$pair@V?$point_data@H@polygon@boost@@V123@@std@@H@std@@V?$allocator@U?$pair@U?$pair@V?$point_data@H@polygon@boost@@V123@@std@@H@std@@@2@@std@@V?$_Vector_iterator@V?$_Vector_val@U?$_Simple_types@U?$pair@U?$pair@V?$point_data@H@polygon@boost@@V123@@std@@H@std@@@std@@@std@@@4@1@Z 000000018000a280 f i minkowski.obj
 0001:00009440       ??$handle_input_events@V?$polygon_set_data@H@polygon@boost@@V?$boolean_output_functor@V?$polygon_set_data@H@polygon@boost@@V?$vector@HV?$allocator@H@std@@@std@@$0A@@?$arbitrary_boolean_op@H@23@V?$_Vector_iterator@V?$_Vector_val@U?$_Simple_types@U?$pair@U?$pair@V?$point_data@H@polygon@boost@@V123@@std@@U?$pair@HH@2@@std@@@std@@@std@@@std@@@?$scanline@HHV?$vector@HV?$allocator@H@std@@@std@@@polygon@boost@@QEAA?AV?$_Vector_iterator@V?$_Vector_val@U?$_Simple_types@U?$pair@U?$pair@V?$point_data@H@polygon@boost@@V123@@std@@U?$pair@HH@2@@std@@@std@@@std@@@std@@AEAV?$polygon_set_data@H@12@V?$boolean_output_functor@V?$polygon_set_data@H@polygon@boost@@V?$vector@HV?$allocator@H@std@@@std@@$0A@@?$arbitrary_boolean_op@H@12@V34@2@Z 000000018000a440 f i minkowski.obj
 0001:0000a580       ??$handle_input_events@V?$polygon_set_data@H@polygon@boost@@V?$boolean_output_functor@V?$polygon_set_data@H@polygon@boost@@V?$vector@HV?$allocator@H@std@@@std@@$02@?$arbitrary_boolean_op@H@23@V?$_Vector_iterator@V?$_Vector_val@U?$_Simple_types@U?$pair@U?$pair@V?$point_data@H@polygon@boost@@V123@@std@@U?$pair@HH@2@@std@@@std@@@std@@@std@@@?$scanline@HHV?$vector@HV?$allocator@H@std@@@std@@@polygon@boost@@QEAA?AV?$_Vector_iterator@V?$_Vector_val@U?$_Simple_types@U?$pair@U?$pair@V?$point_data@H@polygon@boost@@V123@@std@@U?$pair@HH@2@@std@@@std@@@std@@@std@@AEAV?$polygon_set_data@H@12@V?$boolean_output_functor@V?$polygon_set_data@H@polygon@boost@@V?$vector@HV?$allocator@H@std@@@std@@$02@?$arbitrary_boolean_op@H@12@V34@2@Z 000000018000b580 f i minkowski.obj
 0001:0000b6e0       ??$_Erase_tree@V?$allocator@U?$_Tree_node@V?$point_data@H@polygon@boost@@PEAX@std@@@std@@@?$_Tree_val@U?$_Tree_simple_types@V?$point_data@H@polygon@boost@@@std@@@std@@QEAAXAEAV?$allocator@U?$_Tree_node@V?$point_data@H@polygon@boost@@PEAX@std@@@1@PEAU?$_Tree_node@V?$point_data@H@polygon@boost@@PEAX@1@@Z 000000018000c6e0 f i minkowski.obj
 0001:0000b740       ??$_Emplace_reallocate@AEBH@?$vector@HV?$allocator@H@std@@@std@@QEAAPEAHQEAHAEBH@Z 000000018000c740 f i minkowski.obj
 0001:0000b840       ??$_Emplace_reallocate@AEBU?$pair@V?$point_data@H@polygon@boost@@H@std@@@?$vector@U?$pair@V?$point_data@H@polygon@boost@@H@std@@V?$allocator@U?$pair@V?$point_data@H@polygon@boost@@H@std@@@2@@std@@QEAAPEAU?$pair@V?$point_data@H@polygon@boost@@H@1@QEAU21@AEBU21@@Z 000000018000c840 f i minkowski.obj
 0001:0000b840       ??$_Emplace_reallocate@U?$pair@V?$point_data@H@polygon@boost@@H@std@@@?$vector@U?$pair@V?$point_data@H@polygon@boost@@H@std@@V?$allocator@U?$pair@V?$point_data@H@polygon@boost@@H@std@@@2@@std@@QEAAPEAU?$pair@V?$point_data@H@polygon@boost@@H@1@QEAU21@$$QEAU21@@Z 000000018000c840 f i minkowski.obj
 0001:0000b9e0       ??$_Emplace_reallocate@U?$pair@U?$pair@U?$pair@V?$point_data@H@polygon@boost@@V123@@std@@H@std@@PEAVactive_tail_arbitrary@?$polygon_arbitrary_formation@H@polygon@boost@@@std@@@?$vector@U?$pair@U?$pair@U?$pair@V?$point_data@H@polygon@boost@@V123@@std@@H@std@@PEAVactive_tail_arbitrary@?$polygon_arbitrary_formation@H@polygon@boost@@@std@@V?$allocator@U?$pair@U?$pair@U?$pair@V?$point_data@H@polygon@boost@@V123@@std@@H@std@@PEAVactive_tail_arbitrary@?$polygon_arbitrary_formation@H@polygon@boost@@@std@@@2@@std@@QEAAPEAU?$pair@U?$pair@U?$pair@V?$point_data@H@polygon@boost@@V123@@std@@H@std@@PEAVactive_tail_arbitrary@?$polygon_arbitrary_formation@H@polygon@boost@@@1@QEAU21@$$QEAU21@@Z 000000018000c9e0 f i minkowski.obj
 0001:0000b9e0       ??$_Emplace_reallocate@U?$pair@Vvertex_half_edge@?$scanline_base@H@polygon@boost@@PEAVactive_tail_arbitrary@?$polygon_arbitrary_formation@H@34@@std@@@?$vector@U?$pair@Vvertex_half_edge@?$scanline_base@H@polygon@boost@@PEAVactive_tail_arbitrary@?$polygon_arbitrary_formation@H@34@@std@@V?$allocator@U?$pair@Vvertex_half_edge@?$scanline_base@H@polygon@boost@@PEAVactive_tail_arbitrary@?$polygon_arbitrary_formation@H@34@@std@@@2@@std@@QEAAPEAU?$pair@Vvertex_half_edge@?$scanline_base@H@polygon@boost@@PEAVactive_tail_arbitrary@?$polygon_arbitrary_formation@H@34@@1@QEAU21@$$QEAU21@@Z 000000018000c9e0 f i minkowski.obj
 0001:0000bbf0       ??$_Emplace_reallocate@U?$pair@U?$pair@V?$point_data@H@polygon@boost@@V123@@std@@U?$pair@HH@2@@std@@@?$vector@U?$pair@U?$pair@V?$point_data@H@polygon@boost@@V123@@std@@U?$pair@HH@2@@std@@V?$allocator@U?$pair@U?$pair@V?$point_data@H@polygon@boost@@V123@@std@@U?$pair@HH@2@@std@@@2@@std@@QEAAPEAU?$pair@U?$pair@V?$point_data@H@polygon@boost@@V123@@std@@U?$pair@HH@2@@1@QEAU21@$$QEAU21@@Z 000000018000cbf0 f i minkowski.obj
 0001:0000be20       ??$_Emplace_reallocate@AEBV?$_Tree_iterator@V?$_Tree_val@U?$_Tree_simple_types@U?$pair@$$CBU?$pair@V?$point_data@H@polygon@boost@@V123@@std@@V?$vector@U?$pair@HH@std@@V?$allocator@U?$pair@HH@std@@@2@@2@@std@@@std@@@std@@@std@@@?$vector@V?$_Tree_iterator@V?$_Tree_val@U?$_Tree_simple_types@U?$pair@$$CBU?$pair@V?$point_data@H@polygon@boost@@V123@@std@@V?$vector@U?$pair@HH@std@@V?$allocator@U?$pair@HH@std@@@2@@2@@std@@@std@@@std@@@std@@V?$allocator@V?$_Tree_iterator@V?$_Tree_val@U?$_Tree_simple_types@U?$pair@$$CBU?$pair@V?$point_data@H@polygon@boost@@V123@@std@@V?$vector@U?$pair@HH@std@@V?$allocator@U?$pair@HH@std@@@2@@2@@std@@@std@@@std@@@std@@@2@@std@@QEAAPEAV?$_Tree_iterator@V?$_Tree_val@U?$_Tree_simple_types@U?$pair@$$CBU?$pair@V?$point_data@H@polygon@boost@@V123@@std@@V?$vector@U?$pair@HH@std@@V?$allocator@U?$pair@HH@std@@@2@@2@@std@@@std@@@std@@@1@QEAV21@AEBV21@@Z 000000018000ce20 f i minkowski.obj
 0001:0000c000       ??$_Find_lower_bound@U?$pair@V?$point_data@H@polygon@boost@@V123@@std@@@?$_Tree@V?$_Tmap_traits@U?$pair@V?$point_data@H@polygon@boost@@V123@@std@@V?$vector@U?$pair@HH@std@@V?$allocator@U?$pair@HH@std@@@2@@2@Vless_half_edge@?$scanline_base@H@polygon@boost@@V?$allocator@U?$pair@$$CBU?$pair@V?$point_data@H@polygon@boost@@V123@@std@@V?$vector@U?$pair@HH@std@@V?$allocator@U?$pair@HH@std@@@2@@2@@std@@@2@$0A@@std@@@std@@IEBA?AU?$_Tree_find_result@PEAU?$_Tree_node@U?$pair@$$CBU?$pair@V?$point_data@H@polygon@boost@@V123@@std@@V?$vector@U?$pair@HH@std@@V?$allocator@U?$pair@HH@std@@@2@@2@@std@@PEAX@std@@@1@AEBU?$pair@V?$point_data@H@polygon@boost@@V123@@1@@Z 000000018000d000 f i minkowski.obj
 0001:0000c290       ??$_Emplace@AEBV?$point_data@H@polygon@boost@@@?$list@V?$point_data@H@polygon@boost@@V?$allocator@V?$point_data@H@polygon@boost@@@std@@@std@@QEAAPEAU?$_List_node@V?$point_data@H@polygon@boost@@PEAX@1@QEAU21@AEBV?$point_data@H@polygon@boost@@@Z 000000018000d290 f i minkowski.obj
 0001:0000c300       ??$_Find_lower_bound@Vvertex_half_edge@?$scanline_base@H@polygon@boost@@@?$_Tree@V?$_Tmap_traits@Vvertex_half_edge@?$scanline_base@H@polygon@boost@@PEAVactive_tail_arbitrary@?$polygon_arbitrary_formation@H@34@Vless_vertex_half_edge@234@V?$allocator@U?$pair@$$CBVvertex_half_edge@?$scanline_base@H@polygon@boost@@PEAVactive_tail_arbitrary@?$polygon_arbitrary_formation@H@34@@std@@@std@@$0A@@std@@@std@@IEBA?AU?$_Tree_find_result@PEAU?$_Tree_node@U?$pair@$$CBVvertex_half_edge@?$scanline_base@H@polygon@boost@@PEAVactive_tail_arbitrary@?$polygon_arbitrary_formation@H@34@@std@@PEAX@std@@@1@AEBVvertex_half_edge@?$scanline_base@H@polygon@boost@@@Z 000000018000d300 f i minkowski.obj
 0001:0000c590       ??1?$pair@U?$pair@V?$point_data@H@polygon@boost@@V123@@std@@V?$vector@U?$pair@HH@std@@V?$allocator@U?$pair@HH@std@@@2@@2@@std@@QEAA@XZ 000000018000d590 f i minkowski.obj
 0001:0000c5f0       ?_Umove@?$vector@U?$pair@U?$pair@U?$pair@V?$point_data@H@polygon@boost@@V123@@std@@H@std@@PEAVactive_tail_arbitrary@?$polygon_arbitrary_formation@H@polygon@boost@@@std@@V?$allocator@U?$pair@U?$pair@U?$pair@V?$point_data@H@polygon@boost@@V123@@std@@H@std@@PEAVactive_tail_arbitrary@?$polygon_arbitrary_formation@H@polygon@boost@@@std@@@2@@std@@AEAAPEAU?$pair@U?$pair@U?$pair@V?$point_data@H@polygon@boost@@V123@@std@@H@std@@PEAVactive_tail_arbitrary@?$polygon_arbitrary_formation@H@polygon@boost@@@2@PEAU32@00@Z 000000018000d5f0 f i minkowski.obj
 0001:0000c5f0       ?_Umove@?$vector@U?$pair@Vvertex_half_edge@?$scanline_base@H@polygon@boost@@PEAVactive_tail_arbitrary@?$polygon_arbitrary_formation@H@34@@std@@V?$allocator@U?$pair@Vvertex_half_edge@?$scanline_base@H@polygon@boost@@PEAVactive_tail_arbitrary@?$polygon_arbitrary_formation@H@34@@std@@@2@@std@@AEAAPEAU?$pair@Vvertex_half_edge@?$scanline_base@H@polygon@boost@@PEAVactive_tail_arbitrary@?$polygon_arbitrary_formation@H@34@@2@PEAU32@00@Z 000000018000d5f0 f i minkowski.obj
 0001:0000c650       ?update_property_map@?$scanline@HHV?$vector@HV?$allocator@H@std@@@std@@@polygon@boost@@SAXAEAV?$vector@U?$pair@HH@std@@V?$allocator@U?$pair@HH@std@@@2@@std@@AEBU?$pair@HH@5@@Z 000000018000d650 f i minkowski.obj
 0001:0000ca50       ?merge_property_maps@?$scanline@HHV?$vector@HV?$allocator@H@std@@@std@@@polygon@boost@@SAXAEAV?$vector@U?$pair@HH@std@@V?$allocator@U?$pair@HH@std@@@2@@std@@AEBV45@@Z 000000018000da50 f i minkowski.obj
 0001:0000d1c0       ??$emplace_back@AEBU?$pair@U?$pair@V?$point_data@H@polygon@boost@@V123@@std@@V?$vector@U?$pair@HH@std@@V?$allocator@U?$pair@HH@std@@@2@@2@@std@@@?$vector@U?$pair@U?$pair@V?$point_data@H@polygon@boost@@V123@@std@@V?$vector@U?$pair@HH@std@@V?$allocator@U?$pair@HH@std@@@2@@2@@std@@V?$allocator@U?$pair@U?$pair@V?$point_data@H@polygon@boost@@V123@@std@@V?$vector@U?$pair@HH@std@@V?$allocator@U?$pair@HH@std@@@2@@2@@std@@@2@@std@@QEAA?A_TAEBU?$pair@U?$pair@V?$point_data@H@polygon@boost@@V123@@std@@V?$vector@U?$pair@HH@std@@V?$allocator@U?$pair@HH@std@@@2@@2@@1@@Z 000000018000e1c0 f i minkowski.obj
 0001:0000d330       ??Rless_vertex_half_edge@?$scanline_base@H@polygon@boost@@QEBA_NAEBVvertex_half_edge@123@0@Z 000000018000e330 f i minkowski.obj
 0001:0000d330       ??Rless_half_edge@?$scanline_base@H@polygon@boost@@QEBA_NAEBU?$pair@V?$point_data@H@polygon@boost@@V123@@std@@0@Z 000000018000e330 f i minkowski.obj
 0001:0000d550       ?_Change_array@?$vector@HV?$allocator@H@std@@@std@@AEAAXQEAH_K1@Z 000000018000e550 f i minkowski.obj
 0001:0000d5e0       ?allocate@?$allocator@H@std@@QEAAPEAH_K@Z 000000018000e5e0 f i minkowski.obj
 0001:0000d650       ?createActiveTailsAsPair@active_tail_arbitrary@?$polygon_arbitrary_formation@H@polygon@boost@@SA?AU?$pair@PEAVactive_tail_arbitrary@?$polygon_arbitrary_formation@H@polygon@boost@@PEAV1234@@std@@V?$point_data@H@34@_NPEAV1234@1@Z 000000018000e650 f i minkowski.obj
 0001:0000d810       ?_Umove@?$vector@U?$pair@U?$pair@V?$point_data@H@polygon@boost@@V123@@std@@U?$pair@HH@2@@std@@V?$allocator@U?$pair@U?$pair@V?$point_data@H@polygon@boost@@V123@@std@@U?$pair@HH@2@@std@@@2@@std@@AEAAPEAU?$pair@U?$pair@V?$point_data@H@polygon@boost@@V123@@std@@U?$pair@HH@2@@2@PEAU32@00@Z 000000018000e810 f i minkowski.obj
 0001:0000d860       ??$joinChains@V?$vector@V?$polygon_with_holes_data@H@polygon@boost@@V?$allocator@V?$polygon_with_holes_data@H@polygon@boost@@@std@@@std@@@active_tail_arbitrary@?$polygon_arbitrary_formation@H@polygon@boost@@SAPEAV0123@V?$point_data@H@23@PEAV0123@1_NAEAV?$vector@V?$polygon_with_holes_data@H@polygon@boost@@V?$allocator@V?$polygon_with_holes_data@H@polygon@boost@@@std@@@std@@@Z 000000018000e860 f i minkowski.obj
 0001:0000dc70       ??$validate_scan_divide_and_conquer@V?$_Vector_iterator@V?$_Vector_val@U?$_Simple_types@U?$pair@U?$pair@V?$point_data@H@polygon@boost@@V123@@std@@H@std@@@std@@@std@@@std@@@?$line_intersection@H@polygon@boost@@SAXAEAV?$vector@V?$set@V?$point_data@H@polygon@boost@@U?$less@V?$point_data@H@polygon@boost@@@std@@V?$allocator@V?$point_data@H@polygon@boost@@@5@@std@@V?$allocator@V?$set@V?$point_data@H@polygon@boost@@U?$less@V?$point_data@H@polygon@boost@@@std@@V?$allocator@V?$point_data@H@polygon@boost@@@5@@std@@@2@@std@@V?$_Vector_iterator@V?$_Vector_val@U?$_Simple_types@U?$pair@U?$pair@V?$point_data@H@polygon@boost@@V123@@std@@H@std@@@std@@@std@@@4@1@Z 000000018000ec70 f i minkowski.obj
 0001:0000e5c0       ??$segment_intersections@V?$_Vector_iterator@V?$_Vector_val@U?$_Simple_types@U?$pair@U?$pair@V?$point_data@H@polygon@boost@@V123@@std@@H@std@@@std@@@std@@@std@@@?$line_intersection@H@polygon@boost@@SAXAEAV?$vector@U?$pair@U?$pair@V?$point_data@H@polygon@boost@@V123@@std@@H@std@@V?$allocator@U?$pair@U?$pair@V?$point_data@H@polygon@boost@@V123@@std@@H@std@@@2@@std@@AEAV?$vector@V?$set@V?$point_data@H@polygon@boost@@U?$less@V?$point_data@H@polygon@boost@@@std@@V?$allocator@V?$point_data@H@polygon@boost@@@5@@std@@V?$allocator@V?$set@V?$point_data@H@polygon@boost@@U?$less@V?$point_data@H@polygon@boost@@@std@@V?$allocator@V?$point_data@H@polygon@boost@@@5@@std@@@2@@4@V?$_Vector_iterator@V?$_Vector_val@U?$_Simple_types@U?$pair@U?$pair@V?$point_data@H@polygon@boost@@V123@@std@@H@std@@@std@@@std@@@4@2@Z 000000018000f5c0 f i minkowski.obj
 0001:0000e9b0       ??$write_out@V?$polygon_set_data@H@polygon@boost@@V?$boolean_output_functor@V?$polygon_set_data@H@polygon@boost@@V?$vector@HV?$allocator@H@std@@@std@@$0A@@?$arbitrary_boolean_op@H@23@@?$scanline@HHV?$vector@HV?$allocator@H@std@@@std@@@polygon@boost@@QEAAXAEAV?$polygon_set_data@H@12@V?$boolean_output_functor@V?$polygon_set_data@H@polygon@boost@@V?$vector@HV?$allocator@H@std@@@std@@$0A@@?$arbitrary_boolean_op@H@12@AEBU?$pair@V?$point_data@H@polygon@boost@@V123@@std@@AEBV?$vector@U?$pair@HH@std@@V?$allocator@U?$pair@HH@std@@@2@@7@3@Z 000000018000f9b0 f i minkowski.obj
 0001:0000ed70       ??$write_out@V?$polygon_set_data@H@polygon@boost@@V?$boolean_output_functor@V?$polygon_set_data@H@polygon@boost@@V?$vector@HV?$allocator@H@std@@@std@@$02@?$arbitrary_boolean_op@H@23@@?$scanline@HHV?$vector@HV?$allocator@H@std@@@std@@@polygon@boost@@QEAAXAEAV?$polygon_set_data@H@12@V?$boolean_output_functor@V?$polygon_set_data@H@polygon@boost@@V?$vector@HV?$allocator@H@std@@@std@@$02@?$arbitrary_boolean_op@H@12@AEBU?$pair@V?$point_data@H@polygon@boost@@V123@@std@@AEBV?$vector@U?$pair@HH@std@@V?$allocator@U?$pair@HH@std@@@2@@7@3@Z 000000018000fd70 f i minkowski.obj
 0001:0000f150       ??$_Emplace_reallocate@U?$pair@U?$pair@V?$point_data@H@polygon@boost@@V123@@std@@V?$vector@U?$pair@HH@std@@V?$allocator@U?$pair@HH@std@@@2@@2@@std@@@?$vector@U?$pair@U?$pair@V?$point_data@H@polygon@boost@@V123@@std@@V?$vector@U?$pair@HH@std@@V?$allocator@U?$pair@HH@std@@@2@@2@@std@@V?$allocator@U?$pair@U?$pair@V?$point_data@H@polygon@boost@@V123@@std@@V?$vector@U?$pair@HH@std@@V?$allocator@U?$pair@HH@std@@@2@@2@@std@@@2@@std@@QEAAPEAU?$pair@U?$pair@V?$point_data@H@polygon@boost@@V123@@std@@V?$vector@U?$pair@HH@std@@V?$allocator@U?$pair@HH@std@@@2@@2@@1@QEAU21@$$QEAU21@@Z 0000000180010150 f i minkowski.obj
 0001:0000f2c0       ??$less_slope@H@?$scanline_base@H@polygon@boost@@SA_NHHHH@Z 00000001800102c0 f i minkowski.obj
 0001:0000f3f0       ??1?$_Tree_temp_node@V?$allocator@U?$_Tree_node@V?$point_data@H@polygon@boost@@PEAX@std@@@std@@@std@@QEAA@XZ 00000001800103f0 f i minkowski.obj
 0001:0000f410       ?_Release@?$_Alloc_construct_ptr@V?$allocator@U?$_Tree_node@V?$point_data@H@polygon@boost@@PEAX@std@@@std@@@std@@QEAAPEAU?$_Tree_node@V?$point_data@H@polygon@boost@@PEAX@2@XZ 0000000180010410 f i minkowski.obj
 0001:0000f420       ?_Insert_node@?$_Tree_val@U?$_Tree_simple_types@U?$pair@$$CBU?$pair@V?$point_data@H@polygon@boost@@V123@@std@@V?$vector@U?$pair@HH@std@@V?$allocator@U?$pair@HH@std@@@2@@2@@std@@@std@@@std@@QEAAPEAU?$_Tree_node@U?$pair@$$CBU?$pair@V?$point_data@H@polygon@boost@@V123@@std@@V?$vector@U?$pair@HH@std@@V?$allocator@U?$pair@HH@std@@@2@@2@@std@@PEAX@2@U?$_Tree_id@PEAU?$_Tree_node@U?$pair@$$CBU?$pair@V?$point_data@H@polygon@boost@@V123@@std@@V?$vector@U?$pair@HH@std@@V?$allocator@U?$pair@HH@std@@@2@@2@@std@@PEAX@std@@@2@QEAU32@@Z 0000000180010420 f i minkowski.obj
 0001:0000f420       ?_Insert_node@?$_Tree_val@U?$_Tree_simple_types@U?$pair@$$CBHV?$vector@U?$pair@U?$pair@V?$point_data@H@polygon@boost@@V123@@std@@H@std@@V?$allocator@U?$pair@U?$pair@V?$point_data@H@polygon@boost@@V123@@std@@H@std@@@2@@std@@@std@@@std@@@std@@QEAAPEAU?$_Tree_node@U?$pair@$$CBHV?$vector@U?$pair@U?$pair@V?$point_data@H@polygon@boost@@V123@@std@@H@std@@V?$allocator@U?$pair@U?$pair@V?$point_data@H@polygon@boost@@V123@@std@@H@std@@@2@@std@@@std@@PEAX@2@U?$_Tree_id@PEAU?$_Tree_node@U?$pair@$$CBHV?$vector@U?$pair@U?$pair@V?$point_data@H@polygon@boost@@V123@@std@@H@std@@V?$allocator@U?$pair@U?$pair@V?$point_data@H@polygon@boost@@V123@@std@@H@std@@@2@@std@@@std@@PEAX@std@@@2@QEAU32@@Z 0000000180010420 f i minkowski.obj
 0001:0000f420       ?_Insert_node@?$_Tree_val@U?$_Tree_simple_types@U?$pair@$$CBVvertex_half_edge@?$scanline_base@H@polygon@boost@@PEAVactive_tail_arbitrary@?$polygon_arbitrary_formation@H@34@@std@@@std@@@std@@QEAAPEAU?$_Tree_node@U?$pair@$$CBVvertex_half_edge@?$scanline_base@H@polygon@boost@@PEAVactive_tail_arbitrary@?$polygon_arbitrary_formation@H@34@@std@@PEAX@2@U?$_Tree_id@PEAU?$_Tree_node@U?$pair@$$CBVvertex_half_edge@?$scanline_base@H@polygon@boost@@PEAVactive_tail_arbitrary@?$polygon_arbitrary_formation@H@34@@std@@PEAX@std@@@2@QEAU32@@Z 0000000180010420 f i minkowski.obj
 0001:0000f420       ?_Insert_node@?$_Tree_val@U?$_Tree_simple_types@V?$point_data@H@polygon@boost@@@std@@@std@@QEAAPEAU?$_Tree_node@V?$point_data@H@polygon@boost@@PEAX@2@U?$_Tree_id@PEAU?$_Tree_node@V?$point_data@H@polygon@boost@@PEAX@std@@@2@QEAU32@@Z 0000000180010420 f i minkowski.obj
 0001:0000f6a0       ?_Change_array@?$vector@U?$pair@U?$pair@V?$point_data@H@polygon@boost@@V123@@std@@V?$vector@U?$pair@HH@std@@V?$allocator@U?$pair@HH@std@@@2@@2@@std@@V?$allocator@U?$pair@U?$pair@V?$point_data@H@polygon@boost@@V123@@std@@V?$vector@U?$pair@HH@std@@V?$allocator@U?$pair@HH@std@@@2@@2@@std@@@2@@std@@AEAAXQEAU?$pair@U?$pair@V?$point_data@H@polygon@boost@@V123@@std@@V?$vector@U?$pair@HH@std@@V?$allocator@U?$pair@HH@std@@@2@@2@@2@_K1@Z 00000001800106a0 f i minkowski.obj
 0001:0000f760       ?_Umove_if_noexcept@?$vector@U?$pair@U?$pair@V?$point_data@H@polygon@boost@@V123@@std@@V?$vector@U?$pair@HH@std@@V?$allocator@U?$pair@HH@std@@@2@@2@@std@@V?$allocator@U?$pair@U?$pair@V?$point_data@H@polygon@boost@@V123@@std@@V?$vector@U?$pair@HH@std@@V?$allocator@U?$pair@HH@std@@@2@@2@@std@@@2@@std@@AEAAXPEAU?$pair@U?$pair@V?$point_data@H@polygon@boost@@V123@@std@@V?$vector@U?$pair@HH@std@@V?$allocator@U?$pair@HH@std@@@2@@2@@2@00@Z 0000000180010760 f i minkowski.obj
 0001:0000f7f0       ?_Umove@?$vector@U?$pair@U?$pair@V?$point_data@H@polygon@boost@@V123@@std@@V?$vector@U?$pair@HH@std@@V?$allocator@U?$pair@HH@std@@@2@@2@@std@@V?$allocator@U?$pair@U?$pair@V?$point_data@H@polygon@boost@@V123@@std@@V?$vector@U?$pair@HH@std@@V?$allocator@U?$pair@HH@std@@@2@@2@@std@@@2@@std@@AEAAPEAU?$pair@U?$pair@V?$point_data@H@polygon@boost@@V123@@std@@V?$vector@U?$pair@HH@std@@V?$allocator@U?$pair@HH@std@@@2@@2@@2@PEAU32@00@Z 00000001800107f0 f i minkowski.obj
 0001:0000f890       ?allocate@?$allocator@U?$pair@U?$pair@V?$point_data@H@polygon@boost@@V123@@std@@V?$vector@U?$pair@HH@std@@V?$allocator@U?$pair@HH@std@@@2@@2@@std@@@std@@QEAAPEAU?$pair@U?$pair@V?$point_data@H@polygon@boost@@V123@@std@@V?$vector@U?$pair@HH@std@@V?$allocator@U?$pair@HH@std@@@2@@2@@2@_K@Z 0000000180010890 f i minkowski.obj
 0001:0000f910       ??$_Sort_unchecked@PEAVvertex_half_edge@?$scanline_base@H@polygon@boost@@U?$less@X@std@@@std@@YAXPEAVvertex_half_edge@?$scanline_base@H@polygon@boost@@0_JU?$less@X@0@@Z 0000000180010910 f i minkowski.obj
 0001:0000fb30       ??$compute_histogram_in_y@V?$_Vector_iterator@V?$_Vector_val@U?$_Simple_types@U?$pair@U?$pair@V?$point_data@H@polygon@boost@@V123@@std@@H@std@@@std@@@std@@@std@@@?$line_intersection@H@polygon@boost@@SAXV?$_Vector_iterator@V?$_Vector_val@U?$_Simple_types@U?$pair@U?$pair@V?$point_data@H@polygon@boost@@V123@@std@@H@std@@@std@@@std@@@std@@0_KAEAV?$vector@U?$pair@HU?$pair@_K_K@std@@@std@@V?$allocator@U?$pair@HU?$pair@_K_K@std@@@std@@@2@@4@@Z 0000000180010b30 f i minkowski.obj
 0001:00010120       ??$compute_y_cuts@V?$_Vector_iterator@V?$_Vector_val@U?$_Simple_types@U?$pair@HU?$pair@_K_K@std@@@std@@@std@@@std@@@std@@@?$line_intersection@H@polygon@boost@@SAXAEAV?$vector@HV?$allocator@H@std@@@std@@V?$_Vector_iterator@V?$_Vector_val@U?$_Simple_types@U?$pair@HU?$pair@_K_K@std@@@std@@@std@@@std@@@4@1_K@Z 0000000180011120 f i minkowski.obj
 0001:00010250       ??$validate_scan@V?$_Vector_iterator@V?$_Vector_val@U?$_Simple_types@U?$pair@U?$pair@V?$point_data@H@polygon@boost@@V123@@std@@H@std@@@std@@@std@@@std@@@?$line_intersection@H@polygon@boost@@SAXAEAV?$vector@V?$set@V?$point_data@H@polygon@boost@@U?$less@V?$point_data@H@polygon@boost@@@std@@V?$allocator@V?$point_data@H@polygon@boost@@@5@@std@@V?$allocator@V?$set@V?$point_data@H@polygon@boost@@U?$less@V?$point_data@H@polygon@boost@@@std@@V?$allocator@V?$point_data@H@polygon@boost@@@5@@std@@@2@@std@@V?$_Vector_iterator@V?$_Vector_val@U?$_Simple_types@U?$pair@U?$pair@V?$point_data@H@polygon@boost@@V123@@std@@H@std@@@std@@@std@@@4@1H@Z 0000000180011250 f i minkowski.obj
 0001:00010ef0       ??$_Sort_unchecked@PEAU?$pair@U?$pair@V?$point_data@H@polygon@boost@@V123@@std@@U?$pair@HH@2@@std@@V?$less_vertex_data@U?$pair@U?$pair@V?$point_data@H@polygon@boost@@V123@@std@@U?$pair@HH@2@@std@@@?$arbitrary_boolean_op@H@polygon@boost@@@std@@YAXPEAU?$pair@U?$pair@V?$point_data@H@polygon@boost@@V123@@std@@U?$pair@HH@2@@0@0_JV?$less_vertex_data@U?$pair@U?$pair@V?$point_data@H@polygon@boost@@V123@@std@@U?$pair@HH@2@@std@@@?$arbitrary_boolean_op@H@polygon@boost@@@Z 0000000180011ef0 f i minkowski.obj
 0001:00011110       ??$_Lower_bound_duplicate@V?$point_data@H@polygon@boost@@@?$_Tree@V?$_Tset_traits@V?$point_data@H@polygon@boost@@Vless_point@?$scanline_base@H@23@V?$allocator@V?$point_data@H@polygon@boost@@@std@@$0A@@std@@@std@@IEBA_NQEAU?$_Tree_node@V?$point_data@H@polygon@boost@@PEAX@1@AEBV?$point_data@H@polygon@boost@@@Z 0000000180012110 f i minkowski.obj
 0001:00011130       ??$?0AEBV?$point_data@H@polygon@boost@@@?$_Tree_temp_node@V?$allocator@U?$_Tree_node@V?$point_data@H@polygon@boost@@PEAX@std@@@std@@@std@@QEAA@AEAV?$allocator@U?$_Tree_node@V?$point_data@H@polygon@boost@@PEAX@std@@@1@PEAU?$_Tree_node@V?$point_data@H@polygon@boost@@PEAX@1@AEBV?$point_data@H@polygon@boost@@@Z 0000000180012130 f i minkowski.obj
 0001:000111b0       ??$_Emplace_reallocate@V?$polygon_with_holes_data@H@polygon@boost@@@?$vector@V?$polygon_with_holes_data@H@polygon@boost@@V?$allocator@V?$polygon_with_holes_data@H@polygon@boost@@@std@@@std@@QEAAPEAV?$polygon_with_holes_data@H@polygon@boost@@QEAV234@$$QEAV234@@Z 00000001800121b0 f i minkowski.obj
 0001:000113e0       ?push_back@?$vector@U?$pair@HU?$pair@_K_K@std@@@std@@V?$allocator@U?$pair@HU?$pair@_K_K@std@@@std@@@2@@std@@QEAAX$$QEAU?$pair@HU?$pair@_K_K@std@@@2@@Z 00000001800123e0 f i minkowski.obj
 0001:00011590       ?intersects_grid@?$scanline_base@H@polygon@boost@@SA_NV?$point_data@H@23@AEBU?$pair@V?$point_data@H@polygon@boost@@V123@@std@@@Z 0000000180012590 f i minkowski.obj
 0001:000117f0       ?_Umove@?$vector@V?$polygon_with_holes_data@H@polygon@boost@@V?$allocator@V?$polygon_with_holes_data@H@polygon@boost@@@std@@@std@@AEAAPEAV?$polygon_with_holes_data@H@polygon@boost@@PEAV345@00@Z 00000001800127f0 f i minkowski.obj
 0001:00011840       ?compute_exact_intersection@compute_intersection_pack@?$scanline_base@H@polygon@boost@@QEAA_NAEAV?$point_data@H@34@AEBU?$pair@V?$point_data@H@polygon@boost@@V123@@std@@1_N2@Z 0000000180012840 f i minkowski.obj
 0001:00011ca0       ?compute_lazy_intersection@compute_intersection_pack@?$scanline_base@H@polygon@boost@@SA_NAEAV?$point_data@H@34@AEBU?$pair@V?$point_data@H@polygon@boost@@V123@@std@@1_N2@Z 0000000180012ca0 f i minkowski.obj
 0001:00012090       ?intersects@?$scanline_base@H@polygon@boost@@SA_NAEBU?$pair@V?$point_data@H@polygon@boost@@V123@@std@@0@Z 0000000180013090 f i minkowski.obj
 0001:00012530       ?_Change_array@?$vector@U?$pair@HU?$pair@_K_K@std@@@std@@V?$allocator@U?$pair@HU?$pair@_K_K@std@@@std@@@2@@std@@AEAAXQEAU?$pair@HU?$pair@_K_K@std@@@2@_K1@Z 0000000180013530 f i minkowski.obj
 0001:000125e0       ??$_Insertion_sort_unchecked@PEAVvertex_half_edge@?$scanline_base@H@polygon@boost@@U?$less@X@std@@@std@@YAPEAVvertex_half_edge@?$scanline_base@H@polygon@boost@@QEAV1234@0U?$less@X@0@@Z 00000001800135e0 f i minkowski.obj
 0001:00012920       ??$_Partition_by_median_guess_unchecked@PEAVvertex_half_edge@?$scanline_base@H@polygon@boost@@U?$less@X@std@@@std@@YA?AU?$pair@PEAVvertex_half_edge@?$scanline_base@H@polygon@boost@@PEAV1234@@0@PEAVvertex_half_edge@?$scanline_base@H@polygon@boost@@0U?$less@X@0@@Z 0000000180013920 f i minkowski.obj
 0001:000136f0       ??$_Find_hint@Vvertex_half_edge@?$scanline_base@H@polygon@boost@@@?$_Tree@V?$_Tmap_traits@Vvertex_half_edge@?$scanline_base@H@polygon@boost@@PEAVactive_tail_arbitrary@?$polygon_arbitrary_formation@H@34@Vless_vertex_half_edge@234@V?$allocator@U?$pair@$$CBVvertex_half_edge@?$scanline_base@H@polygon@boost@@PEAVactive_tail_arbitrary@?$polygon_arbitrary_formation@H@34@@std@@@std@@$0A@@std@@@std@@IEBA?AU?$_Tree_find_hint_result@PEAU?$_Tree_node@U?$pair@$$CBVvertex_half_edge@?$scanline_base@H@polygon@boost@@PEAVactive_tail_arbitrary@?$polygon_arbitrary_formation@H@34@@std@@PEAX@std@@@1@QEAU?$_Tree_node@U?$pair@$$CBVvertex_half_edge@?$scanline_base@H@polygon@boost@@PEAVactive_tail_arbitrary@?$polygon_arbitrary_formation@H@34@@std@@PEAX@1@AEBVvertex_half_edge@?$scanline_base@H@polygon@boost@@@Z 00000001800146f0 f i minkowski.obj
 0001:00013960       ??$_Insert_range@V?$_Tree_unchecked_const_iterator@V?$_Tree_val@U?$_Tree_simple_types@V?$point_data@H@polygon@boost@@@std@@@std@@U_Iterator_base0@2@@std@@@?$vector@V?$point_data@H@polygon@boost@@V?$allocator@V?$point_data@H@polygon@boost@@@std@@@std@@AEAAXV?$_Vector_const_iterator@V?$_Vector_val@U?$_Simple_types@V?$point_data@H@polygon@boost@@@std@@@std@@@1@V?$_Tree_unchecked_const_iterator@V?$_Tree_val@U?$_Tree_simple_types@V?$point_data@H@polygon@boost@@@std@@@std@@U_Iterator_base0@2@@1@1Uforward_iterator_tag@1@@Z 0000000180014960 f i minkowski.obj
 0001:00013cc0       ??$_Insertion_sort_unchecked@PEAU?$pair@U?$pair@V?$point_data@H@polygon@boost@@V123@@std@@U?$pair@HH@2@@std@@V?$less_vertex_data@U?$pair@U?$pair@V?$point_data@H@polygon@boost@@V123@@std@@U?$pair@HH@2@@std@@@?$arbitrary_boolean_op@H@polygon@boost@@@std@@YAPEAU?$pair@U?$pair@V?$point_data@H@polygon@boost@@V123@@std@@U?$pair@HH@2@@0@QEAU10@0V?$less_vertex_data@U?$pair@U?$pair@V?$point_data@H@polygon@boost@@V123@@std@@U?$pair@HH@2@@std@@@?$arbitrary_boolean_op@H@polygon@boost@@@Z 0000000180014cc0 f i minkowski.obj
 0001:00013f10       ??$_Partition_by_median_guess_unchecked@PEAU?$pair@U?$pair@V?$point_data@H@polygon@boost@@V123@@std@@U?$pair@HH@2@@std@@V?$less_vertex_data@U?$pair@U?$pair@V?$point_data@H@polygon@boost@@V123@@std@@U?$pair@HH@2@@std@@@?$arbitrary_boolean_op@H@polygon@boost@@@std@@YA?AU?$pair@PEAU?$pair@U?$pair@V?$point_data@H@polygon@boost@@V123@@std@@U?$pair@HH@2@@std@@PEAU12@@0@PEAU?$pair@U?$pair@V?$point_data@H@polygon@boost@@V123@@std@@U?$pair@HH@2@@0@0V?$less_vertex_data@U?$pair@U?$pair@V?$point_data@H@polygon@boost@@V123@@std@@U?$pair@HH@2@@std@@@?$arbitrary_boolean_op@H@polygon@boost@@@Z 0000000180014f10 f i minkowski.obj
 0001:00014670       ??$_Sort_unchecked@PEAU?$pair@U?$pair@V?$point_data@H@polygon@boost@@V123@@std@@H@std@@U?$less@X@2@@std@@YAXPEAU?$pair@U?$pair@V?$point_data@H@polygon@boost@@V123@@std@@H@0@0_JU?$less@X@0@@Z 0000000180015670 f i minkowski.obj
 0001:00014830       ??$_Sort_unchecked@PEAU?$pair@U?$pair@U?$pair@V?$point_data@H@polygon@boost@@V123@@std@@H@std@@PEAVactive_tail_arbitrary@?$polygon_arbitrary_formation@H@polygon@boost@@@std@@U?$_Ref_fn@Vless_incoming_count@?$polygon_arbitrary_formation@H@polygon@boost@@@2@@std@@YAXPEAU?$pair@U?$pair@U?$pair@V?$point_data@H@polygon@boost@@V123@@std@@H@std@@PEAVactive_tail_arbitrary@?$polygon_arbitrary_formation@H@polygon@boost@@@0@0_JU?$_Ref_fn@Vless_incoming_count@?$polygon_arbitrary_formation@H@polygon@boost@@@0@@Z 0000000180015830 f i minkowski.obj
 0001:000149f0       ??$_Sort_unchecked@PEAU?$pair@V?$point_data@H@polygon@boost@@H@std@@U?$_Ref_fn@Vless_half_edge_count@?$polygon_arbitrary_formation@H@polygon@boost@@@2@@std@@YAXPEAU?$pair@V?$point_data@H@polygon@boost@@H@0@0_JU?$_Ref_fn@Vless_half_edge_count@?$polygon_arbitrary_formation@H@polygon@boost@@@0@@Z 00000001800159f0 f i minkowski.obj
 0001:00014b90       ??$_Erase_tree@V?$allocator@U?$_Tree_node@U?$pair@$$CBHV?$vector@U?$pair@U?$pair@V?$point_data@H@polygon@boost@@V123@@std@@H@std@@V?$allocator@U?$pair@U?$pair@V?$point_data@H@polygon@boost@@V123@@std@@H@std@@@2@@std@@@std@@PEAX@std@@@std@@@?$_Tree_val@U?$_Tree_simple_types@U?$pair@$$CBHV?$vector@U?$pair@U?$pair@V?$point_data@H@polygon@boost@@V123@@std@@H@std@@V?$allocator@U?$pair@U?$pair@V?$point_data@H@polygon@boost@@V123@@std@@H@std@@@2@@std@@@std@@@std@@@std@@QEAAXAEAV?$allocator@U?$_Tree_node@U?$pair@$$CBHV?$vector@U?$pair@U?$pair@V?$point_data@H@polygon@boost@@V123@@std@@H@std@@V?$allocator@U?$pair@U?$pair@V?$point_data@H@polygon@boost@@V123@@std@@H@std@@@2@@std@@@std@@PEAX@std@@@1@PEAU?$_Tree_node@U?$pair@$$CBHV?$vector@U?$pair@U?$pair@V?$point_data@H@polygon@boost@@V123@@std@@H@std@@V?$allocator@U?$pair@U?$pair@V?$point_data@H@polygon@boost@@V123@@std@@H@std@@@2@@std@@@std@@PEAX@1@@Z 0000000180015b90 f i minkowski.obj
 0001:00014c10       ??$_Pop_heap_hole_by_index@PEAVvertex_half_edge@?$scanline_base@H@polygon@boost@@V1234@U?$less@X@std@@@std@@YAXPEAVvertex_half_edge@?$scanline_base@H@polygon@boost@@_J1$$QEAV1234@U?$less@X@0@@Z 0000000180015c10 f i minkowski.obj
 0001:00014f10       ??$_Ucopy@V?$_Tree_unchecked_const_iterator@V?$_Tree_val@U?$_Tree_simple_types@V?$point_data@H@polygon@boost@@@std@@@std@@U_Iterator_base0@2@@std@@@?$vector@V?$point_data@H@polygon@boost@@V?$allocator@V?$point_data@H@polygon@boost@@@std@@@std@@AEAAPEAV?$point_data@H@polygon@boost@@V?$_Tree_unchecked_const_iterator@V?$_Tree_val@U?$_Tree_simple_types@V?$point_data@H@polygon@boost@@@std@@@std@@U_Iterator_base0@2@@1@0PEAV234@@Z 0000000180015f10 f i minkowski.obj
 0001:00014f90       ??$_Pop_heap_hole_by_index@PEAU?$pair@U?$pair@V?$point_data@H@polygon@boost@@V123@@std@@U?$pair@HH@2@@std@@U12@V?$less_vertex_data@U?$pair@U?$pair@V?$point_data@H@polygon@boost@@V123@@std@@U?$pair@HH@2@@std@@@?$arbitrary_boolean_op@H@polygon@boost@@@std@@YAXPEAU?$pair@U?$pair@V?$point_data@H@polygon@boost@@V123@@std@@U?$pair@HH@2@@0@_J1$$QEAU10@V?$less_vertex_data@U?$pair@U?$pair@V?$point_data@H@polygon@boost@@V123@@std@@U?$pair@HH@2@@std@@@?$arbitrary_boolean_op@H@polygon@boost@@@Z 0000000180015f90 f i minkowski.obj
 0001:00015220       ??$iter_swap@PEAU?$pair@U?$pair@V?$point_data@H@polygon@boost@@V123@@std@@U?$pair@HH@2@@std@@PEAU12@@std@@YAXPEAU?$pair@U?$pair@V?$point_data@H@polygon@boost@@V123@@std@@U?$pair@HH@2@@0@0@Z 0000000180016220 f i minkowski.obj
 0001:00015290       ??$_Insertion_sort_unchecked@PEAU?$pair@U?$pair@V?$point_data@H@polygon@boost@@V123@@std@@H@std@@U?$less@X@2@@std@@YAPEAU?$pair@U?$pair@V?$point_data@H@polygon@boost@@V123@@std@@H@0@QEAU10@0U?$less@X@0@@Z 0000000180016290 f i minkowski.obj
 0001:00015480       ??$_Make_heap_unchecked@PEAU?$pair@U?$pair@V?$point_data@H@polygon@boost@@V123@@std@@H@std@@U?$less@X@2@@std@@YAXPEAU?$pair@U?$pair@V?$point_data@H@polygon@boost@@V123@@std@@H@0@0U?$less@X@0@@Z 0000000180016480 f i minkowski.obj
 0001:00015680       ??$_Partition_by_median_guess_unchecked@PEAU?$pair@U?$pair@V?$point_data@H@polygon@boost@@V123@@std@@H@std@@U?$less@X@2@@std@@YA?AU?$pair@PEAU?$pair@U?$pair@V?$point_data@H@polygon@boost@@V123@@std@@H@std@@PEAU12@@0@PEAU?$pair@U?$pair@V?$point_data@H@polygon@boost@@V123@@std@@H@0@0U?$less@X@0@@Z 0000000180016680 f i minkowski.obj
 0001:00015d90       ??$_Insertion_sort_unchecked@PEAU?$pair@U?$pair@U?$pair@V?$point_data@H@polygon@boost@@V123@@std@@H@std@@PEAVactive_tail_arbitrary@?$polygon_arbitrary_formation@H@polygon@boost@@@std@@U?$_Ref_fn@Vless_incoming_count@?$polygon_arbitrary_formation@H@polygon@boost@@@2@@std@@YAPEAU?$pair@U?$pair@U?$pair@V?$point_data@H@polygon@boost@@V123@@std@@H@std@@PEAVactive_tail_arbitrary@?$polygon_arbitrary_formation@H@polygon@boost@@@0@QEAU10@0U?$_Ref_fn@Vless_incoming_count@?$polygon_arbitrary_formation@H@polygon@boost@@@0@@Z 0000000180016d90 f i minkowski.obj
 0001:00015ff0       ??$_Make_heap_unchecked@PEAU?$pair@U?$pair@U?$pair@V?$point_data@H@polygon@boost@@V123@@std@@H@std@@PEAVactive_tail_arbitrary@?$polygon_arbitrary_formation@H@polygon@boost@@@std@@U?$_Ref_fn@Vless_incoming_count@?$polygon_arbitrary_formation@H@polygon@boost@@@2@@std@@YAXPEAU?$pair@U?$pair@U?$pair@V?$point_data@H@polygon@boost@@V123@@std@@H@std@@PEAVactive_tail_arbitrary@?$polygon_arbitrary_formation@H@polygon@boost@@@0@0U?$_Ref_fn@Vless_incoming_count@?$polygon_arbitrary_formation@H@polygon@boost@@@0@@Z 0000000180016ff0 f i minkowski.obj
 0001:000162a0       ??$_Partition_by_median_guess_unchecked@PEAU?$pair@U?$pair@U?$pair@V?$point_data@H@polygon@boost@@V123@@std@@H@std@@PEAVactive_tail_arbitrary@?$polygon_arbitrary_formation@H@polygon@boost@@@std@@U?$_Ref_fn@Vless_incoming_count@?$polygon_arbitrary_formation@H@polygon@boost@@@2@@std@@YA?AU?$pair@PEAU?$pair@U?$pair@U?$pair@V?$point_data@H@polygon@boost@@V123@@std@@H@std@@PEAVactive_tail_arbitrary@?$polygon_arbitrary_formation@H@polygon@boost@@@std@@PEAU12@@0@PEAU?$pair@U?$pair@U?$pair@V?$point_data@H@polygon@boost@@V123@@std@@H@std@@PEAVactive_tail_arbitrary@?$polygon_arbitrary_formation@H@polygon@boost@@@0@0U?$_Ref_fn@Vless_incoming_count@?$polygon_arbitrary_formation@H@polygon@boost@@@0@@Z 00000001800172a0 f i minkowski.obj
 0001:00016830       ??$_Insertion_sort_unchecked@PEAU?$pair@V?$point_data@H@polygon@boost@@H@std@@U?$_Ref_fn@Vless_half_edge_count@?$polygon_arbitrary_formation@H@polygon@boost@@@2@@std@@YAPEAU?$pair@V?$point_data@H@polygon@boost@@H@0@QEAU10@0U?$_Ref_fn@Vless_half_edge_count@?$polygon_arbitrary_formation@H@polygon@boost@@@0@@Z 0000000180017830 f i minkowski.obj
 0001:00016b80       ??$?RAEAU?$pair@V?$point_data@H@polygon@boost@@H@std@@AEAU01@@?$_Ref_fn@Vless_half_edge_count@?$polygon_arbitrary_formation@H@polygon@boost@@@std@@QEAA?A_TAEAU?$pair@V?$point_data@H@polygon@boost@@H@1@0@Z 0000000180017b80 f i minkowski.obj
 0001:00016cb0       ??$_Make_heap_unchecked@PEAU?$pair@V?$point_data@H@polygon@boost@@H@std@@U?$_Ref_fn@Vless_half_edge_count@?$polygon_arbitrary_formation@H@polygon@boost@@@2@@std@@YAXPEAU?$pair@V?$point_data@H@polygon@boost@@H@0@0U?$_Ref_fn@Vless_half_edge_count@?$polygon_arbitrary_formation@H@polygon@boost@@@0@@Z 0000000180017cb0 f i minkowski.obj
 0001:00016f80       ??$_Partition_by_median_guess_unchecked@PEAU?$pair@V?$point_data@H@polygon@boost@@H@std@@U?$_Ref_fn@Vless_half_edge_count@?$polygon_arbitrary_formation@H@polygon@boost@@@2@@std@@YA?AU?$pair@PEAU?$pair@V?$point_data@H@polygon@boost@@H@std@@PEAU12@@0@PEAU?$pair@V?$point_data@H@polygon@boost@@H@0@0U?$_Ref_fn@Vless_half_edge_count@?$polygon_arbitrary_formation@H@polygon@boost@@@0@@Z 0000000180017f80 f i minkowski.obj
 0001:00017be0       ??$_Med3_unchecked@PEAVvertex_half_edge@?$scanline_base@H@polygon@boost@@U?$less@X@std@@@std@@YAXPEAVvertex_half_edge@?$scanline_base@H@polygon@boost@@00U?$less@X@0@@Z 0000000180018be0 f i minkowski.obj
 0001:00017d90       ??$_Sort_unchecked@PEAV?$point_data@H@polygon@boost@@Vless_point_down_slope@?$line_intersection@H@23@@std@@YAXPEAV?$point_data@H@polygon@boost@@0_JVless_point_down_slope@?$line_intersection@H@23@@Z 0000000180018d90 f i minkowski.obj
 0001:00017fc0       ??$_Med3_unchecked@PEAU?$pair@U?$pair@V?$point_data@H@polygon@boost@@V123@@std@@U?$pair@HH@2@@std@@V?$less_vertex_data@U?$pair@U?$pair@V?$point_data@H@polygon@boost@@V123@@std@@U?$pair@HH@2@@std@@@?$arbitrary_boolean_op@H@polygon@boost@@@std@@YAXPEAU?$pair@U?$pair@V?$point_data@H@polygon@boost@@V123@@std@@U?$pair@HH@2@@0@00V?$less_vertex_data@U?$pair@U?$pair@V?$point_data@H@polygon@boost@@V123@@std@@U?$pair@HH@2@@std@@@?$arbitrary_boolean_op@H@polygon@boost@@@Z 0000000180018fc0 f i minkowski.obj
 0001:00018120       ??$_Pop_heap_hole_by_index@PEAU?$pair@U?$pair@V?$point_data@H@polygon@boost@@V123@@std@@H@std@@U12@U?$less@X@2@@std@@YAXPEAU?$pair@U?$pair@V?$point_data@H@polygon@boost@@V123@@std@@H@0@_J1$$QEAU10@U?$less@X@0@@Z 0000000180019120 f i minkowski.obj
 0001:00018290       ??$_Pop_heap_hole_by_index@PEAU?$pair@U?$pair@U?$pair@V?$point_data@H@polygon@boost@@V123@@std@@H@std@@PEAVactive_tail_arbitrary@?$polygon_arbitrary_formation@H@polygon@boost@@@std@@U12@U?$_Ref_fn@Vless_incoming_count@?$polygon_arbitrary_formation@H@polygon@boost@@@2@@std@@YAXPEAU?$pair@U?$pair@U?$pair@V?$point_data@H@polygon@boost@@V123@@std@@H@std@@PEAVactive_tail_arbitrary@?$polygon_arbitrary_formation@H@polygon@boost@@@0@_J1$$QEAU10@U?$_Ref_fn@Vless_incoming_count@?$polygon_arbitrary_formation@H@polygon@boost@@@0@@Z 0000000180019290 f i minkowski.obj
 0001:00018460       ??$iter_swap@PEAU?$pair@U?$pair@U?$pair@V?$point_data@H@polygon@boost@@V123@@std@@H@std@@PEAVactive_tail_arbitrary@?$polygon_arbitrary_formation@H@polygon@boost@@@std@@PEAU12@@std@@YAXPEAU?$pair@U?$pair@U?$pair@V?$point_data@H@polygon@boost@@V123@@std@@H@std@@PEAVactive_tail_arbitrary@?$polygon_arbitrary_formation@H@polygon@boost@@@0@0@Z 0000000180019460 f i minkowski.obj
 0001:000184d0       ??$_Pop_heap_hole_by_index@PEAU?$pair@V?$point_data@H@polygon@boost@@H@std@@U12@U?$_Ref_fn@Vless_half_edge_count@?$polygon_arbitrary_formation@H@polygon@boost@@@2@@std@@YAXPEAU?$pair@V?$point_data@H@polygon@boost@@H@0@_J1$$QEAU10@U?$_Ref_fn@Vless_half_edge_count@?$polygon_arbitrary_formation@H@polygon@boost@@@0@@Z 00000001800194d0 f i minkowski.obj
 0001:00018720       ??$swap@U?$pair@V?$point_data@H@polygon@boost@@V123@@std@@H$0A@@std@@YAXAEAU?$pair@U?$pair@V?$point_data@H@polygon@boost@@V123@@std@@H@0@0@Z 0000000180019720 f i minkowski.obj
 0001:00018780       ??$_Make_heap_unchecked@PEAV?$point_data@H@polygon@boost@@Vless_point_down_slope@?$line_intersection@H@23@@std@@YAXPEAV?$point_data@H@polygon@boost@@0Vless_point_down_slope@?$line_intersection@H@23@@Z 0000000180019780 f i minkowski.obj
 0001:000188c0       ??$_Partition_by_median_guess_unchecked@PEAV?$point_data@H@polygon@boost@@Vless_point_down_slope@?$line_intersection@H@23@@std@@YA?AU?$pair@PEAV?$point_data@H@polygon@boost@@PEAV123@@0@PEAV?$point_data@H@polygon@boost@@0Vless_point_down_slope@?$line_intersection@H@34@@Z 00000001800198c0 f i minkowski.obj
 0001:00018b90       ??$_Push_heap_by_index@PEAU?$pair@U?$pair@V?$point_data@H@polygon@boost@@V123@@std@@H@std@@U12@U?$less@X@2@@std@@YAXPEAU?$pair@U?$pair@V?$point_data@H@polygon@boost@@V123@@std@@H@0@_J1$$QEAU10@U?$less@X@0@@Z 0000000180019b90 f i minkowski.obj
 0001:00018cb0       ??$_Med3_unchecked@PEAU?$pair@U?$pair@V?$point_data@H@polygon@boost@@V123@@std@@H@std@@U?$less@X@2@@std@@YAXPEAU?$pair@U?$pair@V?$point_data@H@polygon@boost@@V123@@std@@H@0@00U?$less@X@0@@Z 0000000180019cb0 f i minkowski.obj
 0001:00018f30       ??$_Med3_unchecked@PEAU?$pair@U?$pair@U?$pair@V?$point_data@H@polygon@boost@@V123@@std@@H@std@@PEAVactive_tail_arbitrary@?$polygon_arbitrary_formation@H@polygon@boost@@@std@@U?$_Ref_fn@Vless_incoming_count@?$polygon_arbitrary_formation@H@polygon@boost@@@2@@std@@YAXPEAU?$pair@U?$pair@U?$pair@V?$point_data@H@polygon@boost@@V123@@std@@H@std@@PEAVactive_tail_arbitrary@?$polygon_arbitrary_formation@H@polygon@boost@@@0@00U?$_Ref_fn@Vless_incoming_count@?$polygon_arbitrary_formation@H@polygon@boost@@@0@@Z 0000000180019f30 f i minkowski.obj
 0001:000190c0       ??$_Push_heap_by_index@PEAU?$pair@V?$point_data@H@polygon@boost@@H@std@@U12@U?$_Ref_fn@Vless_half_edge_count@?$polygon_arbitrary_formation@H@polygon@boost@@@2@@std@@YAXPEAU?$pair@V?$point_data@H@polygon@boost@@H@0@_J1$$QEAU10@U?$_Ref_fn@Vless_half_edge_count@?$polygon_arbitrary_formation@H@polygon@boost@@@0@@Z 000000018001a0c0 f i minkowski.obj
 0001:00019290       ??$_Med3_unchecked@PEAU?$pair@V?$point_data@H@polygon@boost@@H@std@@U?$_Ref_fn@Vless_half_edge_count@?$polygon_arbitrary_formation@H@polygon@boost@@@2@@std@@YAXPEAU?$pair@V?$point_data@H@polygon@boost@@H@0@00U?$_Ref_fn@Vless_half_edge_count@?$polygon_arbitrary_formation@H@polygon@boost@@@0@@Z 000000018001a290 f i minkowski.obj
 0001:00019370       ??$_Insert_range@V?$_List_unchecked_const_iterator@V?$_List_val@U?$_List_simple_types@V?$point_data@H@polygon@boost@@@std@@@std@@U_Iterator_base0@2@@std@@@?$vector@V?$point_data@H@polygon@boost@@V?$allocator@V?$point_data@H@polygon@boost@@@std@@@std@@AEAAXV?$_Vector_const_iterator@V?$_Vector_val@U?$_Simple_types@V?$point_data@H@polygon@boost@@@std@@@std@@@1@V?$_List_unchecked_const_iterator@V?$_List_val@U?$_List_simple_types@V?$point_data@H@polygon@boost@@@std@@@std@@U_Iterator_base0@2@@1@1Uforward_iterator_tag@1@@Z 000000018001a370 f i minkowski.obj
 0001:00019670       ??$_Sort_unchecked@PEAU?$pair@HH@std@@U?$less@X@2@@std@@YAXPEAU?$pair@HH@0@0_JU?$less@X@0@@Z 000000018001a670 f i minkowski.obj
 0001:00019920       ??$_Sort_unchecked@PEAV?$point_data@H@polygon@boost@@U?$less@X@std@@@std@@YAXPEAV?$point_data@H@polygon@boost@@0_JU?$less@X@0@@Z 000000018001a920 f i minkowski.obj
 0001:00019ac0       ??$_Pop_heap_hole_by_index@PEAV?$point_data@H@polygon@boost@@V123@Vless_point_down_slope@?$line_intersection@H@23@@std@@YAXPEAV?$point_data@H@polygon@boost@@_J1$$QEAV123@Vless_point_down_slope@?$line_intersection@H@23@@Z 000000018001aac0 f i minkowski.obj
 0001:00019bd0       ??$_Sort_heap_unchecked@PEAU?$pair@HH@std@@U?$less@X@2@@std@@YAXPEAU?$pair@HH@0@0U?$less@X@0@@Z 000000018001abd0 f i minkowski.obj
 0001:00019d40       ??$_Partition_by_median_guess_unchecked@PEAU?$pair@HH@std@@U?$less@X@2@@std@@YA?AU?$pair@PEAU?$pair@HH@std@@PEAU12@@0@PEAU?$pair@HH@0@0U?$less@X@0@@Z 000000018001ad40 f i minkowski.obj
 0001:0001a030       ??$_Make_heap_unchecked@PEAV?$point_data@H@polygon@boost@@U?$less@X@std@@@std@@YAXPEAV?$point_data@H@polygon@boost@@0U?$less@X@0@@Z 000000018001b030 f i minkowski.obj
 0001:0001a160       ??$_Sort_heap_unchecked@PEAV?$point_data@H@polygon@boost@@U?$less@X@std@@@std@@YAXPEAV?$point_data@H@polygon@boost@@0U?$less@X@0@@Z 000000018001b160 f i minkowski.obj
 0001:0001a2d0       ??$_Partition_by_median_guess_unchecked@PEAV?$point_data@H@polygon@boost@@U?$less@X@std@@@std@@YA?AU?$pair@PEAV?$point_data@H@polygon@boost@@PEAV123@@0@PEAV?$point_data@H@polygon@boost@@0U?$less@X@0@@Z 000000018001b2d0 f i minkowski.obj
 0001:0001a5b0       ??$_Med3_unchecked@PEAV?$point_data@H@polygon@boost@@Vless_point_down_slope@?$line_intersection@H@23@@std@@YAXPEAV?$point_data@H@polygon@boost@@00Vless_point_down_slope@?$line_intersection@H@23@@Z 000000018001b5b0 f i minkowski.obj
 0001:0001a630       ??$_Med3_unchecked@PEAU?$pair@HH@std@@U?$less@X@2@@std@@YAXPEAU?$pair@HH@0@00U?$less@X@0@@Z 000000018001b630 f i minkowski.obj
 0001:0001a6c0       ??$_Med3_unchecked@PEAV?$point_data@H@polygon@boost@@U?$less@X@std@@@std@@YAXPEAV?$point_data@H@polygon@boost@@00U?$less@X@0@@Z 000000018001b6c0 f i minkowski.obj
 0001:0001a738       ??0bad_alloc@std@@QEAA@AEBV01@@Z 000000018001b738 f i libcpmt:xthrow.obj
 0001:0001a774       ??0bad_alloc@std@@QEAA@XZ  000000018001b774 f i libcpmt:xthrow.obj
 0001:0001a794       ??0exception@std@@QEAA@AEBV01@@Z 000000018001b794 f i libcpmt:xthrow.obj
 0001:0001a7c8       ??0length_error@std@@QEAA@AEBV01@@Z 000000018001b7c8 f i libcpmt:xthrow.obj
 0001:0001a804       ??0length_error@std@@QEAA@PEBD@Z 000000018001b804 f i libcpmt:xthrow.obj
 0001:0001a84c       ??0logic_error@std@@QEAA@AEBV01@@Z 000000018001b84c f i libcpmt:xthrow.obj
 0001:0001a888       ??1bad_array_new_length@std@@UEAA@XZ 000000018001b888 f i LIBCMT:throw_bad_alloc.obj
 0001:0001a888       ??1bad_alloc@std@@UEAA@XZ  000000018001b888 f i libcpmt:xthrow.obj
 0001:0001a888       ??1length_error@std@@UEAA@XZ 000000018001b888 f i libcpmt:xthrow.obj
 0001:0001a89c       ??_Glogic_error@std@@UEAAPEAXI@Z 000000018001b89c f i libcpmt:xthrow.obj
 0001:0001a89c       ??_Elength_error@std@@UEAAPEAXI@Z 000000018001b89c f i libcpmt:xthrow.obj
 0001:0001a89c       ??_Elogic_error@std@@UEAAPEAXI@Z 000000018001b89c f i libcpmt:xthrow.obj
 0001:0001a89c       ??_Glength_error@std@@UEAAPEAXI@Z 000000018001b89c f i libcpmt:xthrow.obj
 0001:0001a89c       ??_Ebad_array_new_length@std@@UEAAPEAXI@Z 000000018001b89c f i LIBCMT:throw_bad_alloc.obj
 0001:0001a89c       ??_Gexception@std@@UEAAPEAXI@Z 000000018001b89c f i libcpmt:xthrow.obj
 0001:0001a89c       ??_Gbad_array_new_length@std@@UEAAPEAXI@Z 000000018001b89c f i LIBCMT:throw_bad_alloc.obj
 0001:0001a89c       ??_Gbad_alloc@std@@UEAAPEAXI@Z 000000018001b89c f i libcpmt:xthrow.obj
 0001:0001a89c       ??_Ebad_alloc@std@@UEAAPEAXI@Z 000000018001b89c f i libcpmt:xthrow.obj
 0001:0001a89c       ??_Eexception@std@@UEAAPEAXI@Z 000000018001b89c f i libcpmt:xthrow.obj
 0001:0001a8e0       ?_Xlength_error@std@@YAXPEBD@Z 000000018001b8e0 f   libcpmt:xthrow.obj
 0001:0001a904       ?what@exception@std@@UEBAPEBDXZ 000000018001b904 f i libcpmt:xthrow.obj
 0001:0001a930       __security_check_cookie    000000018001b930 f   LIBCMT:amdsecgs.obj
 0001:0001a950       ??2@YAPEAX_K@Z             000000018001b950 f   LIBCMT:new_scalar.obj
 0001:0001a98c       ??3@YAXPEAX_K@Z            000000018001b98c f   LIBCMT:delete_scalar_size.obj
 0001:0001acb4       _DllMainCRTStartup         000000018001bcb4 f   LIBCMT:dll_dllmain.obj
 0001:0001acf4       ??_Gtype_info@@UEAAPEAXI@Z 000000018001bcf4 f i LIBCMT:std_type_info_static.obj
 0001:0001acf4       ??_Etype_info@@UEAAPEAXI@Z 000000018001bcf4 f i LIBCMT:std_type_info_static.obj
 0001:0001ad20       __raise_securityfailure    000000018001bd20 f   LIBCMT:gs_report.obj
 0001:0001ad54       __report_gsfailure         000000018001bd54 f   LIBCMT:gs_report.obj
 0001:0001ae28       __report_rangecheckfailure 000000018001be28 f   LIBCMT:gs_report.obj
 0001:0001ae3c       __report_securityfailure   000000018001be3c f   LIBCMT:gs_report.obj
 0001:0001afbc       ??0bad_array_new_length@std@@QEAA@AEBV01@@Z 000000018001bfbc f i LIBCMT:throw_bad_alloc.obj
 0001:0001aff8       ??0bad_array_new_length@std@@QEAA@XZ 000000018001bff8 f i LIBCMT:throw_bad_alloc.obj
 0001:0001b018       ?__scrt_throw_std_bad_alloc@@YAXXZ 000000018001c018 f   LIBCMT:throw_bad_alloc.obj
 0001:0001b038       ?__scrt_throw_std_bad_array_new_length@@YAXXZ 000000018001c038 f   LIBCMT:throw_bad_alloc.obj
 0001:0001b058       ??3@YAXPEAX@Z              000000018001c058 f   LIBCMT:delete_scalar.obj
 0001:0001b060       __security_init_cookie     000000018001c060 f   LIBCMT:gs_support.obj
 0001:0001b10c       _get_startup_argv_mode     000000018001c10c f   LIBCMT:argv_mode.obj
 0001:0001b10c       DllMain                    000000018001c10c f   LIBCMT:dll_dllmain_stub.obj
 0001:0001b114       ?__scrt_initialize_type_info@@YAXXZ 000000018001c114 f   LIBCMT:tncleanup.obj
 0001:0001b124       ?__scrt_uninitialize_type_info@@YAXXZ 000000018001c124 f   LIBCMT:tncleanup.obj
 0001:0001b130       __local_stdio_printf_options 000000018001c130 f i LIBCMT:default_local_stdio_options.obj
 0001:0001b138       __local_stdio_scanf_options 000000018001c138 f i LIBCMT:default_local_stdio_options.obj
 0001:0001b140       __scrt_initialize_default_local_stdio_options 000000018001c140 f   LIBCMT:default_local_stdio_options.obj
 0001:0001b15c       __scrt_acquire_startup_lock 000000018001c15c f   LIBCMT:utility.obj
 0001:0001b198       __scrt_dllmain_after_initialize_c 000000018001c198 f   LIBCMT:utility.obj
 0001:0001b1cc       __scrt_dllmain_before_initialize_c 000000018001c1cc f   LIBCMT:utility.obj
 0001:0001b1e4       __scrt_dllmain_crt_thread_attach 000000018001c1e4 f   LIBCMT:utility.obj
 0001:0001b20c       __scrt_dllmain_crt_thread_detach 000000018001c20c f   LIBCMT:utility.obj
 0001:0001b224       __scrt_dllmain_exception_filter 000000018001c224 f   LIBCMT:utility.obj
 0001:0001b284       __scrt_dllmain_uninitialize_c 000000018001c284 f   LIBCMT:utility.obj
 0001:0001b2b4       __scrt_dllmain_uninitialize_critical 000000018001c2b4 f   LIBCMT:utility.obj
 0001:0001b2c8       __scrt_initialize_crt      000000018001c2c8 f   LIBCMT:utility.obj
 0001:0001b314       __scrt_initialize_onexit_tables 000000018001c314 f   LIBCMT:utility.obj
 0001:0001b3a0       __scrt_is_nonwritable_in_current_image 000000018001c3a0 f   LIBCMT:utility.obj
 0001:0001b438       __scrt_release_startup_lock 000000018001c438 f   LIBCMT:utility.obj
 0001:0001b45c       __scrt_uninitialize_crt    000000018001c45c f   LIBCMT:utility.obj
 0001:0001b488       __scrt_get_dyn_tls_init_callback 000000018001c488 f   LIBCMT:dyn_tls_init.obj
 0001:0001b490       __crt_debugger_hook        000000018001c490 f   LIBCMT:utility_desktop.obj
 0001:0001b498       __scrt_fastfail            000000018001c498 f   LIBCMT:utility_desktop.obj
 0001:0001b5e4       _RTC_Initialize            000000018001c5e4 f   LIBCMT:initsect.obj
 0001:0001b620       _RTC_Terminate             000000018001c620 f   LIBCMT:initsect.obj
 0001:0001b65c       __isa_available_init       000000018001c65c f   LIBCMT:cpu_disp.obj
 0001:0001b800       __scrt_is_ucrt_dll_in_use  000000018001c800 f   LIBCMT:ucrt_detection.obj
 0001:0001b810       __std_exception_copy       000000018001c810 f   libvcruntime:std_exception.obj
 0001:0001b8a0       __std_exception_destroy    000000018001c8a0 f   libvcruntime:std_exception.obj
 0001:0001b8c8       _CxxThrowException         000000018001c8c8 f   libvcruntime:throw.obj
 0001:0001b968       __C_specific_handler       000000018001c968 f   libvcruntime:riscchandler.obj
 0001:0001bb74       __std_type_info_destroy_list 000000018001cb74 f   libvcruntime:std_type_info.obj
 0001:0001bba0       __vcrt_initialize          000000018001cba0 f   libvcruntime:initialization.obj
 0001:0001bbc8       __vcrt_thread_attach       000000018001cbc8 f   libvcruntime:initialization.obj
 0001:0001bbdc       __vcrt_thread_detach       000000018001cbdc f   libvcruntime:initialization.obj
 0001:0001bbf0       __vcrt_uninitialize        000000018001cbf0 f   libvcruntime:initialization.obj
 0001:0001bc0c       __vcrt_uninitialize_critical 000000018001cc0c f   libvcruntime:initialization.obj
 0001:0001bc1c       __DestructExceptionObject  000000018001cc1c f   libvcruntime:ehhelpers.obj
 0001:0001bc8c       ?_CallMemberFunction0@@YAXQEAX0@Z 000000018001cc8c f i libvcruntime:ehhelpers.obj
 0001:0001bca0       memset_repmovs             000000018001cca0 f   libvcruntime:memset.obj
 0001:0001bcc0       memset                     000000018001ccc0 f   libvcruntime:memset.obj
 0001:0001be60       _NLG_Notify                000000018001ce60 f   libvcruntime:notify.obj
 0001:0001be80       __NLG_Dispatch2            000000018001ce80 f   libvcruntime:notify.obj
 0001:0001be90       __NLG_Return2              000000018001ce90 f   libvcruntime:notify.obj
 0001:0001be94       __except_validate_context_record 000000018001ce94 f   libvcruntime:jbcxrval.obj
 0001:0001becc       __vcrt_freefls             000000018001cecc f   libvcruntime:per_thread_data.obj
 0001:0001beec       __vcrt_freeptd             000000018001ceec f   libvcruntime:per_thread_data.obj
 0001:0001bf3c       __vcrt_getptd              000000018001cf3c f   libvcruntime:per_thread_data.obj
 0001:0001bf58       __vcrt_getptd_noexit       000000018001cf58 f   libvcruntime:per_thread_data.obj
 0001:0001c018       __vcrt_initialize_ptd      000000018001d018 f   libvcruntime:per_thread_data.obj
 0001:0001c060       __vcrt_uninitialize_ptd    000000018001d060 f   libvcruntime:per_thread_data.obj
 0001:0001c084       __vcrt_initialize_locks    000000018001d084 f   libvcruntime:locks.obj
 0001:0001c0b8       __vcrt_uninitialize_locks  000000018001d0b8 f   libvcruntime:locks.obj
 0001:0001c100       memcpy_repmovs             000000018001d100 f   libvcruntime:memcpy.obj
 0001:0001c120       memmove                    000000018001d120 f   libvcruntime:memcpy.obj
 0001:0001c120       memcpy                     000000018001d120 f   libvcruntime:memcpy.obj
 0001:0001c8e8       __vcrt_FlsAlloc            000000018001d8e8 f   libvcruntime:winapi_downlevel.obj
 0001:0001c930       __vcrt_FlsFree             000000018001d930 f   libvcruntime:winapi_downlevel.obj
 0001:0001c978       __vcrt_FlsGetValue         000000018001d978 f   libvcruntime:winapi_downlevel.obj
 0001:0001c9c0       __vcrt_FlsSetValue         000000018001d9c0 f   libvcruntime:winapi_downlevel.obj
 0001:0001ca14       __vcrt_InitializeCriticalSectionEx 000000018001da14 f   libvcruntime:winapi_downlevel.obj
 0001:0001ca90       _CallSettingFrame          000000018001da90 f   libvcruntime:handlers.obj
 0001:0001cae0       _CallSettingFrame_LookupContinuationIndex 000000018001dae0 f   libvcruntime:handlers.obj
 0001:0001cb10       _CallSettingFrame_NotifyContinuationAddr 000000018001db10 f   libvcruntime:handlers.obj
 0001:0001cb40       _CallSettingFrameEncoded   000000018001db40 f   libvcruntime:handlers.obj
 0001:0001cb88       __acrt_call_reportfault    000000018001db88 f   libucrt:invalid_parameter.obj
 0001:0001cce4       __acrt_initialize_invalid_parameter_handler 000000018001dce4 f   libucrt:invalid_parameter.obj
 0001:0001ccec       _invalid_parameter         000000018001dcec f   libucrt:invalid_parameter.obj
 0001:0001cd9c       _invalid_parameter_noinfo  000000018001dd9c f   libucrt:invalid_parameter.obj
 0001:0001cdbc       _invalid_parameter_noinfo_noreturn 000000018001ddbc f   libucrt:invalid_parameter.obj
 0001:0001cdec       _invoke_watson             000000018001ddec f   libucrt:invalid_parameter.obj
 0001:0001ce34       ??0_LocaleUpdate@@QEAA@QEAU__crt_locale_pointers@@@Z 000000018001de34 f i libucrt:stricmp.obj
 0001:0001ced0       __acrt_initialize_new_handler 000000018001ded0 f   libucrt:new_handler.obj
 0001:0001ced8       _callnewh                  000000018001ded8 f   libucrt:new_handler.obj
 0001:0001cf08       _query_new_handler         000000018001df08 f   libucrt:new_handler.obj
 0001:0001cf3c       malloc                     000000018001df3c f   libucrt:malloc.obj
 0001:0001cf44       _initterm                  000000018001df44 f   libucrt:initterm.obj
 0001:0001cfa8       _initterm_e                000000018001dfa8 f   libucrt:initterm.obj
 0001:0001cfe8       free                       000000018001dfe8 f   libucrt:free.obj
 0001:0001cffc       _seh_filter_dll            000000018001dffc f   libucrt:exception_filter.obj
 0001:0001d010       _seh_filter_exe            000000018001e010 f   libucrt:exception_filter.obj
 0001:0001d400       __acrt_initialize_thread_local_exit_callback 000000018001e400 f   libucrt:exit.obj
 0001:0001d408       _cexit                     000000018001e408 f   libucrt:exit.obj
 0001:0001d418       _exit                      000000018001e418 f   libucrt:exit.obj
 0001:0001d424       _is_c_termination_complete 000000018001e424 f   libucrt:exit.obj
 0001:0001d5ec       __acrt_allocate_buffer_for_argv 000000018001e5ec f   libucrt:argv_parsing.obj
 0001:0001d64c       _configure_narrow_argv     000000018001e64c f   libucrt:argv_parsing.obj
 0001:0001d9c4       __dcrt_uninitialize_environments_nolock 000000018001e9c4 f   libucrt:environment_initialization.obj
 0001:0001d9fc       _initialize_narrow_environment 000000018001e9fc f   libucrt:environment_initialization.obj
 0001:0001db58       _execute_onexit_table      000000018001eb58 f   libucrt:onexit.obj
 0001:0001db94       _initialize_onexit_table   000000018001eb94 f   libucrt:onexit.obj
 0001:0001dbf4       __acrt_uninitialize_command_line 000000018001ebf4 f   libucrt:argv_data.obj
 0001:0001dcec       __acrt_initialize          000000018001ecec f   libucrt:initialization.obj
 0001:0001dd00       __acrt_thread_attach       000000018001ed00 f   libucrt:initialization.obj
 0001:0001dd14       __acrt_thread_detach       000000018001ed14 f   libucrt:initialization.obj
 0001:0001dd24       __acrt_uninitialize        000000018001ed24 f   libucrt:initialization.obj
 0001:0001dd5c       __acrt_uninitialize_critical 000000018001ed5c f   libucrt:initialization.obj
 0001:0001dd6c       terminate                  000000018001ed6c f   libucrt:terminate.obj
 0001:0001dd8c       strcpy_s                   000000018001ed8c f   libucrt:strcpy_s.obj
 0001:0001ddec       abort                      000000018001edec f   libucrt:abort.obj
 0001:0001de60       strncmp                    000000018001ee60 f   libucrt:strncmp.obj
 0001:0001dee0       calloc                     000000018001eee0 f   libucrt:calloc.obj
 0001:0001dee8       wcsncmp                    000000018001eee8 f   libucrt:wcsncmp.obj
 0001:0001e28c       __acrt_freeptd             000000018001f28c f   libucrt:per_thread_data.obj
 0001:0001e2d0       __acrt_getptd              000000018001f2d0 f   libucrt:per_thread_data.obj
 0001:0001e3a4       __acrt_getptd_head         000000018001f3a4 f   libucrt:per_thread_data.obj
 0001:0001e44c       __acrt_getptd_noexit       000000018001f44c f   libucrt:per_thread_data.obj
 0001:0001e518       __acrt_initialize_ptd      000000018001f518 f   libucrt:per_thread_data.obj
 0001:0001e554       __acrt_uninitialize_ptd    000000018001f554 f   libucrt:per_thread_data.obj
 0001:0001e578       __acrt_errno_from_os_error 000000018001f578 f   libucrt:errno.obj
 0001:0001e5c0       __acrt_errno_map_os_error  000000018001f5c0 f   libucrt:errno.obj
 0001:0001e610       __doserrno                 000000018001f610 f   libucrt:errno.obj
 0001:0001e630       _errno                     000000018001f630 f   libucrt:errno.obj
 0001:0001e650       __acrt_update_locale_info  000000018001f650 f   libucrt:locale_update.obj
 0001:0001e684       __acrt_update_multibyte_info 000000018001f684 f   libucrt:locale_update.obj
 0001:0001e728       __acrt_set_locale_changed  000000018001f728 f   libucrt:wsetlocale.obj
 0001:0001e734       __acrt_uninitialize_locale 000000018001f734 f   libucrt:wsetlocale.obj
 0001:0001e764       __acrt_initialize_locks    000000018001f764 f   libucrt:locks.obj
 0001:0001e7ac       __acrt_lock                000000018001f7ac f   libucrt:locks.obj
 0001:0001e7c8       __acrt_uninitialize_locks  000000018001f7c8 f   libucrt:locks.obj
 0001:0001e800       __acrt_unlock              000000018001f800 f   libucrt:locks.obj
 0001:0001e81c       _malloc_base               000000018001f81c f   libucrt:malloc_base.obj
 0001:0001e87c       _free_base                 000000018001f87c f   libucrt:free_base.obj
 0001:0001e8bc       __acrt_get_process_end_policy 000000018001f8bc f   libucrt:win_policies.obj
 0001:0001e8f8       _calloc_base               000000018001f8f8 f   libucrt:calloc_base.obj
 0001:0001e984       ??$__acrt_mbs_to_wcs_cp@U__crt_win32_buffer_internal_dynamic_resizing@@@@YAHQEBDAEAV?$__crt_win32_buffer@_WU__crt_win32_buffer_internal_dynamic_resizing@@@@I@Z 000000018001f984 f i libucrt:argv_wildcards.obj
 0001:0001eafc       ??$__acrt_wcs_to_mbs_cp@U__crt_win32_buffer_internal_dynamic_resizing@@@@YAHQEB_WAEAV?$__crt_win32_buffer@DU__crt_win32_buffer_internal_dynamic_resizing@@@@I@Z 000000018001fafc f i libucrt:argv_wildcards.obj
 0001:0001f32c       __acrt_expand_narrow_argv_wildcards 000000018002032c f   libucrt:argv_wildcards.obj
 0001:0001f334       ??$__acrt_wcs_to_mbs_cp@U__crt_win32_buffer_no_resizing@@@@YAHQEB_WAEAV?$__crt_win32_buffer@DU__crt_win32_buffer_no_resizing@@@@I@Z 0000000180020334 f i libucrt:getmodulefilenamea.obj
 0001:0001f448       __acrt_GetModuleFileNameA  0000000180020448 f   libucrt:getmodulefilenamea.obj
 0001:0001fc90       __acrt_initialize_multibyte 0000000180020c90 f   libucrt:mbctype.obj
 0001:0001fcf0       __acrt_update_thread_multibyte_data 0000000180020cf0 f   libucrt:mbctype.obj
 0001:0001fd0c       _setmbcp_nolock            0000000180020d0c f   libucrt:mbctype.obj
 0001:00020040       _ismbblead                 0000000180021040 f   libucrt:ismbbyte.obj
 0001:00020054       __acrt_initialize_command_line 0000000180021054 f   libucrt:argv_data.obj
 0001:0002007c       __acrt_MultiByteToWideChar 000000018002107c f   libucrt:multibytetowidechar.obj
 0001:000200d8       __acrt_WideCharToMultiByte 00000001800210d8 f   libucrt:widechartomultibyte.obj
 0001:00020188       __dcrt_get_narrow_environment_from_os 0000000180021188 f   libucrt:get_environment_from_os.obj
 0001:0002028c       _recalloc_base             000000018002128c f   libucrt:recalloc.obj
 0001:000204fc       __acrt_AppPolicyGetProcessTerminationMethodInternal 00000001800214fc f   libucrt:winapi_thunks.obj
 0001:0002054c       __acrt_AreFileApisANSI     000000018002154c f   libucrt:winapi_thunks.obj
 0001:00020588       __acrt_FlsAlloc            0000000180021588 f   libucrt:winapi_thunks.obj
 0001:000205d0       __acrt_FlsFree             00000001800215d0 f   libucrt:winapi_thunks.obj
 0001:00020618       __acrt_FlsGetValue         0000000180021618 f   libucrt:winapi_thunks.obj
 0001:00020660       __acrt_FlsSetValue         0000000180021660 f   libucrt:winapi_thunks.obj
 0001:000206b4       __acrt_InitializeCriticalSectionEx 00000001800216b4 f   libucrt:winapi_thunks.obj
 0001:00020718       __acrt_LCMapStringEx       0000000180021718 f   libucrt:winapi_thunks.obj
 0001:000207f4       __acrt_LocaleNameToLCID    00000001800217f4 f   libucrt:winapi_thunks.obj
 0001:00020844       __acrt_initialize_winapi_thunks 0000000180021844 f   libucrt:winapi_thunks.obj
 0001:00020878       __acrt_uninitialize_winapi_thunks 0000000180021878 f   libucrt:winapi_thunks.obj
 0001:000208bc       __acrt_initialize_heap     00000001800218bc f   libucrt:heap_handle.obj
 0001:000208d8       __acrt_uninitialize_heap   00000001800218d8 f   libucrt:heap_handle.obj
 0001:00020ae0       __acrt_initialize_lowio    0000000180021ae0 f   libucrt:ioinit.obj
 0001:00020b1c       __acrt_uninitialize_lowio  0000000180021b1c f   libucrt:ioinit.obj
 0001:00020b5c       __acrt_execute_initializers 0000000180021b5c f   libucrt:shared_initialization.obj
 0001:00020bdc       __acrt_execute_uninitializers 0000000180021bdc f   libucrt:shared_initialization.obj
 0001:00020c60       __acrt_get_sigabrt_handler 0000000180021c60 f   libucrt:signal.obj
 0001:00020c90       __acrt_initialize_signal_handlers 0000000180021c90 f   libucrt:signal.obj
 0001:00020cb0       raise                      0000000180021cb0 f   libucrt:signal.obj
 0001:00020f1c       __acrt_has_user_matherr    0000000180021f1c f   libucrt:matherr.obj
 0001:00020f3c       __acrt_initialize_user_matherr 0000000180021f3c f   libucrt:matherr.obj
 0001:00020f44       __acrt_invoke_user_matherr 0000000180021f44 f   libucrt:matherr.obj
 0001:00021150       __acrt_stdio_flush_nolock  0000000180022150 f   libucrt:fflush.obj
 0001:000211cc       _fflush_nolock             00000001800221cc f   libucrt:fflush.obj
 0001:00021218       _flushall                  0000000180022218 f   libucrt:fflush.obj
 0001:00021220       __acrt_initialize_stdio    0000000180022220 f   libucrt:_file.obj
 0001:00021340       __acrt_uninitialize_stdio  0000000180022340 f   libucrt:_file.obj
 0001:0002139c       _lock_file                 000000018002239c f   libucrt:_file.obj
 0001:000213a8       _unlock_file               00000001800223a8 f   libucrt:_file.obj
 0001:000213b4       _mbtowc_l                  00000001800223b4 f   libucrt:mbtowc.obj
 0001:00021534       mbtowc                     0000000180022534 f   libucrt:mbtowc.obj
 0001:0002153c       _fileno                    000000018002253c f   libucrt:fileno.obj
 0001:00021564       __pctype_func              0000000180022564 f   libucrt:ctype.obj
 0001:00021594       __acrt_add_locale_ref      0000000180022594 f   libucrt:locale_refcounting.obj
 0001:00021620       __acrt_free_locale         0000000180022620 f   libucrt:locale_refcounting.obj
 0001:00021798       __acrt_locale_add_lc_time_reference 0000000180022798 f   libucrt:locale_refcounting.obj
 0001:000217c0       __acrt_locale_free_lc_time_if_unreferenced 00000001800227c0 f   libucrt:locale_refcounting.obj
 0001:000217f8       __acrt_locale_release_lc_time_reference 00000001800227f8 f   libucrt:locale_refcounting.obj
 0001:00021820       __acrt_release_locale_ref  0000000180022820 f   libucrt:locale_refcounting.obj
 0001:000218c8       __acrt_update_thread_locale_data 00000001800228c8 f   libucrt:locale_refcounting.obj
 0001:00021938       _updatetlocinfoEx_nolock   0000000180022938 f   libucrt:locale_refcounting.obj
 0001:000219a0       __acrt_locale_free_monetary 00000001800229a0 f   libucrt:initmon.obj
 0001:00021aac       __acrt_locale_free_numeric 0000000180022aac f   libucrt:initnum.obj
 0001:00021b70       __acrt_locale_free_time    0000000180022b70 f   libucrt:inittime.obj
 0001:00021c78       __acrt_GetStringTypeA      0000000180022c78 f   libucrt:getstringtypea.obj
 0001:00021e08       _query_new_mode            0000000180022e08 f   libucrt:new_mode.obj
 0001:00021e10       qsort                      0000000180022e10 f   libucrt:qsort.obj
 0001:000221b0       strncpy_s                  00000001800231b0 f   libucrt:strncpy_s.obj
 0001:00022330       strpbrk                    0000000180023330 f   libucrt:strpbrk.obj
 0001:000226f8       _mbsdec                    00000001800236f8 f   libucrt:mbsdec.obj
 0001:00022700       _mbsdec_l                  0000000180023700 f   libucrt:mbsdec.obj
 0001:00022aac       __acrt_LCMapStringA        0000000180023aac f   libucrt:lcmapstringa.obj
 0001:00022b5c       _msize_base                0000000180023b5c f   libucrt:msize.obj
 0001:00022b98       _realloc_base              0000000180023b98 f   libucrt:realloc_base.obj
 0001:00022c14       __acrt_DownlevelLocaleNameToLCID 0000000180023c14 f   libucrt:lcidtoname_downlevel.obj
 0001:00022cc4       __acrt_lowio_create_handle_array 0000000180023cc4 f   libucrt:osfinfo.obj
 0001:00022d6c       __acrt_lowio_destroy_handle_array 0000000180023d6c f   libucrt:osfinfo.obj
 0001:00022dbc       __acrt_lowio_ensure_fh_exists 0000000180023dbc f   libucrt:osfinfo.obj
 0001:00022e64       __acrt_lowio_lock_fh       0000000180023e64 f   libucrt:osfinfo.obj
 0001:00022e8c       __acrt_lowio_unlock_fh     0000000180023e8c f   libucrt:osfinfo.obj
 0001:00022eb4       _free_osfhnd               0000000180023eb4 f   libucrt:osfinfo.obj
 0001:00022f70       _get_osfhandle             0000000180023f70 f   libucrt:osfinfo.obj
 0001:00023074       _commit                    0000000180024074 f   libucrt:commit.obj
 0001:00023984       _write                     0000000180024984 f   libucrt:write.obj
 0001:00023a70       _write_nolock              0000000180024a70 f   libucrt:write.obj
 0001:00023d54       _fcloseall                 0000000180024d54 f   libucrt:closeall.obj
 0001:00023e08       __acrt_stdio_free_buffer_nolock 0000000180024e08 f   libucrt:_freebuf.obj
 0001:00023e48       _isatty                    0000000180024e48 f   libucrt:isatty.obj
 0001:00023ea8       _isleadbyte_l              0000000180024ea8 f i libucrt:_wctype.obj
 0001:00023ef4       ?__mbrtowc_utf8@__crt_mbstring@@YA_KPEA_WPEBD_KPEAU_Mbstatet@@@Z 0000000180024ef4 f   libucrt:mbrtowc.obj
 0001:00023f30       ?__mbsrtowcs_utf8@__crt_mbstring@@YA_KPEA_WPEAPEBD_KPEAU_Mbstatet@@@Z 0000000180024f30 f   libucrt:mbrtowc.obj
 0001:000240a8       __ascii_wcsnicmp           00000001800250a8 f   libucrt:wcsnicmp.obj
 0001:000240f4       __strncnt                  00000001800250f4 f   libucrt:strncnt.obj
 0001:0002410c       _query_app_type            000000018002510c f   libucrt:report_runtime_error.obj
 0001:000241b0       _lseeki64_nolock           00000001800251b0 f   libucrt:lseek.obj
 0001:000241b8       _putwch_nolock             00000001800251b8 f   libucrt:putwch.obj
 0001:000241f4       _fclose_nolock             00000001800251f4 f   libucrt:fclose.obj
 0001:00024278       fclose                     0000000180025278 f   libucrt:fclose.obj
 0001:000242dc       ?__mbrtoc32_utf8@__crt_mbstring@@YA_KPEA_UPEBD_KPEAU_Mbstatet@@@Z 00000001800252dc f   libucrt:mbrtoc32.obj
 0001:000244c0       log10                      00000001800254c0 f   libucrt:log10.obj
 0001:00024a6c       __dcrt_lowio_ensure_console_output_initialized 0000000180025a6c f   libucrt:initcon.obj
 0001:00024ac0       __dcrt_terminate_console_output 0000000180025ac0 f   libucrt:initcon.obj
 0001:00024adc       __dcrt_write_console       0000000180025adc f   libucrt:initcon.obj
 0001:00024c10       _close                     0000000180025c10 f   libucrt:close.obj
 0001:00024cb4       _close_nolock              0000000180025cb4 f   libucrt:close.obj
 0001:00024d74       ?__acrt_stdio_free_stream@@YAXV__crt_stdio_stream@@@Z 0000000180025d74 f   libucrt:stream.obj
 0001:00024eb4       _handle_error              0000000180025eb4 f   libucrt:libm_error.obj
 0001:00024fe0       __acrt_initialize_fma3     0000000180025fe0 f   libucrt:fma3_available.obj
 0001:00025050       _log10_special             0000000180026050 f   libucrt:log_special.obj
 0001:00025120       _get_fpsr                  0000000180026120 f   libucrt:fpsr.obj
 0001:00025130       _set_fpsr                  0000000180026130 f   libucrt:fpsr.obj
 0001:0002513a       _fclrf                     000000018002613a f   libucrt:fpsr.obj
 0001:0002514e       _frnd                      000000018002614e f   libucrt:fpsr.obj
 0001:00025170       _raise_exc                 0000000180026170 f   libucrt:fpexcept.obj
 0001:00025198       _raise_exc_ex              0000000180026198 f   libucrt:fpexcept.obj
 0001:000254a8       _set_errno_from_matherr    00000001800264a8 f   libucrt:fpexcept.obj
 0001:000254d8       _clrfp                     00000001800264d8 f   libucrt:fpctrl.obj
 0001:000254f8       _ctrlfp                    00000001800264f8 f   libucrt:fpctrl.obj
 0001:00025574       _set_statfp                0000000180026574 f   libucrt:fpctrl.obj
 0001:00025594       _statfp                    0000000180026594 f   libucrt:fpctrl.obj
 0001:000255b0       _FindPESection             00000001800265b0 f   LIBCMT:pesect.obj
 0001:00025600       _IsNonwritableInCurrentImage 0000000180026600 f   LIBCMT:pesect.obj
 0001:00025650       _ValidateImageBase         0000000180026650 f   LIBCMT:pesect.obj
 0001:00025680       __GSHandlerCheck           0000000180026680 f   LIBCMT:gshandler.obj
 0001:000256a0       __GSHandlerCheckCommon     00000001800266a0 f   LIBCMT:gshandler.obj
 0001:00025710       __chkstk                   0000000180026710 f   LIBCMT:chkstk.obj
 0001:00025710       _alloca_probe              0000000180026710 f   LIBCMT:chkstk.obj
 0001:00025770       memcmp                     0000000180026770 f   libvcruntime:memcmp.obj
 0001:00025850       _guard_dispatch_icall_nop  0000000180026850 f   LIBCMT:guard_dispatch.obj
 0001:00025870       _guard_xfg_dispatch_icall_nop 0000000180026870 f   LIBCMT:guard_xfg_dispatch.obj
 0002:00000000       __imp_WriteConsoleW        0000000180027000     kernel32:KERNEL32.dll
 0002:00000008       __imp_CloseHandle          0000000180027008     kernel32:KERNEL32.dll
 0002:00000010       __imp_CreateFileW          0000000180027010     kernel32:KERNEL32.dll
 0002:00000018       __imp_SetFilePointerEx     0000000180027018     kernel32:KERNEL32.dll
 0002:00000020       __imp_GetConsoleMode       0000000180027020     kernel32:KERNEL32.dll
 0002:00000028       __imp_GetConsoleOutputCP   0000000180027028     kernel32:KERNEL32.dll
 0002:00000030       __imp_WriteFile            0000000180027030     kernel32:KERNEL32.dll
 0002:00000038       __imp_FlushFileBuffers     0000000180027038     kernel32:KERNEL32.dll
 0002:00000040       __imp_SetStdHandle         0000000180027040     kernel32:KERNEL32.dll
 0002:00000048       __imp_HeapReAlloc          0000000180027048     kernel32:KERNEL32.dll
 0002:00000050       __imp_HeapSize             0000000180027050     kernel32:KERNEL32.dll
 0002:00000058       __imp_GetStringTypeW       0000000180027058     kernel32:KERNEL32.dll
 0002:00000060       __imp_GetFileType          0000000180027060     kernel32:KERNEL32.dll
 0002:00000068       __imp_GetStdHandle         0000000180027068     kernel32:KERNEL32.dll
 0002:00000070       __imp_GetProcessHeap       0000000180027070     kernel32:KERNEL32.dll
 0002:00000078       __imp_LCMapStringW         0000000180027078     kernel32:KERNEL32.dll
 0002:00000080       __imp_FreeEnvironmentStringsW 0000000180027080     kernel32:KERNEL32.dll
 0002:00000088       __imp_GetEnvironmentStringsW 0000000180027088     kernel32:KERNEL32.dll
 0002:00000090       __imp_WideCharToMultiByte  0000000180027090     kernel32:KERNEL32.dll
 0002:00000098       __imp_MultiByteToWideChar  0000000180027098     kernel32:KERNEL32.dll
 0002:000000a0       __imp_GetCommandLineW      00000001800270a0     kernel32:KERNEL32.dll
 0002:000000a8       __imp_GetCommandLineA      00000001800270a8     kernel32:KERNEL32.dll
 0002:000000b0       __imp_GetCPInfo            00000001800270b0     kernel32:KERNEL32.dll
 0002:000000b8       __imp_GetOEMCP             00000001800270b8     kernel32:KERNEL32.dll
 0002:000000c0       __imp_GetACP               00000001800270c0     kernel32:KERNEL32.dll
 0002:000000c8       __imp_RtlCaptureContext    00000001800270c8     kernel32:KERNEL32.dll
 0002:000000d0       __imp_RtlLookupFunctionEntry 00000001800270d0     kernel32:KERNEL32.dll
 0002:000000d8       __imp_RtlVirtualUnwind     00000001800270d8     kernel32:KERNEL32.dll
 0002:000000e0       __imp_UnhandledExceptionFilter 00000001800270e0     kernel32:KERNEL32.dll
 0002:000000e8       __imp_SetUnhandledExceptionFilter 00000001800270e8     kernel32:KERNEL32.dll
 0002:000000f0       __imp_GetCurrentProcess    00000001800270f0     kernel32:KERNEL32.dll
 0002:000000f8       __imp_TerminateProcess     00000001800270f8     kernel32:KERNEL32.dll
 0002:00000100       __imp_IsProcessorFeaturePresent 0000000180027100     kernel32:KERNEL32.dll
 0002:00000108       __imp_QueryPerformanceCounter 0000000180027108     kernel32:KERNEL32.dll
 0002:00000110       __imp_GetCurrentProcessId  0000000180027110     kernel32:KERNEL32.dll
 0002:00000118       __imp_GetCurrentThreadId   0000000180027118     kernel32:KERNEL32.dll
 0002:00000120       __imp_GetSystemTimeAsFileTime 0000000180027120     kernel32:KERNEL32.dll
 0002:00000128       __imp_InitializeSListHead  0000000180027128     kernel32:KERNEL32.dll
 0002:00000130       __imp_IsDebuggerPresent    0000000180027130     kernel32:KERNEL32.dll
 0002:00000138       __imp_GetStartupInfoW      0000000180027138     kernel32:KERNEL32.dll
 0002:00000140       __imp_GetModuleHandleW     0000000180027140     kernel32:KERNEL32.dll
 0002:00000148       __imp_RtlPcToFileHeader    0000000180027148     kernel32:KERNEL32.dll
 0002:00000150       __imp_RaiseException       0000000180027150     kernel32:KERNEL32.dll
 0002:00000158       __imp_RtlUnwindEx          0000000180027158     kernel32:KERNEL32.dll
 0002:00000160       __imp_InterlockedFlushSList 0000000180027160     kernel32:KERNEL32.dll
 0002:00000168       __imp_GetLastError         0000000180027168     kernel32:KERNEL32.dll
 0002:00000170       __imp_SetLastError         0000000180027170     kernel32:KERNEL32.dll
 0002:00000178       __imp_EnterCriticalSection 0000000180027178     kernel32:KERNEL32.dll
 0002:00000180       __imp_LeaveCriticalSection 0000000180027180     kernel32:KERNEL32.dll
 0002:00000188       __imp_DeleteCriticalSection 0000000180027188     kernel32:KERNEL32.dll
 0002:00000190       __imp_InitializeCriticalSectionAndSpinCount 0000000180027190     kernel32:KERNEL32.dll
 0002:00000198       __imp_TlsAlloc             0000000180027198     kernel32:KERNEL32.dll
 0002:000001a0       __imp_TlsGetValue          00000001800271a0     kernel32:KERNEL32.dll
 0002:000001a8       __imp_TlsSetValue          00000001800271a8     kernel32:KERNEL32.dll
 0002:000001b0       __imp_TlsFree              00000001800271b0     kernel32:KERNEL32.dll
 0002:000001b8       __imp_FreeLibrary          00000001800271b8     kernel32:KERNEL32.dll
 0002:000001c0       __imp_GetProcAddress       00000001800271c0     kernel32:KERNEL32.dll
 0002:000001c8       __imp_LoadLibraryExW       00000001800271c8     kernel32:KERNEL32.dll
 0002:000001d0       __imp_ExitProcess          00000001800271d0     kernel32:KERNEL32.dll
 0002:000001d8       __imp_GetModuleHandleExW   00000001800271d8     kernel32:KERNEL32.dll
 0002:000001e0       __imp_GetModuleFileNameW   00000001800271e0     kernel32:KERNEL32.dll
 0002:000001e8       __imp_HeapAlloc            00000001800271e8     kernel32:KERNEL32.dll
 0002:000001f0       __imp_HeapFree             00000001800271f0     kernel32:KERNEL32.dll
 0002:000001f8       __imp_FindClose            00000001800271f8     kernel32:KERNEL32.dll
 0002:00000200       __imp_FindFirstFileExW     0000000180027200     kernel32:KERNEL32.dll
 0002:00000208       __imp_FindNextFileW        0000000180027208     kernel32:KERNEL32.dll
 0002:00000210       __imp_IsValidCodePage      0000000180027210     kernel32:KERNEL32.dll
 0002:00000218       \177KERNEL32_NULL_THUNK_DATA 0000000180027218     kernel32:KERNEL32.dll
 0002:00000220       __imp_?Set@Object@v8@@QEAA_NIV?$Local@VValue@v8@@@2@@Z 0000000180027220     iojs:node.dll
 0002:00000228       __imp_?Set@Object@v8@@QEAA_NV?$Local@VValue@v8@@@2@0@Z 0000000180027228     iojs:node.dll
 0002:00000230       __imp_?Get@Object@v8@@QEAA?AV?$Local@VValue@v8@@@2@I@Z 0000000180027230     iojs:node.dll
 0002:00000238       __imp_?Get@Object@v8@@QEAA?AV?$Local@VValue@v8@@@2@V32@@Z 0000000180027238     iojs:node.dll
 0002:00000240       __imp_?New@Object@v8@@SA?AV?$Local@VObject@v8@@@2@PEAVIsolate@2@@Z 0000000180027240     iojs:node.dll
 0002:00000248       __imp_?New@Number@v8@@SA?AV?$Local@VNumber@v8@@@2@PEAVIsolate@2@N@Z 0000000180027248     iojs:node.dll
 0002:00000250       __imp_?NewFromUtf8@String@v8@@SA?AV?$Local@VString@v8@@@2@PEAVIsolate@2@PEBDW4NewStringType@12@H@Z 0000000180027250     iojs:node.dll
 0002:00000258       __imp_?NumberValue@Value@v8@@QEBANXZ 0000000180027258     iojs:node.dll
 0002:00000260       __imp_?Length@Array@v8@@QEBAIXZ 0000000180027260     iojs:node.dll
 0002:00000268       __imp_?New@Array@v8@@SA?AV?$Local@VArray@v8@@@2@PEAVIsolate@2@H@Z 0000000180027268     iojs:node.dll
 0002:00000270       __imp_node_module_register 0000000180027270     iojs:node.dll
 0002:00000278       __imp_?New@ObjectTemplate@v8@@SA?AV?$Local@VObjectTemplate@v8@@@2@PEAVIsolate@2@V?$Local@VFunctionTemplate@v8@@@2@@Z 0000000180027278     iojs:node.dll
 0002:00000280       __imp_?NewInstance@ObjectTemplate@v8@@QEAA?AV?$MaybeLocal@VObject@v8@@@2@V?$Local@VContext@v8@@@2@@Z 0000000180027280     iojs:node.dll
 0002:00000288       __imp_?Set@Object@v8@@QEAA?AV?$Maybe@_N@2@V?$Local@VContext@v8@@@2@V?$Local@VValue@v8@@@2@1@Z 0000000180027288     iojs:node.dll
 0002:00000290       __imp_?SetInternalField@Object@v8@@QEAAXHV?$Local@VValue@v8@@@2@@Z 0000000180027290     iojs:node.dll
 0002:00000298       __imp_?SlowGetInternalField@Object@v8@@AEAA?AV?$Local@VValue@v8@@@2@H@Z 0000000180027298     iojs:node.dll
 0002:000002a0       __imp_?NewFromUtf8@String@v8@@SA?AV?$MaybeLocal@VString@v8@@@2@PEAVIsolate@2@PEBDW4NewStringType@2@H@Z 00000001800272a0     iojs:node.dll
 0002:000002a8       __imp_??0EscapableHandleScope@v8@@QEAA@PEAVIsolate@1@@Z 00000001800272a8     iojs:node.dll
 0002:000002b0       __imp_?Escape@EscapableHandleScope@v8@@AEAAPEAPEAVObject@internal@2@PEAPEAV342@@Z 00000001800272b0     iojs:node.dll
 0002:000002b8       __imp_?ToLocalEmpty@V8@v8@@CAXXZ 00000001800272b8     iojs:node.dll
 0002:000002c0       __imp_?New@FunctionTemplate@v8@@SA?AV?$Local@VFunctionTemplate@v8@@@2@PEAVIsolate@2@P6AXAEBV?$FunctionCallbackInfo@VValue@v8@@@2@@ZV?$Local@VValue@v8@@@2@V?$Local@VSignature@v8@@@2@HW4ConstructorBehavior@2@@Z 00000001800272c0     iojs:node.dll
 0002:000002c8       __imp_?GetFunction@FunctionTemplate@v8@@QEAA?AV?$MaybeLocal@VFunction@v8@@@2@V?$Local@VContext@v8@@@2@@Z 00000001800272c8     iojs:node.dll
 0002:000002d0       __imp_??0HandleScope@v8@@QEAA@PEAVIsolate@1@@Z 00000001800272d0     iojs:node.dll
 0002:000002d8       __imp_??1HandleScope@v8@@QEAA@XZ 00000001800272d8     iojs:node.dll
 0002:000002e0       __imp_?CreateHandle@HandleScope@v8@@CAPEAPEAVObject@internal@2@PEAVHeapObject@42@PEAV342@@Z 00000001800272e0     iojs:node.dll
 0002:000002e8       __imp_?GetCurrent@Isolate@v8@@SAPEAV12@XZ 00000001800272e8     iojs:node.dll
 0002:000002f0       __imp_?GetCurrentContext@Isolate@v8@@QEAA?AV?$Local@VContext@v8@@@2@XZ 00000001800272f0     iojs:node.dll
 0002:000002f8       __imp_?New@External@v8@@SA?AV?$Local@VExternal@v8@@@2@PEAVIsolate@2@PEAX@Z 00000001800272f8     iojs:node.dll
 0002:00000300       __imp_?Value@External@v8@@QEBAPEAXXZ 0000000180027300     iojs:node.dll
 0002:00000308       __imp_?SetInternalFieldCount@ObjectTemplate@v8@@QEAAXH@Z 0000000180027308     iojs:node.dll
 0002:00000310       \177node_NULL_THUNK_DATA   0000000180027310     iojs:node.dll
 0002:00000318       __guard_check_icall_fptr   0000000180027318     LIBCMT:guard_support.obj
 0002:00000320       __guard_xfg_check_icall_fptr 0000000180027320     LIBCMT:guard_support.obj
 0002:00000328       __guard_dispatch_icall_fptr 0000000180027328     LIBCMT:guard_support.obj
 0002:00000330       __guard_xfg_dispatch_icall_fptr 0000000180027330     LIBCMT:guard_support.obj
 0002:00000338       __guard_xfg_table_dispatch_icall_fptr 0000000180027338     LIBCMT:guard_support.obj
 0002:00000340       __xc_a                     0000000180027340     LIBCMT:initializers.obj
 0002:00000348       _register_addon_           0000000180027348     addon.obj
 0002:00000350       __xc_z                     0000000180027350     LIBCMT:initializers.obj
 0002:00000358       __xi_a                     0000000180027358     LIBCMT:initializers.obj
 0002:00000360       __acrt_multibyte_initializer 0000000180027360     libucrt:multibyte_initializer.obj
 0002:00000368       __acrt_stdio_initializer   0000000180027368     libucrt:stdio_initializer.obj
 0002:00000370       __acrt_tran_fma3_initializer 0000000180027370     libucrt:fma3_initializer.obj
 0002:00000378       __xi_z                     0000000180027378     LIBCMT:initializers.obj
 0002:00000380       __xp_a                     0000000180027380     LIBCMT:initializers.obj
 0002:00000388       __acrt_locale_terminator   0000000180027388     libucrt:locale_initializer.obj
 0002:00000390       __dcrt_console_output_terminator 0000000180027390     libucrt:console_output_initializer.obj
 0002:00000398       __acrt_stdio_terminator    0000000180027398     libucrt:stdio_initializer.obj
 0002:000003a0       __xp_z                     00000001800273a0     LIBCMT:initializers.obj
 0002:000003a8       __xt_a                     00000001800273a8     LIBCMT:initializers.obj
 0002:000003b0       __xt_z                     00000001800273b0     LIBCMT:initializers.obj
 0002:000003c8       ??_7exception@std@@6B@     00000001800273c8     libcpmt:xthrow.obj
 0002:000003d8       ??_C@_0BC@EOODALEL@Unknown?5exception@ 00000001800273d8     libcpmt:xthrow.obj
 0002:000003f8       ??_7bad_alloc@std@@6B@     00000001800273f8     libcpmt:xthrow.obj
 0002:00000408       ??_C@_0P@GHFPNOJB@bad?5allocation@ 0000000180027408     libcpmt:xthrow.obj
 0002:00000420       ??_7logic_error@std@@6B@   0000000180027420     libcpmt:xthrow.obj
 0002:00000438       ??_7length_error@std@@6B@  0000000180027438     libcpmt:xthrow.obj
 0002:00000448       _pRawDllMain               0000000180027448     LIBCMT:dll_dllmain.obj
 0002:00000448       _pDefaultRawDllMain        0000000180027448     LIBCMT:dll_dllmain.obj
 0002:00000458       ??_7type_info@@6B@         0000000180027458     LIBCMT:std_type_info_static.obj
 0002:00000478       ??_7bad_array_new_length@std@@6B@ 0000000180027478     LIBCMT:throw_bad_alloc.obj
 0002:00000490       __xmm@ffffffffffffffffffffffffffffffff 0000000180027490     LIBCMT:utility.obj
 0002:000004a0       _pDestructExceptionObject  00000001800274a0     libvcruntime:ehhelpers.obj
 0002:00000bb0       ??_C@_08EHJDFFNH@__based?$CI@ 0000000180027bb0     libvcruntime:undname.obj
 0002:00000bc0       ??_C@_07KOLFKCDI@__cdecl@  0000000180027bc0     libvcruntime:undname.obj
 0002:00000bc8       ??_C@_08GHMPAG@__pascal@   0000000180027bc8     libvcruntime:undname.obj
 0002:00000bd8       ??_C@_09IFJBGAPI@__stdcall@ 0000000180027bd8     libvcruntime:undname.obj
 0002:00000be8       ??_C@_0L@NPHFGOKO@__thiscall@ 0000000180027be8     libvcruntime:undname.obj
 0002:00000bf8       ??_C@_0L@JMKHOMEK@__fastcall@ 0000000180027bf8     libvcruntime:undname.obj
 0002:00000c08       ??_C@_0N@BCKKPABJ@__vectorcall@ 0000000180027c08     libvcruntime:undname.obj
 0002:00000c18       ??_C@_09HIJEGCPM@__clrcall@ 0000000180027c18     libvcruntime:undname.obj
 0002:00000c24       ??_C@_06GHPCKEAG@__eabi@   0000000180027c24     libvcruntime:undname.obj
 0002:00000c30       ??_C@_09IOPIDJLG@__swift_1@ 0000000180027c30     libvcruntime:undname.obj
 0002:00000c40       ??_C@_09KFNFGKHF@__swift_2@ 0000000180027c40     libvcruntime:undname.obj
 0002:00000c50       ??_C@_07JOMMBBKO@__ptr64@  0000000180027c50     libvcruntime:undname.obj
 0002:00000c58       ??_C@_0L@PILCLIHE@__restrict@ 0000000180027c58     libvcruntime:undname.obj
 0002:00000c68       ??_C@_0M@GFIIJFMG@__unaligned@ 0000000180027c68     libvcruntime:undname.obj
 0002:00000c78       ??_C@_09DHDLOLLB@restrict?$CI@ 0000000180027c78     libvcruntime:undname.obj
 0002:00000c82       ??_C@_00CNPNBAHC@@         0000000180027c82     libvcruntime:undname.obj
 0002:00000c84       ??_C@_04NIHEBCM@?5new@     0000000180027c84     libvcruntime:undname.obj
 0002:00000c90       ??_C@_07FPCDHGMM@?5delete@ 0000000180027c90     libvcruntime:undname.obj
 0002:00000c98       ??_C@_01NEMOKFLO@?$DN@     0000000180027c98     libvcruntime:undname.obj
 0002:00000c9c       ??_C@_02GPIOPFAK@?$DO?$DO@ 0000000180027c9c     libvcruntime:undname.obj
 0002:00000ca0       ??_C@_02FODMEDOG@?$DM?$DM@ 0000000180027ca0     libvcruntime:undname.obj
 0002:00000ca4       ??_C@_01DCLJPIOD@?$CB@     0000000180027ca4     libvcruntime:undname.obj
 0002:00000ca8       ??_C@_02EGOFBIJA@?$DN?$DN@ 0000000180027ca8     libvcruntime:undname.obj
 0002:00000cac       ??_C@_02FDNJECIE@?$CB?$DN@ 0000000180027cac     libvcruntime:undname.obj
 0002:00000cb0       ??_C@_02GPECMEKF@?$FL?$FN@ 0000000180027cb0     libvcruntime:undname.obj
 0002:00000cb8       ??_C@_08LHJFAFGD@operator@ 0000000180027cb8     libvcruntime:undname.obj
 0002:00000cc4       ??_C@_02HBOOOICD@?9?$DO@   0000000180027cc4     libvcruntime:undname.obj
 0002:00000cc8       ??_C@_01NBENCBCI@?$CK@     0000000180027cc8     libvcruntime:undname.obj
 0002:00000ccc       ??_C@_02ECNGHCIF@?$CL?$CL@ 0000000180027ccc     libvcruntime:undname.obj
 0002:00000cd0       ??_C@_02BAABKJLB@?9?9@     0000000180027cd0     libvcruntime:undname.obj
 0002:00000cd4       ??_C@_01JOAMLHOP@?9@       0000000180027cd4     libvcruntime:undname.obj
 0002:00000cd8       ??_C@_01MIFGBAGJ@?$CL@     0000000180027cd8     libvcruntime:undname.obj
 0002:00000cdc       ??_C@_01HNPIGOCE@?$CG@     0000000180027cdc     libvcruntime:undname.obj
 0002:00000ce0       ??_C@_03MNHNFDLC@?9?$DO?$CK@ 0000000180027ce0     libvcruntime:undname.obj
 0002:00000ce4       ??_C@_01KMDKNFGN@?1@       0000000180027ce4     libvcruntime:undname.obj
 0002:00000ce8       ??_C@_01FGNFDNOH@?$CF@     0000000180027ce8     libvcruntime:undname.obj
 0002:00000cec       ??_C@_01MNNFJEPP@?$DM@     0000000180027cec     libvcruntime:undname.obj
 0002:00000cf0       ??_C@_02EHCHHCKH@?$DM?$DN@ 0000000180027cf0     libvcruntime:undname.obj
 0002:00000cf4       ??_C@_01PPODPGHN@?$DO@     0000000180027cf4     libvcruntime:undname.obj
 0002:00000cf8       ??_C@_02EEKDKGMJ@?$DO?$DN@ 0000000180027cf8     libvcruntime:undname.obj
 0002:00000cfc       ??_C@_01IHBHIGKO@?0@       0000000180027cfc     libvcruntime:undname.obj
 0002:00000d00       ??_C@_02HCKGKOFO@?$CI?$CJ@ 0000000180027d00     libvcruntime:undname.obj
 0002:00000d04       ??_C@_01PJKLJHI@?$HO@      0000000180027d04     libvcruntime:undname.obj
 0002:00000d08       ??_C@_01JKBOJNNK@?$FO@     0000000180027d08     libvcruntime:undname.obj
 0002:00000d0c       ??_C@_01DNKMNLPK@?$HM@     0000000180027d0c     libvcruntime:undname.obj
 0002:00000d10       ??_C@_02PPKAJPJL@?$CG?$CG@ 0000000180027d10     libvcruntime:undname.obj
 0002:00000d14       ??_C@_02NONPIBCD@?$HM?$HM@ 0000000180027d14     libvcruntime:undname.obj
 0002:00000d18       ??_C@_02FPIMKNGF@?$CK?$DN@ 0000000180027d18     libvcruntime:undname.obj
 0002:00000d1c       ??_C@_02FOEOMHFC@?$CL?$DN@ 0000000180027d1c     libvcruntime:undname.obj
 0002:00000d20       ??_C@_02FKMDLLOA@?9?$DN@   0000000180027d20     libvcruntime:undname.obj
 0002:00000d24       ??_C@_02FJEHGPIO@?1?$DN@   0000000180027d24     libvcruntime:undname.obj
 0002:00000d28       ??_C@_02FENAOKFI@?$CF?$DN@ 0000000180027d28     libvcruntime:undname.obj
 0002:00000d2c       ??_C@_03IKFCCPFF@?$DO?$DO?$DN@ 0000000180027d2c     libvcruntime:undname.obj
 0002:00000d30       ??_C@_03CDNPDDLA@?$DM?$DM?$DN@ 0000000180027d30     libvcruntime:undname.obj
 0002:00000d34       ??_C@_02FGJGFEAB@?$CG?$DN@ 0000000180027d34     libvcruntime:undname.obj
 0002:00000d38       ??_C@_02DHLNPPGH@?$HM?$DN@ 0000000180027d38     libvcruntime:undname.obj
 0002:00000d3c       ??_C@_02MHEGNOJ@?$FO?$DN@  0000000180027d3c     libvcruntime:undname.obj
 0002:00000d40       ??_C@_09IFPLHPGF@?$GAvftable?8@ 0000000180027d40     libvcruntime:undname.obj
 0002:00000d50       ??_C@_09BLBHBJP@?$GAvbtable?8@ 0000000180027d50     libvcruntime:undname.obj
 0002:00000d60       ??_C@_07FEEIOKP@?$GAvcall?8@ 0000000180027d60     libvcruntime:undname.obj
 0002:00000d68       ??_C@_08LLFFHHDJ@?$GAtypeof?8@ 0000000180027d68     libvcruntime:undname.obj
 0002:00000d78       ??_C@_0BF@KDPPACIK@?$GAlocal?5static?5guard?8@ 0000000180027d78     libvcruntime:undname.obj
 0002:00000d90       ??_C@_08OBABFOLI@?$GAstring?8@ 0000000180027d90     libvcruntime:undname.obj
 0002:00000da0       ??_C@_0BD@JDLKDPAB@?$GAvbase?5destructor?8@ 0000000180027da0     libvcruntime:undname.obj
 0002:00000db8       ??_C@_0BN@DEGPLNFK@?$GAvector?5deleting?5destructor?8@ 0000000180027db8     libvcruntime:undname.obj
 0002:00000dd8       ??_C@_0BO@OBMKPJIG@?$GAdefault?5constructor?5closure?8@ 0000000180027dd8     libvcruntime:undname.obj
 0002:00000df8       ??_C@_0BN@IMDCHIKM@?$GAscalar?5deleting?5destructor?8@ 0000000180027df8     libvcruntime:undname.obj
 0002:00000e18       ??_C@_0BO@PFGOCPJJ@?$GAvector?5constructor?5iterator?8@ 0000000180027e18     libvcruntime:undname.obj
 0002:00000e38       ??_C@_0BN@LFPFMEDL@?$GAvector?5destructor?5iterator?8@ 0000000180027e38     libvcruntime:undname.obj
 0002:00000e58       ??_C@_0CE@IKBNEHA@?$GAvector?5vbase?5constructor?5itera@ 0000000180027e58     libvcruntime:undname.obj
 0002:00000e80       ??_C@_0BL@NILFHHPC@?$GAvirtual?5displacement?5map?8@ 0000000180027e80     libvcruntime:undname.obj
 0002:00000ea0       ??_C@_0CB@JONCMFFK@?$GAeh?5vector?5constructor?5iterator@ 0000000180027ea0     libvcruntime:undname.obj
 0002:00000ec8       ??_C@_0CA@GCEOPDGL@?$GAeh?5vector?5destructor?5iterator?8@ 0000000180027ec8     libvcruntime:undname.obj
 0002:00000ee8       ??_C@_0CH@OOJPLCPH@?$GAeh?5vector?5vbase?5constructor?5it@ 0000000180027ee8     libvcruntime:undname.obj
 0002:00000f10       ??_C@_0BL@LLKPOHJI@?$GAcopy?5constructor?5closure?8@ 0000000180027f10     libvcruntime:undname.obj
 0002:00000f30       ??_C@_0BA@KBCDOMBN@?$GAudt?5returning?8@ 0000000180027f30     libvcruntime:undname.obj
 0002:00000f40       ??_C@_03KLGMFNMG@?$GAEH@   0000000180027f40     libvcruntime:undname.obj
 0002:00000f44       ??_C@_05KHLCHHI@?$GARTTI@  0000000180027f44     libvcruntime:undname.obj
 0002:00000f50       ??_C@_0BA@KKLDJDLB@?$GAlocal?5vftable?8@ 0000000180027f50     libvcruntime:undname.obj
 0002:00000f60       ??_C@_0CE@IIHCMGGL@?$GAlocal?5vftable?5constructor?5clos@ 0000000180027f60     libvcruntime:undname.obj
 0002:00000f84       ??_C@_06FHBGPFGH@?5new?$FL?$FN@ 0000000180027f84     libvcruntime:undname.obj
 0002:00000f90       ??_C@_09LBNFPBCA@?5delete?$FL?$FN@ 0000000180027f90     libvcruntime:undname.obj
 0002:00000fa0       ??_C@_0P@HJKNJFNN@?$GAomni?5callsig?8@ 0000000180027fa0     libvcruntime:undname.obj
 0002:00000fb0       ??_C@_0BL@CNOONJFP@?$GAplacement?5delete?5closure?8@ 0000000180027fb0     libvcruntime:undname.obj
 0002:00000fd0       ??_C@_0BN@CKNJLHMB@?$GAplacement?5delete?$FL?$FN?5closure?8@ 0000000180027fd0     libvcruntime:undname.obj
 0002:00000ff0       ??_C@_0CG@CFDHKGGD@?$GAmanaged?5vector?5constructor?5ite@ 0000000180027ff0     libvcruntime:undname.obj
 0002:00001018       ??_C@_0CF@IMGKMJNO@?$GAmanaged?5vector?5destructor?5iter@ 0000000180028018     libvcruntime:undname.obj
 0002:00001040       ??_C@_0CG@HLDDJMAG@?$GAeh?5vector?5copy?5constructor?5ite@ 0000000180028040     libvcruntime:undname.obj
 0002:00001068       ??_C@_0CM@FCBBDIGB@?$GAeh?5vector?5vbase?5copy?5construct@ 0000000180028068     libvcruntime:undname.obj
 0002:00001098       ??_C@_0BL@CLIPGLGB@?$GAdynamic?5initializer?5for?5?8@ 0000000180028098     libvcruntime:undname.obj
 0002:000010b8       ??_C@_0CB@PDBIFEP@?$GAdynamic?5atexit?5destructor?5for?5@ 00000001800280b8     libvcruntime:undname.obj
 0002:000010e0       ??_C@_0CD@CGAJBKEJ@?$GAvector?5copy?5constructor?5iterat@ 00000001800280e0     libvcruntime:undname.obj
 0002:00001108       ??_C@_0CJ@GJELGAMM@?$GAvector?5vbase?5copy?5constructor?5@ 0000000180028108     libvcruntime:undname.obj
 0002:00001138       ??_C@_0CL@FGIJHLCE@?$GAmanaged?5vector?5copy?5constructo@ 0000000180028138     libvcruntime:undname.obj
 0002:00001168       ??_C@_0BM@PMGGMLDN@?$GAlocal?5static?5thread?5guard?8@ 0000000180028168     libvcruntime:undname.obj
 0002:00001188       ??_C@_0N@BDNMDMOL@operator?5?$CC?$CC?5@ 0000000180028188     libvcruntime:undname.obj
 0002:00001198       ??_C@_0BC@GGEBGALA@operator?5co_await@ 0000000180028198     libvcruntime:undname.obj
 0002:000011b0       ??_C@_0M@GAAIMMOH@operator?$DM?$DN?$DO@ 00000001800281b0     libvcruntime:undname.obj
 0002:000011c0       ??_C@_0BC@DAFEJGAK@?5Type?5Descriptor?8@ 00000001800281c0     libvcruntime:undname.obj
 0002:000011d8       ??_C@_0BM@LDKODKLH@?5Base?5Class?5Descriptor?5at?5?$CI@ 00000001800281d8     libvcruntime:undname.obj
 0002:000011f8       ??_C@_0BD@LGICGFMM@?5Base?5Class?5Array?8@ 00000001800281f8     libvcruntime:undname.obj
 0002:00001210       ??_C@_0BN@MECKDCOJ@?5Class?5Hierarchy?5Descriptor?8@ 0000000180028210     libvcruntime:undname.obj
 0002:00001230       ??_C@_0BK@CFCOFLF@?5Complete?5Object?5Locator?8@ 0000000180028230     libvcruntime:undname.obj
 0002:00001250       ??_C@_0BG@JNJLAMPM@?$GAanonymous?5namespace?8@ 0000000180028250     libvcruntime:undname.obj
 0002:00001280       ??_C@_1DM@KHCHBNEB@?$AAa?$AAp?$AAi?$AA?9?$AAm?$AAs?$AA?9?$AAw?$AAi?$AAn?$AA?9?$AAc?$AAo?$AAr?$AAe@ 0000000180028280     libvcruntime:winapi_downlevel.obj
 0002:000012c0       ??_C@_1DK@LPPGFMPP@?$AAa?$AAp?$AAi?$AA?9?$AAm?$AAs?$AA?9?$AAw?$AAi?$AAn?$AA?9?$AAc?$AAo?$AAr?$AAe@ 00000001800282c0     libvcruntime:winapi_downlevel.obj
 0002:00001300       ??_C@_1BC@GDMECMAK@?$AAk?$AAe?$AAr?$AAn?$AAe?$AAl?$AA3?$AA2@ 0000000180028300     libvcruntime:winapi_downlevel.obj
 0002:00001318       ??_C@_1BA@PFFKHIOG@?$AAa?$AAp?$AAi?$AA?9?$AAm?$AAs?$AA?9@ 0000000180028318     libvcruntime:winapi_downlevel.obj
 0002:00001330       ??_C@_08KNHFBNJ@FlsAlloc@  0000000180028330     libvcruntime:winapi_downlevel.obj
 0002:00001348       ??_C@_07PEJMOBNF@FlsFree@  0000000180028348     libvcruntime:winapi_downlevel.obj
 0002:00001358       ??_C@_0M@GDNOONDI@FlsGetValue@ 0000000180028358     libvcruntime:winapi_downlevel.obj
 0002:00001370       ??_C@_0M@JCPCPOEF@FlsSetValue@ 0000000180028370     libvcruntime:winapi_downlevel.obj
 0002:00001388       ??_C@_0BM@HCFOFFN@InitializeCriticalSectionEx@ 0000000180028388     libvcruntime:winapi_downlevel.obj
 0002:000013b0       __acrt_exception_action_table 00000001800283b0     libucrt:exception_filter.obj
 0002:00001470       __acrt_signal_action_table_count 0000000180028470     libucrt:exception_filter.obj
 0002:00001478       __acrt_signal_action_first_fpe_index 0000000180028478     libucrt:exception_filter.obj
 0002:00001480       __acrt_signal_action_fpe_count 0000000180028480     libucrt:exception_filter.obj
 0002:00001488       ??_C@_1BI@BGOHAHKC@?$AAm?$AAs?$AAc?$AAo?$AAr?$AAe?$AAe?$AA?4?$AAd?$AAl?$AAl@ 0000000180028488     libucrt:exit.obj
 0002:000014a0       ??_C@_0P@MIGLKIOC@CorExitProcess@ 00000001800284a0     libucrt:exit.obj
 0002:00001720       __lc_time_c                0000000180028720     libucrt:nlsdata.obj
 0002:000019e0       ??_C@_03KOEHGMDN@Sun@      00000001800289e0     libucrt:nlsdata.obj
 0002:000019e4       ??_C@_03PDAGKDH@Mon@       00000001800289e4     libucrt:nlsdata.obj
 0002:000019e8       ??_C@_03NAGEINEP@Tue@      00000001800289e8     libucrt:nlsdata.obj
 0002:000019ec       ??_C@_03MHOMLAJA@Wed@      00000001800289ec     libucrt:nlsdata.obj
 0002:000019f0       ??_C@_03IOFIKPDN@Thu@      00000001800289f0     libucrt:nlsdata.obj
 0002:000019f4       ??_C@_03IDIOELNC@Fri@      00000001800289f4     libucrt:nlsdata.obj
 0002:000019f8       ??_C@_03FEFJNEK@Sat@       00000001800289f8     libucrt:nlsdata.obj
 0002:000019fc       ??_C@_06OOPIFAJ@Sunday@    00000001800289fc     libucrt:nlsdata.obj
 0002:00001a04       ??_C@_06JLEDEDGH@Monday@   0000000180028a04     libucrt:nlsdata.obj
 0002:00001a10       ??_C@_07BAAGCFCM@Tuesday@  0000000180028a10     libucrt:nlsdata.obj
 0002:00001a18       ??_C@_09DLIGFAKA@Wednesday@ 0000000180028a18     libucrt:nlsdata.obj
 0002:00001a28       ??_C@_08HACCIKIA@Thursday@ 0000000180028a28     libucrt:nlsdata.obj
 0002:00001a34       ??_C@_06JECMNKMI@Friday@   0000000180028a34     libucrt:nlsdata.obj
 0002:00001a40       ??_C@_08INBOOONO@Saturday@ 0000000180028a40     libucrt:nlsdata.obj
 0002:00001a4c       ??_C@_03JIHJHPIE@Jan@      0000000180028a4c     libucrt:nlsdata.obj
 0002:00001a50       ??_C@_03HJBDCHOM@Feb@      0000000180028a50     libucrt:nlsdata.obj
 0002:00001a54       ??_C@_03ODNJBKGA@Mar@      0000000180028a54     libucrt:nlsdata.obj
 0002:00001a58       ??_C@_03LEOLGMJP@Apr@      0000000180028a58     libucrt:nlsdata.obj
 0002:00001a5c       ??_C@_03CNMDKL@May@        0000000180028a5c     libucrt:nlsdata.obj
 0002:00001a60       ??_C@_03IDFGHECI@Jun@      0000000180028a60     libucrt:nlsdata.obj
 0002:00001a64       ??_C@_03LBGABGKK@Jul@      0000000180028a64     libucrt:nlsdata.obj
 0002:00001a68       ??_C@_03IFJFEIGA@Aug@      0000000180028a68     libucrt:nlsdata.obj
 0002:00001a6c       ??_C@_03GGCAPAJC@Sep@      0000000180028a6c     libucrt:nlsdata.obj
 0002:00001a70       ??_C@_03BMAOKBAD@Oct@      0000000180028a70     libucrt:nlsdata.obj
 0002:00001a74       ??_C@_03JPJOFNIA@Nov@      0000000180028a74     libucrt:nlsdata.obj
 0002:00001a78       ??_C@_03MKABNOCG@Dec@      0000000180028a78     libucrt:nlsdata.obj
 0002:00001a80       ??_C@_07CGJPFGJA@January@  0000000180028a80     libucrt:nlsdata.obj
 0002:00001a88       ??_C@_08GNJGEPFN@February@ 0000000180028a88     libucrt:nlsdata.obj
 0002:00001a94       ??_C@_05HPCKOFNC@March@    0000000180028a94     libucrt:nlsdata.obj
 0002:00001a9c       ??_C@_05DMJDNLEJ@April@    0000000180028a9c     libucrt:nlsdata.obj
 0002:00001aa4       ??_C@_04CNLMGBGM@June@     0000000180028aa4     libucrt:nlsdata.obj
 0002:00001aac       ??_C@_04MIEPOIFP@July@     0000000180028aac     libucrt:nlsdata.obj
 0002:00001ab4       ??_C@_06LBBHFDDG@August@   0000000180028ab4     libucrt:nlsdata.obj
 0002:00001ac0       ??_C@_09BHHEALKD@September@ 0000000180028ac0     libucrt:nlsdata.obj
 0002:00001ad0       ??_C@_07JJNFCEND@October@  0000000180028ad0     libucrt:nlsdata.obj
 0002:00001ad8       ??_C@_08HCHEGEOA@November@ 0000000180028ad8     libucrt:nlsdata.obj
 0002:00001ae8       ??_C@_08EDHMEBNP@December@ 0000000180028ae8     libucrt:nlsdata.obj
 0002:00001af4       ??_C@_02DEDBPAFC@AM@       0000000180028af4     libucrt:nlsdata.obj
 0002:00001af8       ??_C@_02CJNFDJBF@PM@       0000000180028af8     libucrt:nlsdata.obj
 0002:00001b00       ??_C@_08BPBNCDIB@MM?1dd?1yy@ 0000000180028b00     libucrt:nlsdata.obj
 0002:00001b10       ??_C@_0BE@CKGJFCPC@dddd?0?5MMMM?5dd?0?5yyyy@ 0000000180028b10     libucrt:nlsdata.obj
 0002:00001b28       ??_C@_08JCCMCCIL@HH?3mm?3ss@ 0000000180028b28     libucrt:nlsdata.obj
 0002:00001b38       ??_C@_17MBGCMIPB@?$AAS?$AAu?$AAn@ 0000000180028b38     libucrt:nlsdata.obj
 0002:00001b40       ??_C@_17KBOMKBF@?$AAM?$AAo?$AAn@ 0000000180028b40     libucrt:nlsdata.obj
 0002:00001b48       ??_C@_17BMKGEGOJ@?$AAT?$AAu?$AAe@ 0000000180028b48     libucrt:nlsdata.obj
 0002:00001b50       ??_C@_17CJEDCEPE@?$AAW?$AAe?$AAd@ 0000000180028b50     libucrt:nlsdata.obj
 0002:00001b58       ??_C@_17PDPHAADD@?$AAT?$AAh?$AAu@ 0000000180028b58     libucrt:nlsdata.obj
 0002:00001b60       ??_C@_17HFOLPPLP@?$AAF?$AAr?$AAi@ 0000000180028b60     libucrt:nlsdata.obj
 0002:00001b68       ??_C@_17GGIBDPIH@?$AAS?$AAa?$AAt@ 0000000180028b68     libucrt:nlsdata.obj
 0002:00001b70       ??_C@_1O@IHNHDHPB@?$AAS?$AAu?$AAn?$AAd?$AAa?$AAy@ 0000000180028b70     libucrt:nlsdata.obj
 0002:00001b80       ??_C@_1O@MMNBFLIA@?$AAM?$AAo?$AAn?$AAd?$AAa?$AAy@ 0000000180028b80     libucrt:nlsdata.obj
 0002:00001b90       ??_C@_1BA@ENFBFFEK@?$AAT?$AAu?$AAe?$AAs?$AAd?$AAa?$AAy@ 0000000180028b90     libucrt:nlsdata.obj
 0002:00001ba0       ??_C@_1BE@EBOGMDOH@?$AAW?$AAe?$AAd?$AAn?$AAe?$AAs?$AAd?$AAa?$AAy@ 0000000180028ba0     libucrt:nlsdata.obj
 0002:00001bb8       ??_C@_1BC@HHMNLIHE@?$AAT?$AAh?$AAu?$AAr?$AAs?$AAd?$AAa?$AAy@ 0000000180028bb8     libucrt:nlsdata.obj
 0002:00001bd0       ??_C@_1O@PDICJHAG@?$AAF?$AAr?$AAi?$AAd?$AAa?$AAy@ 0000000180028bd0     libucrt:nlsdata.obj
 0002:00001be0       ??_C@_1BC@ENMNNPAJ@?$AAS?$AAa?$AAt?$AAu?$AAr?$AAd?$AAa?$AAy@ 0000000180028be0     libucrt:nlsdata.obj
 0002:00001bf8       ??_C@_17DKNBKCHM@?$AAJ?$AAa?$AAn@ 0000000180028bf8     libucrt:nlsdata.obj
 0002:00001c00       ??_C@_17LMDJEKJN@?$AAF?$AAe?$AAb@ 0000000180028c00     libucrt:nlsdata.obj
 0002:00001c08       ??_C@_17CKNLEDEC@?$AAM?$AAa?$AAr@ 0000000180028c08     libucrt:nlsdata.obj
 0002:00001c10       ??_C@_17LFPOIHDD@?$AAA?$AAp?$AAr@ 0000000180028c10     libucrt:nlsdata.obj
 0002:00001c18       ??_C@_17PNNKMEED@?$AAM?$AAa?$AAy@ 0000000180028c18     libucrt:nlsdata.obj
 0002:00001c20       ??_C@_17KCJGOCPB@?$AAJ?$AAu?$AAn@ 0000000180028c20     libucrt:nlsdata.obj
 0002:00001c28       ??_C@_17IJPCKHK@?$AAJ?$AAu?$AAl@ 0000000180028c28     libucrt:nlsdata.obj
 0002:00001c30       ??_C@_17ICPELBCN@?$AAA?$AAu?$AAg@ 0000000180028c30     libucrt:nlsdata.obj
 0002:00001c38       ??_C@_17HCHCOKMG@?$AAS?$AAe?$AAp@ 0000000180028c38     libucrt:nlsdata.obj
 0002:00001c40       ??_C@_17FNLKOI@?$AAO?$AAc?$AAt@ 0000000180028c40     libucrt:nlsdata.obj
 0002:00001c48       ??_C@_17BBDMLCIG@?$AAN?$AAo?$AAv@ 0000000180028c48     libucrt:nlsdata.obj
 0002:00001c50       ??_C@_17EGKACKIF@?$AAD?$AAe?$AAc@ 0000000180028c50     libucrt:nlsdata.obj
 0002:00001c58       ??_C@_1BA@EFMEIEBA@?$AAJ?$AAa?$AAn?$AAu?$AAa?$AAr?$AAy@ 0000000180028c58     libucrt:nlsdata.obj
 0002:00001c68       ??_C@_1BC@JGDDFFAM@?$AAF?$AAe?$AAb?$AAr?$AAu?$AAa?$AAr?$AAy@ 0000000180028c68     libucrt:nlsdata.obj
 0002:00001c80       ??_C@_1M@IKEENEDF@?$AAM?$AAa?$AAr?$AAc?$AAh@ 0000000180028c80     libucrt:nlsdata.obj
 0002:00001c90       ??_C@_1M@GJNLMHFD@?$AAA?$AAp?$AAr?$AAi?$AAl@ 0000000180028c90     libucrt:nlsdata.obj
 0002:00001ca0       ??_C@_19EPFLPGAP@?$AAJ?$AAu?$AAn?$AAe@ 0000000180028ca0     libucrt:nlsdata.obj
 0002:00001cb0       ??_C@_19BIFMLPCD@?$AAJ?$AAu?$AAl?$AAy@ 0000000180028cb0     libucrt:nlsdata.obj
 0002:00001cc0       ??_C@_1O@PAHLKOAC@?$AAA?$AAu?$AAg?$AAu?$AAs?$AAt@ 0000000180028cc0     libucrt:nlsdata.obj
 0002:00001cd0       ??_C@_1BE@DKAAMBJL@?$AAS?$AAe?$AAp?$AAt?$AAe?$AAm?$AAb?$AAe?$AAr@ 0000000180028cd0     libucrt:nlsdata.obj
 0002:00001ce8       ??_C@_1BA@EPANDLNG@?$AAO?$AAc?$AAt?$AAo?$AAb?$AAe?$AAr@ 0000000180028ce8     libucrt:nlsdata.obj
 0002:00001cf8       ??_C@_1BC@BGLIFPF@?$AAN?$AAo?$AAv?$AAe?$AAm?$AAb?$AAe?$AAr@ 0000000180028cf8     libucrt:nlsdata.obj
 0002:00001d10       ??_C@_1BC@FEMKIFH@?$AAD?$AAe?$AAc?$AAe?$AAm?$AAb?$AAe?$AAr@ 0000000180028d10     libucrt:nlsdata.obj
 0002:00001d24       ??_C@_15ODEHAHHF@?$AAA?$AAM@ 0000000180028d24     libucrt:nlsdata.obj
 0002:00001d2c       ??_C@_15CLMNNGEL@?$AAP?$AAM@ 0000000180028d2c     libucrt:nlsdata.obj
 0002:00001d38       ??_C@_1BC@IEBCMHCM@?$AAM?$AAM?$AA?1?$AAd?$AAd?$AA?1?$AAy?$AAy@ 0000000180028d38     libucrt:nlsdata.obj
 0002:00001d50       ??_C@_1CI@KNAKOEBC@?$AAd?$AAd?$AAd?$AAd?$AA?0?$AA?5?$AAM?$AAM?$AAM?$AAM?$AA?5?$AAd?$AAd?$AA?0?$AA?5@ 0000000180028d50     libucrt:nlsdata.obj
 0002:00001d78       ??_C@_1BC@GDGBMEMK@?$AAH?$AAH?$AA?3?$AAm?$AAm?$AA?3?$AAs?$AAs@ 0000000180028d78     libucrt:nlsdata.obj
 0002:00001d90       ??_C@_1M@BMHNFIME@?$AAe?$AAn?$AA?9?$AAU?$AAS@ 0000000180028d90     libucrt:nlsdata.obj
 0002:00001dc0       ??_C@_1M@HPNHIDJI@?$AAj?$AAa?$AA?9?$AAJ?$AAP@ 0000000180028dc0     libucrt:mbctype.obj
 0002:00001dd0       ??_C@_1M@BIBDDEMK@?$AAz?$AAh?$AA?9?$AAC?$AAN@ 0000000180028dd0     libucrt:mbctype.obj
 0002:00001de0       ??_C@_1M@JLOOOEGK@?$AAk?$AAo?$AA?9?$AAK?$AAR@ 0000000180028de0     libucrt:mbctype.obj
 0002:00001df0       ??_C@_1M@CLNBBOPM@?$AAz?$AAh?$AA?9?$AAT?$AAW@ 0000000180028df0     libucrt:mbctype.obj
 0002:00001ea0       ??_C@_1EA@JGEFHKEI@?$AAa?$AAp?$AAi?$AA?9?$AAm?$AAs?$AA?9?$AAw?$AAi?$AAn?$AA?9?$AAc?$AAo?$AAr?$AAe@ 0000000180028ea0     libucrt:winapi_thunks.obj
 0002:00001ee0       ??_C@_1DI@IJCEHOCB@?$AAa?$AAp?$AAi?$AA?9?$AAm?$AAs?$AA?9?$AAw?$AAi?$AAn?$AA?9?$AAc?$AAo?$AAr?$AAe@ 0000000180028ee0     libucrt:winapi_thunks.obj
 0002:00001f20       ??_C@_1EI@MPIAOHOC@?$AAa?$AAp?$AAi?$AA?9?$AAm?$AAs?$AA?9?$AAw?$AAi?$AAn?$AA?9?$AAc?$AAo?$AAr?$AAe@ 0000000180028f20     libucrt:winapi_thunks.obj
 0002:00001f70       ??_C@_1FK@FPHCKFIE@?$AAa?$AAp?$AAi?$AA?9?$AAm?$AAs?$AA?9?$AAw?$AAi?$AAn?$AA?9?$AAc?$AAo?$AAr?$AAe@ 0000000180028f70     libucrt:winapi_thunks.obj
 0002:00001fd0       ??_C@_1EM@DILCGIIO@?$AAa?$AAp?$AAi?$AA?9?$AAm?$AAs?$AA?9?$AAw?$AAi?$AAn?$AA?9?$AAc?$AAo?$AAr?$AAe@ 0000000180028fd0     libucrt:winapi_thunks.obj
 0002:00002020       ??_C@_1DM@LNCGDDPN@?$AAa?$AAp?$AAi?$AA?9?$AAm?$AAs?$AA?9?$AAw?$AAi?$AAn?$AA?9?$AAc?$AAo?$AAr?$AAe@ 0000000180029020     libucrt:winapi_thunks.obj
 0002:00002060       ??_C@_1DO@FPAPJEMD@?$AAa?$AAp?$AAi?$AA?9?$AAm?$AAs?$AA?9?$AAw?$AAi?$AAn?$AA?9?$AAc?$AAo?$AAr?$AAe@ 0000000180029060     libucrt:winapi_thunks.obj
 0002:000020a0       ??_C@_1DK@NDHNAHIO@?$AAa?$AAp?$AAi?$AA?9?$AAm?$AAs?$AA?9?$AAw?$AAi?$AAn?$AA?9?$AAc?$AAo?$AAr?$AAe@ 00000001800290a0     libucrt:winapi_thunks.obj
 0002:000020e0       ??_C@_1DM@KGHDGBCM@?$AAa?$AAp?$AAi?$AA?9?$AAm?$AAs?$AA?9?$AAw?$AAi?$AAn?$AA?9?$AAc?$AAo?$AAr?$AAe@ 00000001800290e0     libucrt:winapi_thunks.obj
 0002:00002120       ??_C@_1EO@IJIOEFOH@?$AAa?$AAp?$AAi?$AA?9?$AAm?$AAs?$AA?9?$AAw?$AAi?$AAn?$AA?9?$AAr?$AAt?$AAc?$AAo@ 0000000180029120     libucrt:winapi_thunks.obj
 0002:00002170       ??_C@_1FG@HHGEKANL@?$AAa?$AAp?$AAi?$AA?9?$AAm?$AAs?$AA?9?$AAw?$AAi?$AAn?$AA?9?$AAs?$AAe?$AAc?$AAu@ 0000000180029170     libucrt:winapi_thunks.obj
 0002:000021d0       ??_C@_1EG@DBIOJECG@?$AAe?$AAx?$AAt?$AA?9?$AAm?$AAs?$AA?9?$AAw?$AAi?$AAn?$AA?9?$AAn?$AAt?$AAu?$AAs@ 00000001800291d0     libucrt:winapi_thunks.obj
 0002:00002220       ??_C@_1EO@FIHMJCLF@?$AAe?$AAx?$AAt?$AA?9?$AAm?$AAs?$AA?9?$AAw?$AAi?$AAn?$AA?9?$AAn?$AAt?$AAu?$AAs@ 0000000180029220     libucrt:winapi_thunks.obj
 0002:00002270       ??_C@_1BC@DNHGCMLG@?$AAa?$AAd?$AAv?$AAa?$AAp?$AAi?$AA3?$AA2@ 0000000180029270     libucrt:winapi_thunks.obj
 0002:00002288       ??_C@_1M@OAIMIKLP@?$AAn?$AAt?$AAd?$AAl?$AAl@ 0000000180029288     libucrt:winapi_thunks.obj
 0002:000022a0       ??_C@_1EG@DPGNFKGC@?$AAa?$AAp?$AAi?$AA?9?$AAm?$AAs?$AA?9?$AAw?$AAi?$AAn?$AA?9?$AAa?$AAp?$AAp?$AAm@ 00000001800292a0     libucrt:winapi_thunks.obj
 0002:000022e8       ??_C@_1O@BCCLBEOE@?$AAu?$AAs?$AAe?$AAr?$AA3?$AA2@ 00000001800292e8     libucrt:winapi_thunks.obj
 0002:000022f8       ??_C@_1BA@IAIFMGEF@?$AAe?$AAx?$AAt?$AA?9?$AAm?$AAs?$AA?9@ 00000001800292f8     libucrt:winapi_thunks.obj
 0002:00002310       ??_C@_0BA@FHFNEAED@AreFileApisANSI@ 0000000180029310     libucrt:winapi_thunks.obj
 0002:00002350       ??_C@_0O@KKBNKAPF@LCMapStringEx@ 0000000180029350     libucrt:winapi_thunks.obj
 0002:00002368       ??_C@_0BB@HBDEELFH@LocaleNameToLCID@ 0000000180029368     libucrt:winapi_thunks.obj
 0002:00002380       ??_C@_0CF@OJOFEIGO@AppPolicyGetProcessTerminationM@ 0000000180029380     libucrt:winapi_thunks.obj
 0002:000023b0       __newctype                 00000001800293b0     libucrt:ctype.obj
 0002:000026b0       __newclmap                 00000001800296b0     libucrt:ctype.obj
 0002:00002830       __newcumap                 0000000180029830     libucrt:ctype.obj
 0002:000029b0       ??_C@_15PJPFLCCM@?$AAu?$AAk@ 00000001800299b0     libucrt:get_qualified_locale.obj
 0002:00003800       ??_C@_15EMKDOKLE@?$AAa?$AAr@ 000000018002a800     libucrt:lcidtoname_downlevel.obj
 0002:00003808       ??_C@_15KNPADPLH@?$AAb?$AAg@ 000000018002a808     libucrt:lcidtoname_downlevel.obj
 0002:00003810       ??_C@_15EDMHLDMO@?$AAc?$AAa@ 000000018002a810     libucrt:lcidtoname_downlevel.obj
 0002:00003818       ??_C@_1O@BPEAJADD@?$AAz?$AAh?$AA?9?$AAC?$AAH?$AAS@ 000000018002a818     libucrt:lcidtoname_downlevel.obj
 0002:00003828       ??_C@_15LJNHCMNK@?$AAc?$AAs@ 000000018002a828     libucrt:lcidtoname_downlevel.obj
 0002:00003830       ??_C@_15FOMCIDHG@?$AAd?$AAa@ 000000018002a830     libucrt:lcidtoname_downlevel.obj
 0002:00003838       ??_C@_15NBKABECB@?$AAd?$AAe@ 000000018002a838     libucrt:lcidtoname_downlevel.obj
 0002:00003840       ??_C@_15GHPEIIAO@?$AAe?$AAl@ 000000018002a840     libucrt:lcidtoname_downlevel.obj
 0002:00003848       ??_C@_15MNPNEAIF@?$AAe?$AAn@ 000000018002a848     libucrt:lcidtoname_downlevel.obj
 0002:00003850       ??_C@_15GPIOMPMH@?$AAe?$AAs@ 000000018002a850     libucrt:lcidtoname_downlevel.obj
 0002:00003858       ??_C@_15NGLOAKJC@?$AAf?$AAi@ 000000018002a858     libucrt:lcidtoname_downlevel.obj
 0002:00003860       ??_C@_15FBKGNKAM@?$AAf?$AAr@ 000000018002a860     libucrt:lcidtoname_downlevel.obj
 0002:00003868       ??_C@_15KGGCNEFK@?$AAh?$AAe@ 000000018002a868     libucrt:lcidtoname_downlevel.obj
 0002:00003870       ??_C@_15PGHLIDMF@?$AAh?$AAu@ 000000018002a870     libucrt:lcidtoname_downlevel.obj
 0002:00003878       ??_C@_15BIEMAPLM@?$AAi?$AAs@ 000000018002a878     libucrt:lcidtoname_downlevel.obj
 0002:00003880       ??_C@_15IFJLDHAF@?$AAi?$AAt@ 000000018002a880     libucrt:lcidtoname_downlevel.obj
 0002:00003888       ??_C@_15GEMIOCAG@?$AAj?$AAa@ 000000018002a888     libucrt:lcidtoname_downlevel.obj
 0002:00003890       ??_C@_15EPELEGJA@?$AAk?$AAo@ 000000018002a890     libucrt:lcidtoname_downlevel.obj
 0002:00003898       ??_C@_15NDDHIMN@?$AAn?$AAl@ 000000018002a898     libucrt:lcidtoname_downlevel.obj
 0002:000038a0       ??_C@_15BPIGNHCD@?$AAn?$AAo@ 000000018002a8a0     libucrt:lcidtoname_downlevel.obj
 0002:000038a8       ??_C@_15DEOPBLCG@?$AAp?$AAl@ 000000018002a8a8     libucrt:lcidtoname_downlevel.obj
 0002:000038b0       ??_C@_15KBECGEFG@?$AAp?$AAt@ 000000018002a8b0     libucrt:lcidtoname_downlevel.obj
 0002:000038b8       ??_C@_15GLJCBFMD@?$AAr?$AAo@ 000000018002a8b8     libucrt:lcidtoname_downlevel.obj
 0002:000038c0       ??_C@_15FEDGKCDI@?$AAr?$AAu@ 000000018002a8c0     libucrt:lcidtoname_downlevel.obj
 0002:000038c8       ??_C@_15GLKMLLHM@?$AAh?$AAr@ 000000018002a8c8     libucrt:lcidtoname_downlevel.obj
 0002:000038d0       ??_C@_15CPKMFBDB@?$AAs?$AAk@ 000000018002a8d0     libucrt:lcidtoname_downlevel.obj
 0002:000038d8       ??_C@_15BAAIOGMK@?$AAs?$AAq@ 000000018002a8d8     libucrt:lcidtoname_downlevel.obj
 0002:000038e0       ??_C@_15INNPNOHD@?$AAs?$AAv@ 000000018002a8e0     libucrt:lcidtoname_downlevel.obj
 0002:000038e8       ??_C@_15CABMMOGH@?$AAt?$AAh@ 000000018002a8e8     libucrt:lcidtoname_downlevel.obj
 0002:000038f0       ??_C@_15BPLIHJJM@?$AAt?$AAr@ 000000018002a8f0     libucrt:lcidtoname_downlevel.obj
 0002:000038f8       ??_C@_15NEOEKKDJ@?$AAu?$AAr@ 000000018002a8f8     libucrt:lcidtoname_downlevel.obj
 0002:00003900       ??_C@_15NFICGAJK@?$AAi?$AAd@ 000000018002a900     libucrt:lcidtoname_downlevel.obj
 0002:00003908       ??_C@_15HPJPHDM@?$AAb?$AAe@ 000000018002a908     libucrt:lcidtoname_downlevel.obj
 0002:00003910       ??_C@_15LCHLGJII@?$AAs?$AAl@ 000000018002a910     libucrt:lcidtoname_downlevel.obj
 0002:00003918       ??_C@_15PCFJPHHO@?$AAe?$AAt@ 000000018002a918     libucrt:lcidtoname_downlevel.obj
 0002:00003920       ??_C@_15HPFPGODN@?$AAl?$AAv@ 000000018002a920     libucrt:lcidtoname_downlevel.obj
 0002:00003928       ??_C@_15NFFGKGLG@?$AAl?$AAt@ 000000018002a928     libucrt:lcidtoname_downlevel.obj
 0002:00003930       ??_C@_15BDAKCCHN@?$AAf?$AAa@ 000000018002a930     libucrt:lcidtoname_downlevel.obj
 0002:00003938       ??_C@_15NFGIAIAJ@?$AAv?$AAi@ 000000018002a938     libucrt:lcidtoname_downlevel.obj
 0002:00003940       ??_C@_15LMKNDMHN@?$AAh?$AAy@ 000000018002a940     libucrt:lcidtoname_downlevel.obj
 0002:00003948       ??_C@_15IJBHMCFL@?$AAa?$AAz@ 000000018002a948     libucrt:lcidtoname_downlevel.obj
 0002:00003950       ??_C@_15EKOFJABL@?$AAe?$AAu@ 000000018002a950     libucrt:lcidtoname_downlevel.obj
 0002:00003958       ??_C@_15BGHADCNK@?$AAm?$AAk@ 000000018002a958     libucrt:lcidtoname_downlevel.obj
 0002:00003960       ??_C@_15JDNICKHM@?$AAa?$AAf@ 000000018002a960     libucrt:lcidtoname_downlevel.obj
 0002:00003968       ??_C@_15KPJEDBKD@?$AAk?$AAa@ 000000018002a968     libucrt:lcidtoname_downlevel.obj
 0002:00003970       ??_C@_15PDNFFFEO@?$AAf?$AAo@ 000000018002a970     libucrt:lcidtoname_downlevel.obj
 0002:00003978       ??_C@_15OMLEGLOC@?$AAh?$AAi@ 000000018002a978     libucrt:lcidtoname_downlevel.obj
 0002:00003980       ??_C@_15IDNNENKK@?$AAm?$AAs@ 000000018002a980     libucrt:lcidtoname_downlevel.obj
 0002:00003988       ??_C@_15MACJNBMH@?$AAk?$AAk@ 000000018002a988     libucrt:lcidtoname_downlevel.obj
 0002:00003990       ??_C@_15DKDJEOND@?$AAk?$AAy@ 000000018002a990     libucrt:lcidtoname_downlevel.obj
 0002:00003998       ??_C@_15DFGDLJBG@?$AAs?$AAw@ 000000018002a998     libucrt:lcidtoname_downlevel.obj
 0002:000039a0       ??_C@_15BBFAICNG@?$AAu?$AAz@ 000000018002a9a0     libucrt:lcidtoname_downlevel.obj
 0002:000039a8       ??_C@_15DKNDCGEA@?$AAt?$AAt@ 000000018002a9a8     libucrt:lcidtoname_downlevel.obj
 0002:000039b0       ??_C@_15MGIFMDPL@?$AAp?$AAa@ 000000018002a9b0     libucrt:lcidtoname_downlevel.obj
 0002:000039b8       ??_C@_15HCNDBBA@?$AAg?$AAu@ 000000018002a9b8     libucrt:lcidtoname_downlevel.obj
 0002:000039c0       ??_C@_15FNBEIBON@?$AAt?$AAa@ 000000018002a9c0     libucrt:lcidtoname_downlevel.obj
 0002:000039c8       ??_C@_15NCHGBGLK@?$AAt?$AAe@ 000000018002a9c8     libucrt:lcidtoname_downlevel.obj
 0002:000039d0       ??_C@_15PHPHCBPF@?$AAk?$AAn@ 000000018002a9d0     libucrt:lcidtoname_downlevel.obj
 0002:000039d8       ??_C@_15DLGBCKMP@?$AAm?$AAr@ 000000018002a9d8     libucrt:lcidtoname_downlevel.obj
 0002:000039e0       ??_C@_15EABBLBFF@?$AAs?$AAa@ 000000018002a9e0     libucrt:lcidtoname_downlevel.obj
 0002:000039e8       ??_C@_15CBKOMCOI@?$AAm?$AAn@ 000000018002a9e8     libucrt:lcidtoname_downlevel.obj
 0002:000039f0       ??_C@_15CKDMCJAF@?$AAg?$AAl@ 000000018002a9f0     libucrt:lcidtoname_downlevel.obj
 0002:000039f8       ??_C@_17CNJFBPG@?$AAk?$AAo?$AAk@ 000000018002a9f8     libucrt:lcidtoname_downlevel.obj
 0002:00003a00       ??_C@_17FFBJICPL@?$AAs?$AAy?$AAr@ 000000018002aa00     libucrt:lcidtoname_downlevel.obj
 0002:00003a08       ??_C@_17KPNDCPAF@?$AAd?$AAi?$AAv@ 000000018002aa08     libucrt:lcidtoname_downlevel.obj
 0002:00003a10       ??_C@_11LOCGONAA@@         000000018002aa10     libucrt:lcidtoname_downlevel.obj
 0002:00003a18       ??_C@_1M@OKAHONE@?$AAa?$AAr?$AA?9?$AAS?$AAA@ 000000018002aa18     libucrt:lcidtoname_downlevel.obj
 0002:00003a28       ??_C@_1M@FFFIGIGK@?$AAb?$AAg?$AA?9?$AAB?$AAG@ 000000018002aa28     libucrt:lcidtoname_downlevel.obj
 0002:00003a38       ??_C@_1M@BJNKEDC@?$AAc?$AAa?$AA?9?$AAE?$AAS@ 000000018002aa38     libucrt:lcidtoname_downlevel.obj
 0002:00003a48       ??_C@_1M@IJJHFJHA@?$AAc?$AAs?$AA?9?$AAC?$AAZ@ 000000018002aa48     libucrt:lcidtoname_downlevel.obj
 0002:00003a58       ??_C@_1M@CLPEOBGI@?$AAd?$AAa?$AA?9?$AAD?$AAK@ 000000018002aa58     libucrt:lcidtoname_downlevel.obj
 0002:00003a68       ??_C@_1M@MCMADGCB@?$AAd?$AAe?$AA?9?$AAD?$AAE@ 000000018002aa68     libucrt:lcidtoname_downlevel.obj
 0002:00003a78       ??_C@_1M@OOCKEMAM@?$AAe?$AAl?$AA?9?$AAG?$AAR@ 000000018002aa78     libucrt:lcidtoname_downlevel.obj
 0002:00003a88       ??_C@_1M@DDNJFGID@?$AAf?$AAi?$AA?9?$AAF?$AAI@ 000000018002aa88     libucrt:lcidtoname_downlevel.obj
 0002:00003a98       ??_C@_1M@GLIPPMAC@?$AAf?$AAr?$AA?9?$AAF?$AAR@ 000000018002aa98     libucrt:lcidtoname_downlevel.obj
 0002:00003aa8       ??_C@_1M@GFMCHPE@?$AAh?$AAe?$AA?9?$AAI?$AAL@ 000000018002aaa8     libucrt:lcidtoname_downlevel.obj
 0002:00003ab8       ??_C@_1M@MHLPGNKM@?$AAh?$AAu?$AA?9?$AAH?$AAU@ 000000018002aab8     libucrt:lcidtoname_downlevel.obj
 0002:00003ac8       ??_C@_1M@LPDDNNPN@?$AAi?$AAs?$AA?9?$AAI?$AAS@ 000000018002aac8     libucrt:lcidtoname_downlevel.obj
 0002:00003ad8       ??_C@_1M@MADIPODN@?$AAi?$AAt?$AA?9?$AAI?$AAT@ 000000018002aad8     libucrt:lcidtoname_downlevel.obj
 0002:00003ae8       ??_C@_1M@IHBJJGG@?$AAn?$AAl?$AA?9?$AAN?$AAL@ 000000018002aae8     libucrt:lcidtoname_downlevel.obj
 0002:00003af8       ??_C@_1M@EANAGDL@?$AAn?$AAb?$AA?9?$AAN?$AAO@ 000000018002aaf8     libucrt:lcidtoname_downlevel.obj
 0002:00003b08       ??_C@_1M@NEIEMEGP@?$AAp?$AAl?$AA?9?$AAP?$AAL@ 000000018002ab08     libucrt:lcidtoname_downlevel.obj
 0002:00003b18       ??_C@_1M@BOCFIGEP@?$AAp?$AAt?$AA?9?$AAB?$AAR@ 000000018002ab18     libucrt:lcidtoname_downlevel.obj
 0002:00003b28       ??_C@_1M@IMPFOPBG@?$AAr?$AAo?$AA?9?$AAR?$AAO@ 000000018002ab28     libucrt:lcidtoname_downlevel.obj
 0002:00003b38       ??_C@_1M@IDNNEJMM@?$AAr?$AAu?$AA?9?$AAR?$AAU@ 000000018002ab38     libucrt:lcidtoname_downlevel.obj
 0002:00003b48       ??_C@_1M@LILEEOGM@?$AAh?$AAr?$AA?9?$AAH?$AAR@ 000000018002ab48     libucrt:lcidtoname_downlevel.obj
 0002:00003b58       ??_C@_1M@FKIFEHPB@?$AAs?$AAk?$AA?9?$AAS?$AAK@ 000000018002ab58     libucrt:lcidtoname_downlevel.obj
 0002:00003b68       ??_C@_1M@LJMAMNPJ@?$AAs?$AAq?$AA?9?$AAA?$AAL@ 000000018002ab68     libucrt:lcidtoname_downlevel.obj
 0002:00003b78       ??_C@_1M@GIAKDKJK@?$AAs?$AAv?$AA?9?$AAS?$AAE@ 000000018002ab78     libucrt:lcidtoname_downlevel.obj
 0002:00003b88       ??_C@_1M@MKJKIKCL@?$AAt?$AAh?$AA?9?$AAT?$AAH@ 000000018002ab88     libucrt:lcidtoname_downlevel.obj
 0002:00003b98       ??_C@_1M@MFLCCMPB@?$AAt?$AAr?$AA?9?$AAT?$AAR@ 000000018002ab98     libucrt:lcidtoname_downlevel.obj
 0002:00003ba8       ??_C@_1M@OIJHDKJN@?$AAu?$AAr?$AA?9?$AAP?$AAK@ 000000018002aba8     libucrt:lcidtoname_downlevel.obj
 0002:00003bb8       ??_C@_1M@LHIPCIEK@?$AAi?$AAd?$AA?9?$AAI?$AAD@ 000000018002abb8     libucrt:lcidtoname_downlevel.obj
 0002:00003bc8       ??_C@_1M@MFMOBGI@?$AAu?$AAk?$AA?9?$AAU?$AAA@ 000000018002abc8     libucrt:lcidtoname_downlevel.obj
 0002:00003bd8       ??_C@_1M@OBGLJIPL@?$AAb?$AAe?$AA?9?$AAB?$AAY@ 000000018002abd8     libucrt:lcidtoname_downlevel.obj
 0002:00003be8       ??_C@_1M@BCFAJEAD@?$AAs?$AAl?$AA?9?$AAS?$AAI@ 000000018002abe8     libucrt:lcidtoname_downlevel.obj
 0002:00003bf8       ??_C@_1M@FKFFEDDN@?$AAe?$AAt?$AA?9?$AAE?$AAE@ 000000018002abf8     libucrt:lcidtoname_downlevel.obj
 0002:00003c08       ??_C@_1M@KGKKAACI@?$AAl?$AAv?$AA?9?$AAL?$AAV@ 000000018002ac08     libucrt:lcidtoname_downlevel.obj
 0002:00003c18       ??_C@_1M@IFGBIJO@?$AAl?$AAt?$AA?9?$AAL?$AAT@ 000000018002ac18     libucrt:lcidtoname_downlevel.obj
 0002:00003c28       ??_C@_1M@FGEAHEDM@?$AAf?$AAa?$AA?9?$AAI?$AAR@ 000000018002ac28     libucrt:lcidtoname_downlevel.obj
 0002:00003c38       ??_C@_1M@KBMAIBFN@?$AAv?$AAi?$AA?9?$AAV?$AAN@ 000000018002ac38     libucrt:lcidtoname_downlevel.obj
 0002:00003c48       ??_C@_1M@GPCBKDJK@?$AAh?$AAy?$AA?9?$AAA?$AAM@ 000000018002ac48     libucrt:lcidtoname_downlevel.obj
 0002:00003c58       ??_C@_1BG@BECMDDJB@?$AAa?$AAz?$AA?9?$AAA?$AAZ?$AA?9?$AAL?$AAa?$AAt?$AAn@ 000000018002ac58     libucrt:lcidtoname_downlevel.obj
 0002:00003c70       ??_C@_1M@MAOFCAEA@?$AAe?$AAu?$AA?9?$AAE?$AAS@ 000000018002ac70     libucrt:lcidtoname_downlevel.obj
 0002:00003c80       ??_C@_1M@IGHABKPI@?$AAm?$AAk?$AA?9?$AAM?$AAK@ 000000018002ac80     libucrt:lcidtoname_downlevel.obj
 0002:00003c90       ??_C@_1M@IAIGNEJG@?$AAt?$AAn?$AA?9?$AAZ?$AAA@ 000000018002ac90     libucrt:lcidtoname_downlevel.obj
 0002:00003ca0       ??_C@_1M@IIJCOJFA@?$AAx?$AAh?$AA?9?$AAZ?$AAA@ 000000018002aca0     libucrt:lcidtoname_downlevel.obj
 0002:00003cb0       ??_C@_1M@LGPJHNJH@?$AAz?$AAu?$AA?9?$AAZ?$AAA@ 000000018002acb0     libucrt:lcidtoname_downlevel.obj
 0002:00003cc0       ??_C@_1M@HOKAOIO@?$AAa?$AAf?$AA?9?$AAZ?$AAA@ 000000018002acc0     libucrt:lcidtoname_downlevel.obj
 0002:00003cd0       ??_C@_1M@DPCLHLIE@?$AAk?$AAa?$AA?9?$AAG?$AAE@ 000000018002acd0     libucrt:lcidtoname_downlevel.obj
 0002:00003ce0       ??_C@_1M@BLKMHJBI@?$AAf?$AAo?$AA?9?$AAF?$AAO@ 000000018002ace0     libucrt:lcidtoname_downlevel.obj
 0002:00003cf0       ??_C@_1M@LGGJAPPB@?$AAh?$AAi?$AA?9?$AAI?$AAN@ 000000018002acf0     libucrt:lcidtoname_downlevel.obj
 0002:00003d00       ??_C@_1M@FIKPIHFE@?$AAm?$AAt?$AA?9?$AAM?$AAT@ 000000018002ad00     libucrt:lcidtoname_downlevel.obj
 0002:00003d10       ??_C@_1M@HEGGPBFA@?$AAs?$AAe?$AA?9?$AAN?$AAO@ 000000018002ad10     libucrt:lcidtoname_downlevel.obj
 0002:00003d20       ??_C@_1M@EIBJEEPA@?$AAm?$AAs?$AA?9?$AAM?$AAY@ 000000018002ad20     libucrt:lcidtoname_downlevel.obj
 0002:00003d30       ??_C@_1M@FHLBGMPP@?$AAk?$AAk?$AA?9?$AAK?$AAZ@ 000000018002ad30     libucrt:lcidtoname_downlevel.obj
 0002:00003d40       ??_C@_1M@NGJJLCGI@?$AAk?$AAy?$AA?9?$AAK?$AAG@ 000000018002ad40     libucrt:lcidtoname_downlevel.obj
 0002:00003d50       ??_C@_1M@GIENNBFC@?$AAs?$AAw?$AA?9?$AAK?$AAE@ 000000018002ad50     libucrt:lcidtoname_downlevel.obj
 0002:00003d60       ??_C@_1BG@NDGMJIMJ@?$AAu?$AAz?$AA?9?$AAU?$AAZ?$AA?9?$AAL?$AAa?$AAt?$AAn@ 000000018002ad60     libucrt:lcidtoname_downlevel.obj
 0002:00003d78       ??_C@_1M@IDCCIHBC@?$AAt?$AAt?$AA?9?$AAR?$AAU@ 000000018002ad78     libucrt:lcidtoname_downlevel.obj
 0002:00003d88       ??_C@_1M@LOICPMOJ@?$AAb?$AAn?$AA?9?$AAI?$AAN@ 000000018002ad88     libucrt:lcidtoname_downlevel.obj
 0002:00003d98       ??_C@_1M@KPKKNEAH@?$AAp?$AAa?$AA?9?$AAI?$AAN@ 000000018002ad98     libucrt:lcidtoname_downlevel.obj
 0002:00003da8       ??_C@_1M@PJGPPBOG@?$AAg?$AAu?$AA?9?$AAI?$AAN@ 000000018002ada8     libucrt:lcidtoname_downlevel.obj
 0002:00003db8       ??_C@_1M@KMKMOPHI@?$AAt?$AAa?$AA?9?$AAI?$AAN@ 000000018002adb8     libucrt:lcidtoname_downlevel.obj
 0002:00003dc8       ??_C@_1M@KFEHEPAC@?$AAt?$AAe?$AA?9?$AAI?$AAN@ 000000018002adc8     libucrt:lcidtoname_downlevel.obj
 0002:00003dd8       ??_C@_1M@CDCLMGHI@?$AAk?$AAn?$AA?9?$AAI?$AAN@ 000000018002add8     libucrt:lcidtoname_downlevel.obj
 0002:00003de8       ??_C@_1M@MIODLDKF@?$AAm?$AAl?$AA?9?$AAI?$AAN@ 000000018002ade8     libucrt:lcidtoname_downlevel.obj
 0002:00003df8       ??_C@_1M@PBIEACPO@?$AAm?$AAr?$AA?9?$AAI?$AAN@ 000000018002adf8     libucrt:lcidtoname_downlevel.obj
 0002:00003e08       ??_C@_1M@NIDEAGPH@?$AAs?$AAa?$AA?9?$AAI?$AAN@ 000000018002ae08     libucrt:lcidtoname_downlevel.obj
 0002:00003e18       ??_C@_1M@FHIHCBIO@?$AAm?$AAn?$AA?9?$AAM?$AAN@ 000000018002ae18     libucrt:lcidtoname_downlevel.obj
 0002:00003e28       ??_C@_1M@JAIJPENP@?$AAc?$AAy?$AA?9?$AAG?$AAB@ 000000018002ae28     libucrt:lcidtoname_downlevel.obj
 0002:00003e38       ??_C@_1M@PHGFBEPN@?$AAg?$AAl?$AA?9?$AAE?$AAS@ 000000018002ae38     libucrt:lcidtoname_downlevel.obj
 0002:00003e48       ??_C@_1O@KPIPDNCP@?$AAk?$AAo?$AAk?$AA?9?$AAI?$AAN@ 000000018002ae48     libucrt:lcidtoname_downlevel.obj
 0002:00003e58       ??_C@_1O@KNHJLDJA@?$AAs?$AAy?$AAr?$AA?9?$AAS?$AAY@ 000000018002ae58     libucrt:lcidtoname_downlevel.obj
 0002:00003e68       ??_C@_1O@MKEKBLAH@?$AAd?$AAi?$AAv?$AA?9?$AAM?$AAV@ 000000018002ae68     libucrt:lcidtoname_downlevel.obj
 0002:00003e78       ??_C@_1O@OHDCKDDF@?$AAq?$AAu?$AAz?$AA?9?$AAB?$AAO@ 000000018002ae78     libucrt:lcidtoname_downlevel.obj
 0002:00003e88       ??_C@_1M@LEPJNLFD@?$AAn?$AAs?$AA?9?$AAZ?$AAA@ 000000018002ae88     libucrt:lcidtoname_downlevel.obj
 0002:00003e98       ??_C@_1M@OMLEIIJB@?$AAm?$AAi?$AA?9?$AAN?$AAZ@ 000000018002ae98     libucrt:lcidtoname_downlevel.obj
 0002:00003ea8       ??_C@_1M@PMPEAILG@?$AAa?$AAr?$AA?9?$AAI?$AAQ@ 000000018002aea8     libucrt:lcidtoname_downlevel.obj
 0002:00003eb8       ??_C@_1M@CNKPNOEE@?$AAd?$AAe?$AA?9?$AAC?$AAH@ 000000018002aeb8     libucrt:lcidtoname_downlevel.obj
 0002:00003ec8       ??_C@_1M@LKMGMLKO@?$AAe?$AAn?$AA?9?$AAG?$AAB@ 000000018002aec8     libucrt:lcidtoname_downlevel.obj
 0002:00003ed8       ??_C@_1M@PGKJFFGL@?$AAe?$AAs?$AA?9?$AAM?$AAX@ 000000018002aed8     libucrt:lcidtoname_downlevel.obj
 0002:00003ee8       ??_C@_1M@DNNANBDC@?$AAf?$AAr?$AA?9?$AAB?$AAE@ 000000018002aee8     libucrt:lcidtoname_downlevel.obj
 0002:00003ef8       ??_C@_1M@HLGMDFHM@?$AAi?$AAt?$AA?9?$AAC?$AAH@ 000000018002aef8     libucrt:lcidtoname_downlevel.obj
 0002:00003f08       ??_C@_1M@CLLBGJH@?$AAn?$AAl?$AA?9?$AAB?$AAE@ 000000018002af08     libucrt:lcidtoname_downlevel.obj
 0002:00003f18       ??_C@_1M@BODBOGLF@?$AAn?$AAn?$AA?9?$AAN?$AAO@ 000000018002af18     libucrt:lcidtoname_downlevel.obj
 0002:00003f28       ??_C@_1M@HFFAHKAD@?$AAp?$AAt?$AA?9?$AAP?$AAT@ 000000018002af28     libucrt:lcidtoname_downlevel.obj
 0002:00003f38       ??_C@_1BG@LNOAKHIE@?$AAs?$AAr?$AA?9?$AAS?$AAP?$AA?9?$AAL?$AAa?$AAt?$AAn@ 000000018002af38     libucrt:lcidtoname_downlevel.obj
 0002:00003f50       ??_C@_1M@HBMHBGAK@?$AAs?$AAv?$AA?9?$AAF?$AAI@ 000000018002af50     libucrt:lcidtoname_downlevel.obj
 0002:00003f60       ??_C@_1BG@DGCJGJBE@?$AAa?$AAz?$AA?9?$AAA?$AAZ?$AA?9?$AAC?$AAy?$AAr?$AAl@ 000000018002af60     libucrt:lcidtoname_downlevel.obj
 0002:00003f78       ??_C@_1M@KEJDAAHB@?$AAs?$AAe?$AA?9?$AAS?$AAE@ 000000018002af78     libucrt:lcidtoname_downlevel.obj
 0002:00003f88       ??_C@_1M@HEIBJJAD@?$AAm?$AAs?$AA?9?$AAB?$AAN@ 000000018002af88     libucrt:lcidtoname_downlevel.obj
 0002:00003f98       ??_C@_1BG@PBGJMCEM@?$AAu?$AAz?$AA?9?$AAU?$AAZ?$AA?9?$AAC?$AAy?$AAr?$AAl@ 000000018002af98     libucrt:lcidtoname_downlevel.obj
 0002:00003fb0       ??_C@_1O@LAOBCMDF@?$AAq?$AAu?$AAz?$AA?9?$AAE?$AAC@ 000000018002afb0     libucrt:lcidtoname_downlevel.obj
 0002:00003fc0       ??_C@_1M@POEEMAIO@?$AAa?$AAr?$AA?9?$AAE?$AAG@ 000000018002afc0     libucrt:lcidtoname_downlevel.obj
 0002:00003fd0       ??_C@_1M@EFAKDEDL@?$AAz?$AAh?$AA?9?$AAH?$AAK@ 000000018002afd0     libucrt:lcidtoname_downlevel.obj
 0002:00003fe0       ??_C@_1M@HKKIJHGI@?$AAd?$AAe?$AA?9?$AAA?$AAT@ 000000018002afe0     libucrt:lcidtoname_downlevel.obj
 0002:00003ff0       ??_C@_1M@KBFBEHJF@?$AAe?$AAn?$AA?9?$AAA?$AAU@ 000000018002aff0     libucrt:lcidtoname_downlevel.obj
 0002:00004000       ??_C@_1M@MNPLFAAH@?$AAe?$AAs?$AA?9?$AAE?$AAS@ 000000018002b000     libucrt:lcidtoname_downlevel.obj
 0002:00004010       ??_C@_1M@HJOOJFMA@?$AAf?$AAr?$AA?9?$AAC?$AAA@ 000000018002b010     libucrt:lcidtoname_downlevel.obj
 0002:00004020       ??_C@_1BG@JPOFPNAB@?$AAs?$AAr?$AA?9?$AAS?$AAP?$AA?9?$AAC?$AAy?$AAr?$AAl@ 000000018002b020     libucrt:lcidtoname_downlevel.obj
 0002:00004038       ??_C@_1M@LNFOCMOB@?$AAs?$AAe?$AA?9?$AAF?$AAI@ 000000018002b038     libucrt:lcidtoname_downlevel.obj
 0002:00004048       ??_C@_1O@MGJBOAMB@?$AAq?$AAu?$AAz?$AA?9?$AAP?$AAE@ 000000018002b048     libucrt:lcidtoname_downlevel.obj
 0002:00004058       ??_C@_1M@GJINLBOK@?$AAa?$AAr?$AA?9?$AAL?$AAY@ 000000018002b058     libucrt:lcidtoname_downlevel.obj
 0002:00004068       ??_C@_1M@GGMNHJNL@?$AAz?$AAh?$AA?9?$AAS?$AAG@ 000000018002b068     libucrt:lcidtoname_downlevel.obj
 0002:00004078       ??_C@_1M@HOIKODND@?$AAd?$AAe?$AA?9?$AAL?$AAU@ 000000018002b078     libucrt:lcidtoname_downlevel.obj
 0002:00004088       ??_C@_1M@DDOCCGFG@?$AAe?$AAn?$AA?9?$AAC?$AAA@ 000000018002b088     libucrt:lcidtoname_downlevel.obj
 0002:00004098       ??_C@_1M@BNOEMJLF@?$AAe?$AAs?$AA?9?$AAG?$AAT@ 000000018002b098     libucrt:lcidtoname_downlevel.obj
 0002:000040a8       ??_C@_1M@EOGNKEK@?$AAf?$AAr?$AA?9?$AAC?$AAH@ 000000018002b0a8     libucrt:lcidtoname_downlevel.obj
 0002:000040b8       ??_C@_1M@FLIDJFHL@?$AAh?$AAr?$AA?9?$AAB?$AAA@ 000000018002b0b8     libucrt:lcidtoname_downlevel.obj
 0002:000040c8       ??_C@_1O@FMCELNAJ@?$AAs?$AAm?$AAj?$AA?9?$AAN?$AAO@ 000000018002b0c8     libucrt:lcidtoname_downlevel.obj
 0002:000040d8       ??_C@_1M@JHGLJMGJ@?$AAa?$AAr?$AA?9?$AAD?$AAZ@ 000000018002b0d8     libucrt:lcidtoname_downlevel.obj
 0002:000040e8       ??_C@_1M@JKKFDCNP@?$AAz?$AAh?$AA?9?$AAM?$AAO@ 000000018002b0e8     libucrt:lcidtoname_downlevel.obj
 0002:000040f8       ??_C@_1M@GEEFALPE@?$AAd?$AAe?$AA?9?$AAL?$AAI@ 000000018002b0f8     libucrt:lcidtoname_downlevel.obj
 0002:00004108       ??_C@_1M@IGEOFBG@?$AAe?$AAn?$AA?9?$AAN?$AAZ@ 000000018002b108     libucrt:lcidtoname_downlevel.obj
 0002:00004118       ??_C@_1M@KDBONEHP@?$AAe?$AAs?$AA?9?$AAC?$AAR@ 000000018002b118     libucrt:lcidtoname_downlevel.obj
 0002:00004128       ??_C@_1M@FHMDOHNN@?$AAf?$AAr?$AA?9?$AAL?$AAU@ 000000018002b128     libucrt:lcidtoname_downlevel.obj
 0002:00004138       ??_C@_1BG@NFKKMAFG@?$AAb?$AAs?$AA?9?$AAB?$AAA?$AA?9?$AAL?$AAa?$AAt?$AAn@ 000000018002b138     libucrt:lcidtoname_downlevel.obj
 0002:00004150       ??_C@_1O@IMNBEMCI@?$AAs?$AAm?$AAj?$AA?9?$AAS?$AAE@ 000000018002b150     libucrt:lcidtoname_downlevel.obj
 0002:00004160       ??_C@_1M@DHHMBNDP@?$AAa?$AAr?$AA?9?$AAM?$AAA@ 000000018002b160     libucrt:lcidtoname_downlevel.obj
 0002:00004170       ??_C@_1M@BNBLJCGH@?$AAe?$AAn?$AA?9?$AAI?$AAE@ 000000018002b170     libucrt:lcidtoname_downlevel.obj
 0002:00004180       ??_C@_1M@GEPAFMDL@?$AAe?$AAs?$AA?9?$AAP?$AAA@ 000000018002b180     libucrt:lcidtoname_downlevel.obj
 0002:00004190       ??_C@_1M@OJONDMDL@?$AAf?$AAr?$AA?9?$AAM?$AAC@ 000000018002b190     libucrt:lcidtoname_downlevel.obj
 0002:000041a0       ??_C@_1BG@OBCNFJB@?$AAs?$AAr?$AA?9?$AAB?$AAA?$AA?9?$AAL?$AAa?$AAt?$AAn@ 000000018002b1a0     libucrt:lcidtoname_downlevel.obj
 0002:000041b8       ??_C@_1O@KEMEEGPO@?$AAs?$AAm?$AAa?$AA?9?$AAN?$AAO@ 000000018002b1b8     libucrt:lcidtoname_downlevel.obj
 0002:000041c8       ??_C@_1M@ELMGFODK@?$AAa?$AAr?$AA?9?$AAT?$AAN@ 000000018002b1c8     libucrt:lcidtoname_downlevel.obj
 0002:000041d8       ??_C@_1M@BHDLHFAF@?$AAe?$AAn?$AA?9?$AAZ?$AAA@ 000000018002b1d8     libucrt:lcidtoname_downlevel.obj
 0002:000041e8       ??_C@_1M@BMGIGLIF@?$AAe?$AAs?$AA?9?$AAD?$AAO@ 000000018002b1e8     libucrt:lcidtoname_downlevel.obj
 0002:000041f8       ??_C@_1BG@CMBHIPBE@?$AAs?$AAr?$AA?9?$AAB?$AAA?$AA?9?$AAC?$AAy?$AAr?$AAl@ 000000018002b1f8     libucrt:lcidtoname_downlevel.obj
 0002:00004210       ??_C@_1O@HEDBLHNP@?$AAs?$AAm?$AAa?$AA?9?$AAS?$AAE@ 000000018002b210     libucrt:lcidtoname_downlevel.obj
 0002:00004220       ??_C@_1M@DAGCADIM@?$AAa?$AAr?$AA?9?$AAO?$AAM@ 000000018002b220     libucrt:lcidtoname_downlevel.obj
 0002:00004230       ??_C@_1M@FODLMICG@?$AAe?$AAn?$AA?9?$AAJ?$AAM@ 000000018002b230     libucrt:lcidtoname_downlevel.obj
 0002:00004240       ??_C@_1M@DNMLCIHB@?$AAe?$AAs?$AA?9?$AAV?$AAE@ 000000018002b240     libucrt:lcidtoname_downlevel.obj
 0002:00004250       ??_C@_1O@EOKHMKJK@?$AAs?$AAm?$AAs?$AA?9?$AAF?$AAI@ 000000018002b250     libucrt:lcidtoname_downlevel.obj
 0002:00004260       ??_C@_1M@CAFJMKOF@?$AAa?$AAr?$AA?9?$AAY?$AAE@ 000000018002b260     libucrt:lcidtoname_downlevel.obj
 0002:00004270       ??_C@_1M@CBFHIJLI@?$AAe?$AAn?$AA?9?$AAC?$AAB@ 000000018002b270     libucrt:lcidtoname_downlevel.obj
 0002:00004280       ??_C@_1M@BGNFLDN@?$AAe?$AAs?$AA?9?$AAC?$AAO@ 000000018002b280     libucrt:lcidtoname_downlevel.obj
 0002:00004290       ??_C@_1O@JMPHMAMC@?$AAs?$AAm?$AAn?$AA?9?$AAF?$AAI@ 000000018002b290     libucrt:lcidtoname_downlevel.obj
 0002:000042a0       ??_C@_1M@JLANABKE@?$AAa?$AAr?$AA?9?$AAS?$AAY@ 000000018002b2a0     libucrt:lcidtoname_downlevel.obj
 0002:000042b0       ??_C@_1M@HPKGCFGN@?$AAe?$AAn?$AA?9?$AAB?$AAZ@ 000000018002b2b0     libucrt:lcidtoname_downlevel.obj
 0002:000042c0       ??_C@_1M@OLJCMLGM@?$AAe?$AAs?$AA?9?$AAP?$AAE@ 000000018002b2c0     libucrt:lcidtoname_downlevel.obj
 0002:000042d0       ??_C@_1M@MKKGFKLE@?$AAa?$AAr?$AA?9?$AAJ?$AAO@ 000000018002b2d0     libucrt:lcidtoname_downlevel.obj
 0002:000042e0       ??_C@_1M@EKPGLDNI@?$AAe?$AAn?$AA?9?$AAT?$AAT@ 000000018002b2e0     libucrt:lcidtoname_downlevel.obj
 0002:000042f0       ??_C@_1M@OONGHFHE@?$AAe?$AAs?$AA?9?$AAA?$AAR@ 000000018002b2f0     libucrt:lcidtoname_downlevel.obj
 0002:00004300       ??_C@_1M@OOJFGBHE@?$AAa?$AAr?$AA?9?$AAL?$AAB@ 000000018002b300     libucrt:lcidtoname_downlevel.obj
 0002:00004310       ??_C@_1M@GCEJHNEG@?$AAe?$AAn?$AA?9?$AAZ?$AAW@ 000000018002b310     libucrt:lcidtoname_downlevel.obj
 0002:00004320       ??_C@_1M@JNOCAHJI@?$AAe?$AAs?$AA?9?$AAE?$AAC@ 000000018002b320     libucrt:lcidtoname_downlevel.obj
 0002:00004330       ??_C@_1M@JEFHPGGB@?$AAa?$AAr?$AA?9?$AAK?$AAW@ 000000018002b330     libucrt:lcidtoname_downlevel.obj
 0002:00004340       ??_C@_1M@MLKIBJOJ@?$AAe?$AAn?$AA?9?$AAP?$AAH@ 000000018002b340     libucrt:lcidtoname_downlevel.obj
 0002:00004350       ??_C@_1M@BDNIPEND@?$AAe?$AAs?$AA?9?$AAC?$AAL@ 000000018002b350     libucrt:lcidtoname_downlevel.obj
 0002:00004360       ??_C@_1M@MPNMEKBD@?$AAa?$AAr?$AA?9?$AAA?$AAE@ 000000018002b360     libucrt:lcidtoname_downlevel.obj
 0002:00004370       ??_C@_1M@KBJALCPI@?$AAe?$AAs?$AA?9?$AAU?$AAY@ 000000018002b370     libucrt:lcidtoname_downlevel.obj
 0002:00004380       ??_C@_1M@LLCCOAGA@?$AAa?$AAr?$AA?9?$AAB?$AAH@ 000000018002b380     libucrt:lcidtoname_downlevel.obj
 0002:00004390       ??_C@_1M@PBFNCDEL@?$AAe?$AAs?$AA?9?$AAP?$AAY@ 000000018002b390     libucrt:lcidtoname_downlevel.obj
 0002:000043a0       ??_C@_1M@EDGINPNP@?$AAa?$AAr?$AA?9?$AAQ?$AAA@ 000000018002b3a0     libucrt:lcidtoname_downlevel.obj
 0002:000043b0       ??_C@_1M@MKDBIIJI@?$AAe?$AAs?$AA?9?$AAB?$AAO@ 000000018002b3b0     libucrt:lcidtoname_downlevel.obj
 0002:000043c0       ??_C@_1M@CPKKEBLD@?$AAe?$AAs?$AA?9?$AAS?$AAV@ 000000018002b3c0     libucrt:lcidtoname_downlevel.obj
 0002:000043d0       ??_C@_1M@NDBGMMJL@?$AAe?$AAs?$AA?9?$AAH?$AAN@ 000000018002b3d0     libucrt:lcidtoname_downlevel.obj
 0002:000043e0       ??_C@_1M@JIJIBHDP@?$AAe?$AAs?$AA?9?$AAN?$AAI@ 000000018002b3e0     libucrt:lcidtoname_downlevel.obj
 0002:000043f0       ??_C@_1M@CGFMKEEK@?$AAe?$AAs?$AA?9?$AAP?$AAR@ 000000018002b3f0     libucrt:lcidtoname_downlevel.obj
 0002:00004400       ??_C@_1O@ICJHKIIK@?$AAz?$AAh?$AA?9?$AAC?$AAH?$AAT@ 000000018002b400     libucrt:lcidtoname_downlevel.obj
 0002:00004410       ??_C@_15CLNEJCE@?$AAs?$AAr@ 000000018002b410     libucrt:lcidtoname_downlevel.obj
 0002:00005260       ??_C@_1M@KAHEKEIG@?$AAa?$AAf?$AA?9?$AAz?$AAa@ 000000018002c260     libucrt:lcidtoname_downlevel.obj
 0002:00005270       ??_C@_1M@GIECOABL@?$AAa?$AAr?$AA?9?$AAa?$AAe@ 000000018002c270     libucrt:lcidtoname_downlevel.obj
 0002:00005280       ??_C@_1M@BMLMEKGI@?$AAa?$AAr?$AA?9?$AAb?$AAh@ 000000018002c280     libucrt:lcidtoname_downlevel.obj
 0002:00005290       ??_C@_1M@DAPFDGGB@?$AAa?$AAr?$AA?9?$AAd?$AAz@ 000000018002c290     libucrt:lcidtoname_downlevel.obj
 0002:000052a0       ??_C@_1M@FJNKGKIG@?$AAa?$AAr?$AA?9?$AAe?$AAg@ 000000018002c2a0     libucrt:lcidtoname_downlevel.obj
 0002:000052b0       ??_C@_1M@FLGKKCLO@?$AAa?$AAr?$AA?9?$AAi?$AAq@ 000000018002c2b0     libucrt:lcidtoname_downlevel.obj
 0002:000052c0       ??_C@_1M@GNDIPALM@?$AAa?$AAr?$AA?9?$AAj?$AAo@ 000000018002c2c0     libucrt:lcidtoname_downlevel.obj
 0002:000052d0       ??_C@_1M@DDMJFMGJ@?$AAa?$AAr?$AA?9?$AAk?$AAw@ 000000018002c2d0     libucrt:lcidtoname_downlevel.obj
 0002:000052e0       ??_C@_1M@EJALMLHM@?$AAa?$AAr?$AA?9?$AAl?$AAb@ 000000018002c2e0     libucrt:lcidtoname_downlevel.obj
 0002:000052f0       ??_C@_1M@MOBDBLOC@?$AAa?$AAr?$AA?9?$AAl?$AAy@ 000000018002c2f0     libucrt:lcidtoname_downlevel.obj
 0002:00005300       ??_C@_1M@JAOCLHDH@?$AAa?$AAr?$AA?9?$AAm?$AAa@ 000000018002c300     libucrt:lcidtoname_downlevel.obj
 0002:00005310       ??_C@_1M@JHPMKJIE@?$AAa?$AAr?$AA?9?$AAo?$AAm@ 000000018002c310     libucrt:lcidtoname_downlevel.obj
 0002:00005320       ??_C@_1M@OEPGHFNH@?$AAa?$AAr?$AA?9?$AAq?$AAa@ 000000018002c320     libucrt:lcidtoname_downlevel.obj
 0002:00005330       ??_C@_1M@KJDONENM@?$AAa?$AAr?$AA?9?$AAs?$AAa@ 000000018002c330     libucrt:lcidtoname_downlevel.obj
 0002:00005340       ??_C@_1M@DMJDKLKM@?$AAa?$AAr?$AA?9?$AAs?$AAy@ 000000018002c340     libucrt:lcidtoname_downlevel.obj
 0002:00005350       ??_C@_1M@OMFIPEDC@?$AAa?$AAr?$AA?9?$AAt?$AAn@ 000000018002c350     libucrt:lcidtoname_downlevel.obj
 0002:00005360       ??_C@_1M@IHMHGAON@?$AAa?$AAr?$AA?9?$AAy?$AAe@ 000000018002c360     libucrt:lcidtoname_downlevel.obj
 0002:00005370       ??_C@_1BG@KDCPGJGB@?$AAa?$AAz?$AA?9?$AAa?$AAz?$AA?9?$AAc?$AAy?$AAr?$AAl@ 000000018002c370     libucrt:lcidtoname_downlevel.obj
 0002:00005388       ??_C@_1BG@IBCKDDOE@?$AAa?$AAz?$AA?9?$AAa?$AAz?$AA?9?$AAl?$AAa?$AAt?$AAn@ 000000018002c388     libucrt:lcidtoname_downlevel.obj
 0002:000053a0       ??_C@_1M@EGPFDCPD@?$AAb?$AAe?$AA?9?$AAb?$AAy@ 000000018002c3a0     libucrt:lcidtoname_downlevel.obj
 0002:000053b0       ??_C@_1M@PCMGMCGC@?$AAb?$AAg?$AA?9?$AAb?$AAg@ 000000018002c3b0     libucrt:lcidtoname_downlevel.obj
 0002:000053c0       ??_C@_1M@BJBMFGOB@?$AAb?$AAn?$AA?9?$AAi?$AAn@ 000000018002c3c0     libucrt:lcidtoname_downlevel.obj
 0002:000053d0       ??_C@_1BG@EAKMMACD@?$AAb?$AAs?$AA?9?$AAb?$AAa?$AA?9?$AAl?$AAa?$AAt?$AAn@ 000000018002c3d0     libucrt:lcidtoname_downlevel.obj
 0002:000053e8       ??_C@_1M@KGADAODK@?$AAc?$AAa?$AA?9?$AAe?$AAs@ 000000018002c3e8     libucrt:lcidtoname_downlevel.obj
 0002:000053f8       ??_C@_1M@COAJPDHI@?$AAc?$AAs?$AA?9?$AAc?$AAz@ 000000018002c3f8     libucrt:lcidtoname_downlevel.obj
 0002:00005408       ??_C@_1M@DHBHFONH@?$AAc?$AAy?$AA?9?$AAg?$AAb@ 000000018002c408     libucrt:lcidtoname_downlevel.obj
 0002:00005418       ??_C@_1M@IMGKELGA@?$AAd?$AAa?$AA?9?$AAd?$AAk@ 000000018002c418     libucrt:lcidtoname_downlevel.obj
 0002:00005428       ??_C@_1M@NNDGDNGA@?$AAd?$AAe?$AA?9?$AAa?$AAt@ 000000018002c428     libucrt:lcidtoname_downlevel.obj
 0002:00005438       ??_C@_1M@IKDBHEEM@?$AAd?$AAe?$AA?9?$AAc?$AAh@ 000000018002c438     libucrt:lcidtoname_downlevel.obj
 0002:00005448       ??_C@_1M@GFFOJMCJ@?$AAd?$AAe?$AA?9?$AAd?$AAe@ 000000018002c448     libucrt:lcidtoname_downlevel.obj
 0002:00005458       ??_C@_1M@MDNLKBPM@?$AAd?$AAe?$AA?9?$AAl?$AAi@ 000000018002c458     libucrt:lcidtoname_downlevel.obj
 0002:00005468       ??_C@_1M@NJBEEJNL@?$AAd?$AAe?$AA?9?$AAl?$AAu@ 000000018002c468     libucrt:lcidtoname_downlevel.obj
 0002:00005478       ??_C@_1O@GNNELBAP@?$AAd?$AAi?$AAv?$AA?9?$AAm?$AAv@ 000000018002c478     libucrt:lcidtoname_downlevel.obj
 0002:00005488       ??_C@_1M@EJLEOGAE@?$AAe?$AAl?$AA?9?$AAg?$AAr@ 000000018002c488     libucrt:lcidtoname_downlevel.obj
 0002:00005498       ??_C@_1M@GMPONJN@?$AAe?$AAn?$AA?9?$AAa?$AAu@ 000000018002c498     libucrt:lcidtoname_downlevel.obj
 0002:000054a8       ??_C@_1M@NIDIIPGF@?$AAe?$AAn?$AA?9?$AAb?$AAz@ 000000018002c4a8     libucrt:lcidtoname_downlevel.obj
 0002:000054b8       ??_C@_1M@JEHMIMFO@?$AAe?$AAn?$AA?9?$AAc?$AAa@ 000000018002c4b8     libucrt:lcidtoname_downlevel.obj
 0002:000054c8       ??_C@_1M@IGMJCDLA@?$AAe?$AAn?$AA?9?$AAc?$AAb@ 000000018002c4c8     libucrt:lcidtoname_downlevel.obj
 0002:000054d8       ??_C@_1M@BNFIGBKG@?$AAe?$AAn?$AA?9?$AAg?$AAb@ 000000018002c4d8     libucrt:lcidtoname_downlevel.obj
 0002:000054e8       ??_C@_1M@LKIFDIGP@?$AAe?$AAn?$AA?9?$AAi?$AAe@ 000000018002c4e8     libucrt:lcidtoname_downlevel.obj
 0002:000054f8       ??_C@_1M@PJKFGCCO@?$AAe?$AAn?$AA?9?$AAj?$AAm@ 000000018002c4f8     libucrt:lcidtoname_downlevel.obj
 0002:00005508       ??_C@_1M@KPPKEPBO@?$AAe?$AAn?$AA?9?$AAn?$AAz@ 000000018002c508     libucrt:lcidtoname_downlevel.obj
 0002:00005518       ??_C@_1M@GMDGLDOB@?$AAe?$AAn?$AA?9?$AAp?$AAh@ 000000018002c518     libucrt:lcidtoname_downlevel.obj
 0002:00005528       ??_C@_1M@ONGIBJNA@?$AAe?$AAn?$AA?9?$AAt?$AAt@ 000000018002c528     libucrt:lcidtoname_downlevel.obj
 0002:00005538       ??_C@_1M@LLODPCMM@?$AAe?$AAn?$AA?9?$AAu?$AAs@ 000000018002c538     libucrt:lcidtoname_downlevel.obj
 0002:00005548       ??_C@_1M@LAKFNPAN@?$AAe?$AAn?$AA?9?$AAz?$AAa@ 000000018002c548     libucrt:lcidtoname_downlevel.obj
 0002:00005558       ??_C@_1M@MFNHNHEO@?$AAe?$AAn?$AA?9?$AAz?$AAw@ 000000018002c558     libucrt:lcidtoname_downlevel.obj
 0002:00005568       ??_C@_1M@EJEINPHM@?$AAe?$AAs?$AA?9?$AAa?$AAr@ 000000018002c568     libucrt:lcidtoname_downlevel.obj
 0002:00005578       ??_C@_1M@GNKPCCJA@?$AAe?$AAs?$AA?9?$AAb?$AAo@ 000000018002c578     libucrt:lcidtoname_downlevel.obj
 0002:00005588       ??_C@_1M@LEEGFONL@?$AAe?$AAs?$AA?9?$AAc?$AAl@ 000000018002c588     libucrt:lcidtoname_downlevel.obj
 0002:00005598       ??_C@_1M@KGPDPBDF@?$AAe?$AAs?$AA?9?$AAc?$AAo@ 000000018002c598     libucrt:lcidtoname_downlevel.obj
 0002:000055a8       ??_C@_1M@EIAHOHH@?$AAe?$AAs?$AA?9?$AAc?$AAr@ 000000018002c5a8     libucrt:lcidtoname_downlevel.obj
 0002:000055b8       ??_C@_1M@LLPGMBIN@?$AAe?$AAs?$AA?9?$AAd?$AAo@ 000000018002c5b8     libucrt:lcidtoname_downlevel.obj
 0002:000055c8       ??_C@_1M@DKHMKNJA@?$AAe?$AAs?$AA?9?$AAe?$AAc@ 000000018002c5c8     libucrt:lcidtoname_downlevel.obj
 0002:000055d8       ??_C@_1M@GKGFPKAP@?$AAe?$AAs?$AA?9?$AAe?$AAs@ 000000018002c5d8     libucrt:lcidtoname_downlevel.obj
 0002:000055e8       ??_C@_1M@LKHKGDLN@?$AAe?$AAs?$AA?9?$AAg?$AAt@ 000000018002c5e8     libucrt:lcidtoname_downlevel.obj
 0002:000055f8       ??_C@_1M@HEIIGGJD@?$AAe?$AAs?$AA?9?$AAh?$AAn@ 000000018002c5f8     libucrt:lcidtoname_downlevel.obj
 0002:00005608       ??_C@_1M@FBDHPPGD@?$AAe?$AAs?$AA?9?$AAm?$AAx@ 000000018002c608     libucrt:lcidtoname_downlevel.obj
 0002:00005618       ??_C@_1M@DPAGLNDH@?$AAe?$AAs?$AA?9?$AAn?$AAi@ 000000018002c618     libucrt:lcidtoname_downlevel.obj
 0002:00005628       ??_C@_1M@MDGOPGDD@?$AAe?$AAs?$AA?9?$AAp?$AAa@ 000000018002c628     libucrt:lcidtoname_downlevel.obj
 0002:00005638       ??_C@_1M@EMAMGBGE@?$AAe?$AAs?$AA?9?$AAp?$AAe@ 000000018002c638     libucrt:lcidtoname_downlevel.obj
 0002:00005648       ??_C@_1M@IBMCAOEC@?$AAe?$AAs?$AA?9?$AAp?$AAr@ 000000018002c648     libucrt:lcidtoname_downlevel.obj
 0002:00005658       ??_C@_1M@FGMDIJED@?$AAe?$AAs?$AA?9?$AAp?$AAy@ 000000018002c658     libucrt:lcidtoname_downlevel.obj
 0002:00005668       ??_C@_1M@IIDEOLLL@?$AAe?$AAs?$AA?9?$AAs?$AAv@ 000000018002c668     libucrt:lcidtoname_downlevel.obj
 0002:00005678       ??_C@_1M@GAOBIPA@?$AAe?$AAs?$AA?9?$AAu?$AAy@ 000000018002c678     libucrt:lcidtoname_downlevel.obj
 0002:00005688       ??_C@_1M@JKFFICHJ@?$AAe?$AAs?$AA?9?$AAv?$AAe@ 000000018002c688     libucrt:lcidtoname_downlevel.obj
 0002:00005698       ??_C@_1M@PNMLOJDF@?$AAe?$AAt?$AA?9?$AAe?$AAe@ 000000018002c698     libucrt:lcidtoname_downlevel.obj
 0002:000056a8       ??_C@_1M@GHHLIKEI@?$AAe?$AAu?$AA?9?$AAe?$AAs@ 000000018002c6a8     libucrt:lcidtoname_downlevel.obj
 0002:000056b8       ??_C@_1M@PBNONODE@?$AAf?$AAa?$AA?9?$AAi?$AAr@ 000000018002c6b8     libucrt:lcidtoname_downlevel.obj
 0002:000056c8       ??_C@_1M@JEEHPMIL@?$AAf?$AAi?$AA?9?$AAf?$AAi@ 000000018002c6c8     libucrt:lcidtoname_downlevel.obj
 0002:000056d8       ??_C@_1M@LMDCNDBA@?$AAf?$AAo?$AA?9?$AAf?$AAo@ 000000018002c6d8     libucrt:lcidtoname_downlevel.obj
 0002:000056e8       ??_C@_1M@JKEOHLDK@?$AAf?$AAr?$AA?9?$AAb?$AAe@ 000000018002c6e8     libucrt:lcidtoname_downlevel.obj
 0002:000056f8       ??_C@_1M@NOHADPMI@?$AAf?$AAr?$AA?9?$AAc?$AAa@ 000000018002c6f8     libucrt:lcidtoname_downlevel.obj
 0002:00005708       ??_C@_1M@KDHIHAEC@?$AAf?$AAr?$AA?9?$AAc?$AAh@ 000000018002c708     libucrt:lcidtoname_downlevel.obj
 0002:00005718       ??_C@_1M@MMBBFGAK@?$AAf?$AAr?$AA?9?$AAf?$AAr@ 000000018002c718     libucrt:lcidtoname_downlevel.obj
 0002:00005728       ??_C@_1M@PAFNENNF@?$AAf?$AAr?$AA?9?$AAl?$AAu@ 000000018002c728     libucrt:lcidtoname_downlevel.obj
 0002:00005738       ??_C@_1M@EOHDJGDD@?$AAf?$AAr?$AA?9?$AAm?$AAc@ 000000018002c738     libucrt:lcidtoname_downlevel.obj
 0002:00005748       ??_C@_1M@FAPLLOPF@?$AAg?$AAl?$AA?9?$AAe?$AAs@ 000000018002c748     libucrt:lcidtoname_downlevel.obj
 0002:00005758       ??_C@_1M@FOPBFLOO@?$AAg?$AAu?$AA?9?$AAi?$AAn@ 000000018002c758     libucrt:lcidtoname_downlevel.obj
 0002:00005768       ??_C@_1M@KBMCINPM@?$AAh?$AAe?$AA?9?$AAi?$AAl@ 000000018002c768     libucrt:lcidtoname_downlevel.obj
 0002:00005778       ??_C@_1M@BBPHKFPJ@?$AAh?$AAi?$AA?9?$AAi?$AAn@ 000000018002c778     libucrt:lcidtoname_downlevel.obj
 0002:00005788       ??_C@_1M@PMBNDPHD@?$AAh?$AAr?$AA?9?$AAb?$AAa@ 000000018002c788     libucrt:lcidtoname_downlevel.obj
 0002:00005798       ??_C@_1M@BPCKOEGE@?$AAh?$AAr?$AA?9?$AAh?$AAr@ 000000018002c798     libucrt:lcidtoname_downlevel.obj
 0002:000057a8       ??_C@_1M@GACBMHKE@?$AAh?$AAu?$AA?9?$AAh?$AAu@ 000000018002c7a8     libucrt:lcidtoname_downlevel.obj
 0002:000057b8       ??_C@_1M@MILPAJJC@?$AAh?$AAy?$AA?9?$AAa?$AAm@ 000000018002c7b8     libucrt:lcidtoname_downlevel.obj
 0002:000057c8       ??_C@_1M@BABBICEC@?$AAi?$AAd?$AA?9?$AAi?$AAd@ 000000018002c7c8     libucrt:lcidtoname_downlevel.obj
 0002:000057d8       ??_C@_1M@BIKNHHPF@?$AAi?$AAs?$AA?9?$AAi?$AAs@ 000000018002c7d8     libucrt:lcidtoname_downlevel.obj
 0002:000057e8       ??_C@_1M@NMPCJPHE@?$AAi?$AAt?$AA?9?$AAc?$AAh@ 000000018002c7e8     libucrt:lcidtoname_downlevel.obj
 0002:000057f8       ??_C@_1M@GHKGFEDF@?$AAi?$AAt?$AA?9?$AAi?$AAt@ 000000018002c7f8     libucrt:lcidtoname_downlevel.obj
 0002:00005808       ??_C@_1M@NIEJCJJA@?$AAj?$AAa?$AA?9?$AAj?$AAp@ 000000018002c808     libucrt:lcidtoname_downlevel.obj
 0002:00005818       ??_C@_1M@JILFNBIM@?$AAk?$AAa?$AA?9?$AAg?$AAe@ 000000018002c818     libucrt:lcidtoname_downlevel.obj
 0002:00005828       ??_C@_1M@PACPMGPH@?$AAk?$AAk?$AA?9?$AAk?$AAz@ 000000018002c828     libucrt:lcidtoname_downlevel.obj
 0002:00005838       ??_C@_1M@IELFGMHA@?$AAk?$AAn?$AA?9?$AAi?$AAn@ 000000018002c838     libucrt:lcidtoname_downlevel.obj
 0002:00005848       ??_C@_1O@IBBJHCH@?$AAk?$AAo?$AAk?$AA?9?$AAi?$AAn@ 000000018002c848     libucrt:lcidtoname_downlevel.obj
 0002:00005858       ??_C@_1M@DMHAEOGC@?$AAk?$AAo?$AA?9?$AAk?$AAr@ 000000018002c858     libucrt:lcidtoname_downlevel.obj
 0002:00005868       ??_C@_1M@HBAHBIGA@?$AAk?$AAy?$AA?9?$AAk?$AAg@ 000000018002c868     libucrt:lcidtoname_downlevel.obj
 0002:00005878       ??_C@_1M@KPMILCJG@?$AAl?$AAt?$AA?9?$AAl?$AAt@ 000000018002c878     libucrt:lcidtoname_downlevel.obj
 0002:00005888       ??_C@_1M@BDEKKCA@?$AAl?$AAv?$AA?9?$AAl?$AAv@ 000000018002c888     libucrt:lcidtoname_downlevel.obj
 0002:00005898       ??_C@_1M@ELCKCCJJ@?$AAm?$AAi?$AA?9?$AAn?$AAz@ 000000018002c898     libucrt:lcidtoname_downlevel.obj
 0002:000058a8       ??_C@_1M@CBOOLAPA@?$AAm?$AAk?$AA?9?$AAm?$AAk@ 000000018002c8a8     libucrt:lcidtoname_downlevel.obj
 0002:000058b8       ??_C@_1M@GPHNBJKN@?$AAm?$AAl?$AA?9?$AAi?$AAn@ 000000018002c8b8     libucrt:lcidtoname_downlevel.obj
 0002:000058c8       ??_C@_1M@PABJILIG@?$AAm?$AAn?$AA?9?$AAm?$AAn@ 000000018002c8c8     libucrt:lcidtoname_downlevel.obj
 0002:000058d8       ??_C@_1M@FGBKKIPG@?$AAm?$AAr?$AA?9?$AAi?$AAn@ 000000018002c8d8     libucrt:lcidtoname_downlevel.obj
 0002:000058e8       ??_C@_1M@NDBPDDAL@?$AAm?$AAs?$AA?9?$AAb?$AAn@ 000000018002c8e8     libucrt:lcidtoname_downlevel.obj
 0002:000058f8       ??_C@_1M@OPIHOOPI@?$AAm?$AAs?$AA?9?$AAm?$AAy@ 000000018002c8f8     libucrt:lcidtoname_downlevel.obj
 0002:00005908       ??_C@_1M@PPDBCNFM@?$AAm?$AAt?$AA?9?$AAm?$AAt@ 000000018002c908     libucrt:lcidtoname_downlevel.obj
 0002:00005918       ??_C@_1M@KDJDKMDD@?$AAn?$AAb?$AA?9?$AAn?$AAo@ 000000018002c918     libucrt:lcidtoname_downlevel.obj
 0002:00005928       ??_C@_1M@KFCFLMJP@?$AAn?$AAl?$AA?9?$AAb?$AAe@ 000000018002c928     libucrt:lcidtoname_downlevel.obj
 0002:00005938       ??_C@_1M@KPOPDDGO@?$AAn?$AAl?$AA?9?$AAn?$AAl@ 000000018002c938     libucrt:lcidtoname_downlevel.obj
 0002:00005948       ??_C@_1M@LJKPEMLN@?$AAn?$AAn?$AA?9?$AAn?$AAo@ 000000018002c948     libucrt:lcidtoname_downlevel.obj
 0002:00005958       ??_C@_1M@BDGHHBFL@?$AAn?$AAs?$AA?9?$AAz?$AAa@ 000000018002c958     libucrt:lcidtoname_downlevel.obj
 0002:00005968       ??_C@_1M@IDEHOAP@?$AAp?$AAa?$AA?9?$AAi?$AAn@ 000000018002c968     libucrt:lcidtoname_downlevel.obj
 0002:00005978       ??_C@_1M@HDBKGOGH@?$AAp?$AAl?$AA?9?$AAp?$AAl@ 000000018002c978     libucrt:lcidtoname_downlevel.obj
 0002:00005988       ??_C@_1M@LJLLCMEH@?$AAp?$AAt?$AA?9?$AAb?$AAr@ 000000018002c988     libucrt:lcidtoname_downlevel.obj
 0002:00005998       ??_C@_1M@NCMONAAL@?$AAp?$AAt?$AA?9?$AAp?$AAt@ 000000018002c998     libucrt:lcidtoname_downlevel.obj
 0002:000059a8       ??_C@_1O@EAKMAJDN@?$AAq?$AAu?$AAz?$AA?9?$AAb?$AAo@ 000000018002c9a8     libucrt:lcidtoname_downlevel.obj
 0002:000059b8       ??_C@_1O@BHHPIGDN@?$AAq?$AAu?$AAz?$AA?9?$AAe?$AAc@ 000000018002c9b8     libucrt:lcidtoname_downlevel.obj
 0002:000059c8       ??_C@_1O@GBAPEKMJ@?$AAq?$AAu?$AAz?$AA?9?$AAp?$AAe@ 000000018002c9c8     libucrt:lcidtoname_downlevel.obj
 0002:000059d8       ??_C@_1M@CLGLEFBO@?$AAr?$AAo?$AA?9?$AAr?$AAo@ 000000018002c9d8     libucrt:lcidtoname_downlevel.obj
 0002:000059e8       ??_C@_1M@CEEDODME@?$AAr?$AAu?$AA?9?$AAr?$AAu@ 000000018002c9e8     libucrt:lcidtoname_downlevel.obj
 0002:000059f8       ??_C@_1M@HPKKKMPP@?$AAs?$AAa?$AA?9?$AAi?$AAn@ 000000018002c9f8     libucrt:lcidtoname_downlevel.obj
 0002:00005a08       ??_C@_1M@BKMAIGOJ@?$AAs?$AAe?$AA?9?$AAf?$AAi@ 000000018002ca08     libucrt:lcidtoname_downlevel.obj
 0002:00005a18       ??_C@_1M@NDPIFLFI@?$AAs?$AAe?$AA?9?$AAn?$AAo@ 000000018002ca18     libucrt:lcidtoname_downlevel.obj
 0002:00005a28       ??_C@_1M@DANKKHJ@?$AAs?$AAe?$AA?9?$AAs?$AAe@ 000000018002ca28     libucrt:lcidtoname_downlevel.obj
 0002:00005a38       ??_C@_1M@PNBLONPJ@?$AAs?$AAk?$AA?9?$AAs?$AAk@ 000000018002ca38     libucrt:lcidtoname_downlevel.obj
 0002:00005a48       ??_C@_1M@LFMODOAL@?$AAs?$AAl?$AA?9?$AAs?$AAi@ 000000018002ca48     libucrt:lcidtoname_downlevel.obj
 0002:00005a58       ??_C@_1O@DFKOMPG@?$AAs?$AAm?$AAa?$AA?9?$AAn?$AAo@ 000000018002ca58     libucrt:lcidtoname_downlevel.obj
 0002:00005a68       ??_C@_1O@NDKPBNNH@?$AAs?$AAm?$AAa?$AA?9?$AAs?$AAe@ 000000018002ca68     libucrt:lcidtoname_downlevel.obj
 0002:00005a78       ??_C@_1O@PLLKBHAB@?$AAs?$AAm?$AAj?$AA?9?$AAn?$AAo@ 000000018002ca78     libucrt:lcidtoname_downlevel.obj
 0002:00005a88       ??_C@_1O@CLEPOGCA@?$AAs?$AAm?$AAj?$AA?9?$AAs?$AAe@ 000000018002ca88     libucrt:lcidtoname_downlevel.obj
 0002:00005a98       ??_C@_1O@DLGJGKMK@?$AAs?$AAm?$AAn?$AA?9?$AAf?$AAi@ 000000018002ca98     libucrt:lcidtoname_downlevel.obj
 0002:00005aa8       ??_C@_1O@OJDJGAJC@?$AAs?$AAm?$AAs?$AA?9?$AAf?$AAi@ 000000018002caa8     libucrt:lcidtoname_downlevel.obj
 0002:00005ab8       ??_C@_1M@BOFOGHPB@?$AAs?$AAq?$AA?9?$AAa?$AAl@ 000000018002cab8     libucrt:lcidtoname_downlevel.obj
 0002:00005ac8       ??_C@_1BG@LJBBIPGB@?$AAs?$AAr?$AA?9?$AAb?$AAa?$AA?9?$AAc?$AAy?$AAr?$AAl@ 000000018002cac8     libucrt:lcidtoname_downlevel.obj
 0002:00005ae0       ??_C@_1BG@JLBENFOE@?$AAs?$AAr?$AA?9?$AAb?$AAa?$AA?9?$AAl?$AAa?$AAt?$AAn@ 000000018002cae0     libucrt:lcidtoname_downlevel.obj
 0002:00005af8       ??_C@_1BG@KODPNHE@?$AAs?$AAr?$AA?9?$AAs?$AAp?$AA?9?$AAc?$AAy?$AAr?$AAl@ 000000018002caf8     libucrt:lcidtoname_downlevel.obj
 0002:00005b10       ??_C@_1BG@CIOGKHPB@?$AAs?$AAr?$AA?9?$AAs?$AAp?$AA?9?$AAl?$AAa?$AAt?$AAn@ 000000018002cb10     libucrt:lcidtoname_downlevel.obj
 0002:00005b28       ??_C@_1M@NGFJLMAC@?$AAs?$AAv?$AA?9?$AAf?$AAi@ 000000018002cb28     libucrt:lcidtoname_downlevel.obj
 0002:00005b38       ??_C@_1M@MPJEJAJC@?$AAs?$AAv?$AA?9?$AAs?$AAe@ 000000018002cb38     libucrt:lcidtoname_downlevel.obj
 0002:00005b48       ??_C@_1M@MPNDHLFK@?$AAs?$AAw?$AA?9?$AAk?$AAe@ 000000018002cb48     libucrt:lcidtoname_downlevel.obj
 0002:00005b58       ??_C@_1O@KOHBJJI@?$AAs?$AAy?$AAr?$AA?9?$AAs?$AAy@ 000000018002cb58     libucrt:lcidtoname_downlevel.obj
 0002:00005b68       ??_C@_1M@LDCEFHA@?$AAt?$AAa?$AA?9?$AAi?$AAn@ 000000018002cb68     libucrt:lcidtoname_downlevel.obj
 0002:00005b78       ??_C@_1M@CNJOFAK@?$AAt?$AAe?$AA?9?$AAi?$AAn@ 000000018002cb78     libucrt:lcidtoname_downlevel.obj
 0002:00005b88       ??_C@_1M@GNAECACD@?$AAt?$AAh?$AA?9?$AAt?$AAh@ 000000018002cb88     libucrt:lcidtoname_downlevel.obj
 0002:00005b98       ??_C@_1M@CHBIHOJO@?$AAt?$AAn?$AA?9?$AAz?$AAa@ 000000018002cb98     libucrt:lcidtoname_downlevel.obj
 0002:00005ba8       ??_C@_1M@GCCMIGPJ@?$AAt?$AAr?$AA?9?$AAt?$AAr@ 000000018002cba8     libucrt:lcidtoname_downlevel.obj
 0002:00005bb8       ??_C@_1M@CELMCNBK@?$AAt?$AAt?$AA?9?$AAr?$AAu@ 000000018002cbb8     libucrt:lcidtoname_downlevel.obj
 0002:00005bc8       ??_C@_1M@KLMCELGA@?$AAu?$AAk?$AA?9?$AAu?$AAa@ 000000018002cbc8     libucrt:lcidtoname_downlevel.obj
 0002:00005bd8       ??_C@_1M@EPAJJAJF@?$AAu?$AAr?$AA?9?$AAp?$AAk@ 000000018002cbd8     libucrt:lcidtoname_downlevel.obj
 0002:00005be8       ??_C@_1BG@GEGPMCDJ@?$AAu?$AAz?$AA?9?$AAu?$AAz?$AA?9?$AAc?$AAy?$AAr?$AAl@ 000000018002cbe8     libucrt:lcidtoname_downlevel.obj
 0002:00005c00       ??_C@_1BG@EGGKJILM@?$AAu?$AAz?$AA?9?$AAu?$AAz?$AA?9?$AAl?$AAa?$AAt?$AAn@ 000000018002cc00     libucrt:lcidtoname_downlevel.obj
 0002:00005c18       ??_C@_1M@GFOCLFF@?$AAv?$AAi?$AA?9?$AAv?$AAn@ 000000018002cc18     libucrt:lcidtoname_downlevel.obj
 0002:00005c28       ??_C@_1M@CPAMEDFI@?$AAx?$AAh?$AA?9?$AAz?$AAa@ 000000018002cc28     libucrt:lcidtoname_downlevel.obj
 0002:00005c38       ??_C@_1O@EBKIFIGN@?$AAz?$AAh?$AA?9?$AAc?$AAh?$AAs@ 000000018002cc38     libucrt:lcidtoname_downlevel.obj
 0002:00005c48       ??_C@_1O@NMHPGANE@?$AAz?$AAh?$AA?9?$AAc?$AAh?$AAt@ 000000018002cc48     libucrt:lcidtoname_downlevel.obj
 0002:00005c58       ??_C@_1M@LPINJOMC@?$AAz?$AAh?$AA?9?$AAc?$AAn@ 000000018002cc58     libucrt:lcidtoname_downlevel.obj
 0002:00005c68       ??_C@_1M@OCJEJODD@?$AAz?$AAh?$AA?9?$AAh?$AAk@ 000000018002cc68     libucrt:lcidtoname_downlevel.obj
 0002:00005c78       ??_C@_1M@DNDLJINH@?$AAz?$AAh?$AA?9?$AAm?$AAo@ 000000018002cc78     libucrt:lcidtoname_downlevel.obj
 0002:00005c88       ??_C@_1M@MBFDNDND@?$AAz?$AAh?$AA?9?$AAs?$AAg@ 000000018002cc88     libucrt:lcidtoname_downlevel.obj
 0002:00005c98       ??_C@_1M@IMEPLEPE@?$AAz?$AAh?$AA?9?$AAt?$AAw@ 000000018002cc98     libucrt:lcidtoname_downlevel.obj
 0002:00005ca8       ??_C@_1M@BBGHNHJP@?$AAz?$AAu?$AA?9?$AAz?$AAa@ 000000018002cca8     libucrt:lcidtoname_downlevel.obj
 0002:00005f10       ??_C@_1BA@BALFACEM@?$AAC?$AAO?$AAN?$AAO?$AAU?$AAT?$AA$@ 000000018002cf10     libucrt:initcon.obj
 0002:00005f20       __log10_256_lead           000000018002cf20     libucrt:log10_256_lead_tail_table.obj
 0002:00006730       __log10_256_tail           000000018002d730     libucrt:log10_256_lead_tail_table.obj
 0002:00006f40       __log_F_inv_qword          000000018002df40     libucrt:log_f_inv_qword_table.obj
 0002:00007750       ??_C@_05HGHHAHAP@log10@    000000018002e750     libucrt:log_special.obj
 0002:00007770       ??_C@_0N@PEOMNEPL@calculateNFP@ 000000018002e770     addon.obj
 0002:00007780       ??_C@_0EH@CCEFDNIM@C?3?2Users?2chris?2Documents?2Person@ 000000018002e780     addon.obj
 0002:000077c8       ??_C@_05ONJGPJEO@addon@    000000018002e7c8     addon.obj
 0002:000077d8       ??_C@_0BC@BDKFLDHL@unknown?5exception@ 000000018002e7d8     minkowski.obj
 0002:000077f0       ??_C@_0BF@KINCDENJ@bad?5array?5new?5length@ 000000018002e7f0     minkowski.obj
 0002:00007808       ??_C@_0BB@GCADKGJO@map?1set?5too?5long@ 000000018002e808     minkowski.obj
 0002:0000781c       ??_C@_01FHEEJDEE@A@        000000018002e81c     minkowski.obj
 0002:00007820       ??_C@_01HMGJMAIH@B@        000000018002e820     minkowski.obj
 0002:00007824       ??_C@_01FJMABOPO@x@        000000018002e824     minkowski.obj
 0002:00007828       ??_C@_01EANLCPLP@y@        000000018002e828     minkowski.obj
 0002:00007830       ??_C@_08GOINNFB@children@  000000018002e830     minkowski.obj
 0002:00007840       ??_C@_0BA@FOIKENOD@vector?5too?5long@ 000000018002e840     minkowski.obj
 0002:00007850       ??_C@_0O@NKNMEGII@list?5too?5long@ 000000018002e850     minkowski.obj
 0002:00007860       ??_7exception@stdext@@6B@  000000018002e860     minkowski.obj
 0002:00007878       ??_7bad_array_new_length@stdext@@6B@ 000000018002e878     minkowski.obj
 0002:00007890       __real@3fe0000000000000    000000018002e890     minkowski.obj
 0002:00007898       __real@3ff0000000000000    000000018002e898     minkowski.obj
 0002:000078a0       __real@41a999999fcccccd    000000018002e8a0     minkowski.obj
 0002:000078b0       __xmm@7fffffffffffffff7fffffffffffffff 000000018002e8b0     minkowski.obj
 0002:00007920       _load_config_used          000000018002e920     LIBCMT:loadcfg.obj
 0002:00007a80       ??_R4exception@std@@6B@    000000018002ea80     libcpmt:xthrow.obj
 0002:00007aa8       ??_R3exception@std@@8      000000018002eaa8     libcpmt:xthrow.obj
 0002:00007ac0       ??_R2exception@std@@8      000000018002eac0     libcpmt:xthrow.obj
 0002:00007ad0       ??_R1A@?0A@EA@exception@std@@8 000000018002ead0     libcpmt:xthrow.obj
 0002:00007af8       ??_R4bad_alloc@std@@6B@    000000018002eaf8     libcpmt:xthrow.obj
 0002:00007b20       ??_R3bad_alloc@std@@8      000000018002eb20     libcpmt:xthrow.obj
 0002:00007b38       ??_R2bad_alloc@std@@8      000000018002eb38     libcpmt:xthrow.obj
 0002:00007b50       ??_R1A@?0A@EA@bad_alloc@std@@8 000000018002eb50     libcpmt:xthrow.obj
 0002:00007b78       ??_R4logic_error@std@@6B@  000000018002eb78     libcpmt:xthrow.obj
 0002:00007ba0       ??_R3logic_error@std@@8    000000018002eba0     libcpmt:xthrow.obj
 0002:00007bb8       ??_R2logic_error@std@@8    000000018002ebb8     libcpmt:xthrow.obj
 0002:00007bd0       ??_R1A@?0A@EA@logic_error@std@@8 000000018002ebd0     libcpmt:xthrow.obj
 0002:00007bf8       ??_R4length_error@std@@6B@ 000000018002ebf8     libcpmt:xthrow.obj
 0002:00007c20       ??_R3length_error@std@@8   000000018002ec20     libcpmt:xthrow.obj
 0002:00007c38       ??_R2length_error@std@@8   000000018002ec38     libcpmt:xthrow.obj
 0002:00007c58       ??_R1A@?0A@EA@length_error@std@@8 000000018002ec58     libcpmt:xthrow.obj
 0002:00007c80       ??_R4type_info@@6B@        000000018002ec80     LIBCMT:std_type_info_static.obj
 0002:00007ca8       ??_R3type_info@@8          000000018002eca8     LIBCMT:std_type_info_static.obj
 0002:00007cc0       ??_R2type_info@@8          000000018002ecc0     LIBCMT:std_type_info_static.obj
 0002:00007cd0       ??_R1A@?0A@EA@type_info@@8 000000018002ecd0     LIBCMT:std_type_info_static.obj
 0002:00007cf8       ??_R4bad_array_new_length@std@@6B@ 000000018002ecf8     LIBCMT:throw_bad_alloc.obj
 0002:00007d20       ??_R3bad_array_new_length@std@@8 000000018002ed20     LIBCMT:throw_bad_alloc.obj
 0002:00007d38       ??_R2bad_array_new_length@std@@8 000000018002ed38     LIBCMT:throw_bad_alloc.obj
 0002:00007d58       ??_R1A@?0A@EA@bad_array_new_length@std@@8 000000018002ed58     LIBCMT:throw_bad_alloc.obj
 0002:00007d7c       __volatile_metadata        000000018002ed7c     <linker-defined>
 0002:00008128       __rtc_iaa                  000000018002f128     LIBCMT:initsect.obj
 0002:00008130       __rtc_izz                  000000018002f130     LIBCMT:initsect.obj
 0002:00008138       __rtc_taa                  000000018002f138     LIBCMT:initsect.obj
 0002:00008140       __rtc_tzz                  000000018002f140     LIBCMT:initsect.obj
 0002:0000a4a0       _CT??_R0?AVbad_alloc@std@@@8??0bad_alloc@std@@QEAA@AEBV01@@Z24 00000001800314a0     libcpmt:xthrow.obj
 0002:0000a4c8       _CT??_R0?AVexception@std@@@8??0exception@std@@QEAA@AEBV01@@Z24 00000001800314c8     libcpmt:xthrow.obj
 0002:0000a4f0       _TI2?AVbad_alloc@std@@     00000001800314f0     libcpmt:xthrow.obj
 0002:0000a510       _CTA2?AVbad_alloc@std@@    0000000180031510     libcpmt:xthrow.obj
 0002:0000a528       _CT??_R0?AVlogic_error@std@@@8??0logic_error@std@@QEAA@AEBV01@@Z24 0000000180031528     libcpmt:xthrow.obj
 0002:0000a550       _TI3?AVlength_error@std@@  0000000180031550     libcpmt:xthrow.obj
 0002:0000a570       _CTA3?AVlength_error@std@@ 0000000180031570     libcpmt:xthrow.obj
 0002:0000a590       _CT??_R0?AVlength_error@std@@@8??0length_error@std@@QEAA@AEBV01@@Z24 0000000180031590     libcpmt:xthrow.obj
 0002:0000a5b8       _TI3?AVbad_array_new_length@std@@ 00000001800315b8     LIBCMT:throw_bad_alloc.obj
 0002:0000a5d8       _CTA3?AVbad_array_new_length@std@@ 00000001800315d8     LIBCMT:throw_bad_alloc.obj
 0002:0000a5f8       _CT??_R0?AVbad_array_new_length@std@@@8??0bad_array_new_length@std@@QEAA@AEBV01@@Z24 00000001800315f8     LIBCMT:throw_bad_alloc.obj
 0002:0000a670       __IMPORT_DESCRIPTOR_KERNEL32 0000000180031670     kernel32:KERNEL32.dll
 0002:0000a684       __IMPORT_DESCRIPTOR_node   0000000180031684     iojs:node.dll
 0002:0000a698       __NULL_IMPORT_DESCRIPTOR   0000000180031698     kernel32:KERNEL32.dll
 0003:00000000       __security_cookie_complement 0000000180033000     LIBCMT:gs_cookie.obj
 0003:00000008       __security_cookie          0000000180033008     LIBCMT:gs_cookie.obj
 0003:00000010       __scrt_native_dllmain_reason 0000000180033010     LIBCMT:utility.obj
 0003:00000018       __isa_available            0000000180033018     LIBCMT:cpu_disp.obj
 0003:0000001c       __isa_enabled              000000018003301c     LIBCMT:cpu_disp.obj
 0003:00000020       __memcpy_nt_iters          0000000180033020     LIBCMT:cpu_disp.obj
 0003:00000028       __memset_nt_iters          0000000180033028     LIBCMT:cpu_disp.obj
 0003:00000040       __abort_behavior           0000000180033040     libucrt:abort.obj
 0003:00000060       __acrt_initial_locale_data 0000000180033060     libucrt:nlsdata.obj
 0003:000001b8       __acrt_initial_locale_pointers 00000001800331b8     libucrt:nlsdata.obj
 0003:000001c8       __acrt_wide_c_locale_string 00000001800331c8     libucrt:nlsdata.obj
 0003:000001d0       __acrt_initial_multibyte_data 00000001800331d0     libucrt:mbctype.obj
 0003:00000710       _iob                       0000000180033710     libucrt:_file.obj
 0003:00000818       __globallocalestatus       0000000180033818     libucrt:glstatus.obj
 0003:00000820       __acrt_lconv_c             0000000180033820     libucrt:localeconv.obj
 0003:000008b8       __acrt_lconv_static_decimal 00000001800338b8     libucrt:localeconv.obj
 0003:000008bc       __acrt_lconv_static_W_decimal 00000001800338bc     libucrt:localeconv.obj
 0003:000008c0       _lookuptrailbytes          00000001800338c0     libucrt:read.obj
 0003:000009d4       _fltused                   00000001800339d4     LIBCMT:fltused.obj
 0003:00000a20       ??_R0?AVbad_alloc@std@@@8  0000000180033a20     libcpmt:xthrow.obj
 0003:00000a48       ??_R0?AVexception@std@@@8  0000000180033a48     libcpmt:xthrow.obj
 0003:00000a70       ??_R0?AVlogic_error@std@@@8 0000000180033a70     libcpmt:xthrow.obj
 0003:00000a98       ??_R0?AVlength_error@std@@@8 0000000180033a98     libcpmt:xthrow.obj
 0003:00000ac0       ??_R0?AVbad_array_new_length@std@@@8 0000000180033ac0     LIBCMT:throw_bad_alloc.obj
 0003:00000af0       ??_R0?AVtype_info@@@8      0000000180033af0     LIBCMT:std_type_info_static.obj
 0003:00000b10       ?_Raise_handler@std@@3P6AXAEBVexception@stdext@@@ZEA 0000000180033b10     libcpmt:raisehan.obj
 0003:00001090       ?__type_info_root_node@@3U__type_info_node@@A 0000000180034090     LIBCMT:tncleanup.obj
 0003:000010a0       ?_OptionsStorage@?1??__local_stdio_printf_options@@9@4_KA 00000001800340a0     LIBCMT:default_local_stdio_options.obj
 0003:000010a8       ?_OptionsStorage@?1??__local_stdio_scanf_options@@9@4_KA 00000001800340a8     LIBCMT:default_local_stdio_options.obj
 0003:000010b0       __scrt_current_native_startup_state 00000001800340b0     LIBCMT:utility.obj
 0003:000010b8       __scrt_native_startup_lock 00000001800340b8     LIBCMT:utility.obj
 0003:000010f8       __scrt_debugger_hook_flag  00000001800340f8     LIBCMT:utility_desktop.obj
 0003:00001100       __castguard_check_failure_os_handled_fptr 0000000180034100     LIBCMT:guard_support.obj
 0003:00001108       __favor                    0000000180034108     LIBCMT:cpu_disp.obj
 0003:00001110       ?__WinRTOutOfMemoryExceptionCallback@@3P6APEAXXZEA 0000000180034110     libvcruntime:ehhelpers.obj
 0003:00001118       ?pArgList@UnDecorator@@0PEAVReplicator@@EA 0000000180034118     libvcruntime:undname.obj
 0003:00001120       ?pZNameList@UnDecorator@@0PEAVReplicator@@EA 0000000180034120     libvcruntime:undname.obj
 0003:00001128       ?pTemplateArgList@UnDecorator@@0PEAVReplicator@@EA 0000000180034128     libvcruntime:undname.obj
 0003:00001130       ?gName@UnDecorator@@0PEBDEB 0000000180034130     libvcruntime:undname.obj
 0003:00001138       ?name@UnDecorator@@0PEBDEB 0000000180034138     libvcruntime:undname.obj
 0003:00001140       ?disableFlags@UnDecorator@@0KA 0000000180034140     libvcruntime:undname.obj
 0003:00001144       ?fExplicitTemplateParams@UnDecorator@@0_NA 0000000180034144     libvcruntime:undname.obj
 0003:00001145       ?fGetTemplateArgumentList@UnDecorator@@0_NA 0000000180034145     libvcruntime:undname.obj
 0003:00001148       ?m_pGetParameter@UnDecorator@@0P6APEADJ@ZEA 0000000180034148     libvcruntime:undname.obj
 0003:00001150       ?m_CHPENameOffset@UnDecorator@@0KA 0000000180034150     libvcruntime:undname.obj
 0003:00001154       ?m_recursionLevel@UnDecorator@@0KA 0000000180034154     libvcruntime:undname.obj
 0003:00001270       __pPurecall                0000000180034270     libvcruntime:purevirt_data.obj
 0003:00001298       ?c_exit_complete@?1???R<lambda_6e4b09c48022b2350581041d5f6b0c4c>@@QEBA@XZ@4_NA 0000000180034298     libucrt:exit.obj
 0003:000013a8       _environ_table             00000001800343a8     libucrt:environment_initialization.obj
 0003:000013b0       _wenviron_table            00000001800343b0     libucrt:environment_initialization.obj
 0003:000013b8       __dcrt_initial_wide_environment 00000001800343b8     libucrt:environment_initialization.obj
 0003:000013c0       __dcrt_initial_narrow_environment 00000001800343c0     libucrt:environment_initialization.obj
 0003:000013c8       __acrt_atexit_table        00000001800343c8     libucrt:onexit.obj
 0003:000013e0       __acrt_at_quick_exit_table 00000001800343e0     libucrt:onexit.obj
 0003:000013f8       __acrt_locale_changed_data 00000001800343f8     libucrt:wsetlocale.obj
 0003:00001400       __acrt_current_locale_data 0000000180034400     libucrt:nlsdata.obj
 0003:00001648       _mbctype                   0000000180034648     libucrt:mbctype.obj
 0003:00001650       _mbcasemap                 0000000180034650     libucrt:mbctype.obj
 0003:00001658       __acrt_current_multibyte_data 0000000180034658     libucrt:mbctype.obj
 0003:00001668       _pgmptr                    0000000180034668     libucrt:argv_data.obj
 0003:00001670       __argc                     0000000180034670     libucrt:argv_data.obj
 0003:00001678       __argv                     0000000180034678     libucrt:argv_data.obj
 0003:00001680       __wargv                    0000000180034680     libucrt:argv_data.obj
 0003:00001688       _acmdln                    0000000180034688     libucrt:argv_data.obj
 0003:00001690       _wcmdln                    0000000180034690     libucrt:argv_data.obj
 0003:00001850       __acrt_heap                0000000180034850     libucrt:heap_handle.obj
 0003:00001860       __pioinfo                  0000000180034860     libucrt:ioinit.obj
 0003:00001c60       _nhandle                   0000000180034c60     libucrt:ioinit.obj
 0003:00001c90       _nstream                   0000000180034c90     libucrt:_file.obj
 0003:00001c98       __piob                     0000000180034c98     libucrt:_file.obj
 0003:00001ca0       __acrt_stdout_buffer       0000000180034ca0     libucrt:_sftbuf.obj
 0003:00001ca8       __acrt_stderr_buffer       0000000180034ca8     libucrt:_sftbuf.obj
 0003:00001cb8       __acrt_lconv_static_null   0000000180034cb8     libucrt:localeconv.obj
 0003:00001cbc       __acrt_lconv_static_W_null 0000000180034cbc     libucrt:localeconv.obj
 0003:00001cd0       __fma3_is_available        0000000180034cd0     libucrt:fma3_available.obj
 0003:00001cd4       __use_fma3_lib             0000000180034cd4     libucrt:fma3_available.obj
 0003:00001cd8       ?inputscale@@3NA           0000000180034cd8     minkowski.obj
 0003:00001ce0       __scrt_ucrt_dll_is_in_use  0000000180034ce0     <common>
 0003:00001ce8       __dyn_tls_init_callback    0000000180034ce8     <common>

 entry point at        0001:0001acb4

 Static symbols

 0000:fffc6000       .debug$S                   0000000180000000     addon.exp
 0000:fffc6000       .debug$S                   0000000180000000     kernel32:KERNEL32.dll
 0000:fffc6000       .debug$S                   0000000180000000     kernel32:KERNEL32.dll
 0000:fffc6000       .debug$S                   0000000180000000     kernel32:KERNEL32.dll
 0000:fffc6000       .debug$S                   0000000180000000     kernel32:KERNEL32.dll
 0000:fffc6000       .debug$S                   0000000180000000     kernel32:KERNEL32.dll
 0000:fffc6000       .debug$S                   0000000180000000     kernel32:KERNEL32.dll
 0000:fffc6000       .debug$S                   0000000180000000     kernel32:KERNEL32.dll
 0000:fffc6000       .debug$S                   0000000180000000     kernel32:KERNEL32.dll
 0000:fffc6000       .debug$S                   0000000180000000     kernel32:KERNEL32.dll
 0000:fffc6000       .debug$S                   0000000180000000     kernel32:KERNEL32.dll
 0000:fffc6000       .debug$S                   0000000180000000     kernel32:KERNEL32.dll
 0000:fffc6000       .debug$S                   0000000180000000     kernel32:KERNEL32.dll
 0000:fffc6000       .debug$S                   0000000180000000     kernel32:KERNEL32.dll
 0000:fffc6000       .debug$S                   0000000180000000     kernel32:KERNEL32.dll
 0000:fffc6000       .debug$S                   0000000180000000     kernel32:KERNEL32.dll
 0000:fffc6000       .debug$S                   0000000180000000     kernel32:KERNEL32.dll
 0000:fffc6000       .debug$S                   0000000180000000     kernel32:KERNEL32.dll
 0000:fffc6000       .debug$S                   0000000180000000     kernel32:KERNEL32.dll
 0000:fffc6000       .debug$S                   0000000180000000     kernel32:KERNEL32.dll
 0000:fffc6000       .debug$S                   0000000180000000     kernel32:KERNEL32.dll
 0000:fffc6000       .debug$S                   0000000180000000     kernel32:KERNEL32.dll
 0000:fffc6000       .debug$S                   0000000180000000     kernel32:KERNEL32.dll
 0000:fffc6000       .debug$S                   0000000180000000     kernel32:KERNEL32.dll
 0000:fffc6000       .debug$S                   0000000180000000     kernel32:KERNEL32.dll
 0000:fffc6000       .debug$S                   0000000180000000     kernel32:KERNEL32.dll
 0000:fffc6000       .debug$S                   0000000180000000     kernel32:KERNEL32.dll
 0000:fffc6000       .debug$S                   0000000180000000     kernel32:KERNEL32.dll
 0000:fffc6000       .debug$S                   0000000180000000     kernel32:KERNEL32.dll
 0000:fffc6000       .debug$S                   0000000180000000     kernel32:KERNEL32.dll
 0000:fffc6000       .debug$S                   0000000180000000     kernel32:KERNEL32.dll
 0000:fffc6000       .debug$S                   0000000180000000     kernel32:KERNEL32.dll
 0000:fffc6000       .debug$S                   0000000180000000     kernel32:KERNEL32.dll
 0000:fffc6000       .debug$S                   0000000180000000     kernel32:KERNEL32.dll
 0000:fffc6000       .debug$S                   0000000180000000     kernel32:KERNEL32.dll
 0000:fffc6000       .debug$S                   0000000180000000     kernel32:KERNEL32.dll
 0000:fffc6000       .debug$S                   0000000180000000     kernel32:KERNEL32.dll
 0000:fffc6000       .debug$S                   0000000180000000     kernel32:KERNEL32.dll
 0000:fffc6000       .debug$S                   0000000180000000     kernel32:KERNEL32.dll
 0000:fffc6000       .debug$S                   0000000180000000     kernel32:KERNEL32.dll
 0000:fffc6000       .debug$S                   0000000180000000     kernel32:KERNEL32.dll
 0000:fffc6000       .debug$S                   0000000180000000     kernel32:KERNEL32.dll
 0000:fffc6000       .debug$S                   0000000180000000     kernel32:KERNEL32.dll
 0000:fffc6000       .debug$S                   0000000180000000     kernel32:KERNEL32.dll
 0000:fffc6000       .debug$S                   0000000180000000     kernel32:KERNEL32.dll
 0000:fffc6000       .debug$S                   0000000180000000     kernel32:KERNEL32.dll
 0000:fffc6000       .debug$S                   0000000180000000     kernel32:KERNEL32.dll
 0000:fffc6000       .debug$S                   0000000180000000     kernel32:KERNEL32.dll
 0000:fffc6000       .debug$S                   0000000180000000     kernel32:KERNEL32.dll
 0000:fffc6000       .debug$S                   0000000180000000     kernel32:KERNEL32.dll
 0000:fffc6000       .debug$S                   0000000180000000     kernel32:KERNEL32.dll
 0000:fffc6000       .debug$S                   0000000180000000     kernel32:KERNEL32.dll
 0000:fffc6000       .debug$S                   0000000180000000     kernel32:KERNEL32.dll
 0000:fffc6000       .debug$S                   0000000180000000     kernel32:KERNEL32.dll
 0000:fffc6000       .debug$S                   0000000180000000     kernel32:KERNEL32.dll
 0000:fffc6000       .debug$S                   0000000180000000     kernel32:KERNEL32.dll
 0000:fffc6000       .debug$S                   0000000180000000     kernel32:KERNEL32.dll
 0000:fffc6000       .debug$S                   0000000180000000     kernel32:KERNEL32.dll
 0000:fffc6000       .debug$S                   0000000180000000     kernel32:KERNEL32.dll
 0000:fffc6000       .debug$S                   0000000180000000     kernel32:KERNEL32.dll
 0000:fffc6000       .debug$S                   0000000180000000     kernel32:KERNEL32.dll
 0000:fffc6000       .debug$S                   0000000180000000     kernel32:KERNEL32.dll
 0000:fffc6000       .debug$S                   0000000180000000     kernel32:KERNEL32.dll
 0000:fffc6000       .debug$S                   0000000180000000     kernel32:KERNEL32.dll
 0000:fffc6000       .debug$S                   0000000180000000     kernel32:KERNEL32.dll
 0000:fffc6000       .debug$S                   0000000180000000     kernel32:KERNEL32.dll
 0000:fffc6000       .debug$S                   0000000180000000     kernel32:KERNEL32.dll
 0000:fffc6000       .debug$S                   0000000180000000     kernel32:KERNEL32.dll
 0000:fffc6000       .debug$S                   0000000180000000     kernel32:KERNEL32.dll
 0000:fffc6000       .debug$S                   0000000180000000     kernel32:KERNEL32.dll
 0000:fffc6000       .debug$S                   0000000180000000     kernel32:KERNEL32.dll
 0000:fffc6000       .debug$S                   0000000180000000     kernel32:KERNEL32.dll
 0000:fffc6000       .debug$S                   0000000180000000     kernel32:KERNEL32.dll
 0000:fffc6000       .debug$S                   0000000180000000     kernel32:KERNEL32.dll
 0000:fffc6000       .debug$S                   0000000180000000     kernel32:KERNEL32.dll
 0000:fffc6000       .debug$S                   0000000180000000     kernel32:KERNEL32.dll
 0000:fffc6000       .debug$S                   0000000180000000     kernel32:KERNEL32.dll
 0000:fffc6000       .debug$S                   0000000180000000     kernel32:KERNEL32.dll
 0000:fffc6000       .debug$S                   0000000180000000     kernel32:KERNEL32.dll
 0000:fffc6000       .debug$S                   0000000180000000     kernel32:KERNEL32.dll
 0000:fffc6000       .debug$S                   0000000180000000     kernel32:KERNEL32.dll
 0000:fffc6000       .debug$S                   0000000180000000     kernel32:KERNEL32.dll
 0000:fffc6000       .debug$S                   0000000180000000     kernel32:KERNEL32.dll
 0000:fffc6000       .debug$S                   0000000180000000     kernel32:KERNEL32.dll
 0000:fffc6000       .debug$S                   0000000180000000     kernel32:KERNEL32.dll
 0000:fffc6000       .debug$S                   0000000180000000     kernel32:KERNEL32.dll
 0000:fffc6000       .debug$S                   0000000180000000     iojs:node.dll
 0000:fffc6000       .debug$S                   0000000180000000     iojs:node.dll
 0000:fffc6000       .debug$S                   0000000180000000     iojs:node.dll
 0000:fffc6000       .debug$S                   0000000180000000     iojs:node.dll
 0000:fffc6000       .debug$S                   0000000180000000     iojs:node.dll
 0000:fffc6000       .debug$S                   0000000180000000     iojs:node.dll
 0000:fffc6000       .debug$S                   0000000180000000     iojs:node.dll
 0000:fffc6000       .debug$S                   0000000180000000     iojs:node.dll
 0000:fffc6000       .debug$S                   0000000180000000     iojs:node.dll
 0000:fffc6000       .debug$S                   0000000180000000     iojs:node.dll
 0000:fffc6000       .debug$S                   0000000180000000     iojs:node.dll
 0000:fffc6000       .debug$S                   0000000180000000     iojs:node.dll
 0000:fffc6000       .debug$S                   0000000180000000     iojs:node.dll
 0000:fffc6000       .debug$S                   0000000180000000     iojs:node.dll
 0000:fffc6000       .debug$S                   0000000180000000     iojs:node.dll
 0000:fffc6000       .debug$S                   0000000180000000     iojs:node.dll
 0000:fffc6000       .debug$S                   0000000180000000     iojs:node.dll
 0000:fffc6000       .debug$S                   0000000180000000     iojs:node.dll
 0000:fffc6000       .debug$S                   0000000180000000     iojs:node.dll
 0000:fffc6000       .debug$S                   0000000180000000     iojs:node.dll
 0000:fffc6000       .debug$S                   0000000180000000     iojs:node.dll
 0000:fffc6000       .debug$S                   0000000180000000     iojs:node.dll
 0000:fffc6000       .debug$S                   0000000180000000     iojs:node.dll
 0000:fffc6000       .debug$S                   0000000180000000     iojs:node.dll
 0000:fffc6000       .debug$S                   0000000180000000     iojs:node.dll
 0000:fffc6000       .debug$S                   0000000180000000     iojs:node.dll
 0000:fffc6000       .debug$S                   0000000180000000     iojs:node.dll
 0000:fffc6000       .debug$S                   0000000180000000     iojs:node.dll
 0000:fffc6000       .debug$S                   0000000180000000     iojs:node.dll
 0000:fffc6000       .debug$S                   0000000180000000     iojs:node.dll
 0000:fffc6000       .debug$S                   0000000180000000     iojs:node.dll
 0000:fffc6000       .debug$S                   0000000180000000     iojs:node.dll
 0000:fffc6000       .debug$S                   0000000180000000     iojs:node.dll
 0000:fffc6000       .debug$S                   0000000180000000     iojs:node.dll
 0000:fffc6000       .debug$S                   0000000180000000     iojs:node.dll
 0000:fffc6000       .debug$S                   0000000180000000     iojs:node.dll
 0001:00000000       ?FunctionCallbackWrapper@imp@Nan@@YAXAEBV?$FunctionCallbackInfo@VValue@v8@@@v8@@@Z 0000000180001000 f   addon.obj
 0001:000002d0       _register_addon            00000001800012d0 f   addon.obj
 0001:00006210       ??$point_sequence_area@V?$_Vector_const_iterator@V?$_Vector_val@U?$_Simple_types@V?$point_data@H@polygon@boost@@@std@@@std@@@std@@O@polygon@boost@@YAOV?$_Vector_const_iterator@V?$_Vector_val@U?$_Simple_types@V?$point_data@H@polygon@boost@@@std@@@std@@@std@@0@Z 0000000180007210 f   minkowski.obj
 0001:0001a920       $$000000                   000000018001b920     LIBCMT:amdsecgs.obj
 0001:0001a994       ?dllmain_crt_dispatch@@YAHQEAUHINSTANCE__@@KQEAX@Z 000000018001b994 f   LIBCMT:dll_dllmain.obj
 0001:0001a9e4       ?dllmain_crt_process_attach@@YAHQEAUHINSTANCE__@@QEAX@Z 000000018001b9e4 f   LIBCMT:dll_dllmain.obj
 0001:0001aafc       ?dllmain_crt_process_detach@@YAH_N@Z 000000018001bafc f   LIBCMT:dll_dllmain.obj
 0001:0001ab80       ?dllmain_dispatch@@YAHQEAUHINSTANCE__@@KQEAX@Z 000000018001bb80 f   LIBCMT:dll_dllmain.obj
 0001:0001aed8       capture_current_context    000000018001bed8 f   LIBCMT:gs_report.obj
 0001:0001af48       capture_previous_context   000000018001bf48 f   LIBCMT:gs_report.obj
 0001:0001bc90       $$000000                   000000018001cc90     libvcruntime:memset.obj
 0001:0001be50       $$000000                   000000018001ce50     libvcruntime:notify.obj
 0001:0001c0f0       $$000000                   000000018001d0f0     libvcruntime:memcpy.obj
 0001:0001c798       ?try_get_function@@YAPEAXW4function_id@?A0x3064ecbf@@QEBDQEBW4module_id@2@2@Z 000000018001d798 f   libvcruntime:winapi_downlevel.obj
 0001:0001ca80       $$000000                   000000018001da80     libvcruntime:handlers.obj
 0001:0001d194       ??$?RV<lambda_d80eeec6fff315bfe5c115232f3240e3>@@AEAV<lambda_6e4b09c48022b2350581041d5f6b0c4c>@@V<lambda_2358e3775559c9db80273638284d5e45>@@@?$__crt_seh_guarded_call@X@@QEAAX$$QEAV<lambda_d80eeec6fff315bfe5c115232f3240e3>@@AEAV<lambda_6e4b09c48022b2350581041d5f6b0c4c>@@$$QEAV<lambda_2358e3775559c9db80273638284d5e45>@@@Z 000000018001e194 f   libucrt:exit.obj
 0001:0001d1cc       ??R<lambda_6e4b09c48022b2350581041d5f6b0c4c>@@QEBA@XZ 000000018001e1cc f   libucrt:exit.obj
 0001:0001d290       ?atexit_exception_filter@@YAHK@Z 000000018001e290 f   libucrt:exit.obj
 0001:0001d29c       ?common_exit@@YAXHW4_crt_exit_cleanup_mode@@W4_crt_exit_return_mode@@@Z 000000018001e29c f   libucrt:exit.obj
 0001:0001d358       ?exit_or_terminate_process@@YAXI@Z 000000018001e358 f   libucrt:exit.obj
 0001:0001d3a4       ?try_cor_exit_process@@YAXI@Z 000000018001e3a4 f   libucrt:exit.obj
 0001:0001d42c       ??$parse_command_line@D@@YAXPEADPEAPEAD0PEA_K2@Z 000000018001e42c f   libucrt:argv_parsing.obj
 0001:0001d7d4       ??$common_initialize_environment_nolock@D@@YAHXZ 000000018001e7d4 f   libucrt:environment_initialization.obj
 0001:0001d840       ??$create_environment@D@@YAQEAPEADQEAD@Z 000000018001e840 f   libucrt:environment_initialization.obj
 0001:0001d948       ??$free_environment@D@@YAXQEAPEAD@Z 000000018001e948 f   libucrt:environment_initialization.obj
 0001:0001d948       ??$free_environment@_W@@YAXQEAPEA_W@Z 000000018001e948 f   libucrt:environment_initialization.obj
 0001:0001d98c       ??$uninitialize_environment_internal@D@@YAXAEAPEAPEAD@Z 000000018001e98c f   libucrt:environment_initialization.obj
 0001:0001d9a8       ??$uninitialize_environment_internal@_W@@YAXAEAPEAPEA_W@Z 000000018001e9a8 f   libucrt:environment_initialization.obj
 0001:0001da04       ??$?RV<lambda_7777bce6b2f8c936911f934f8298dc43>@@AEAV<lambda_f03950bc5685219e0bcd2087efbe011e>@@V<lambda_3883c3dff614d5e0c5f61bb1ac94921c>@@@?$__crt_seh_guarded_call@H@@QEAAH$$QEAV<lambda_7777bce6b2f8c936911f934f8298dc43>@@AEAV<lambda_f03950bc5685219e0bcd2087efbe011e>@@$$QEAV<lambda_3883c3dff614d5e0c5f61bb1ac94921c>@@@Z 000000018001ea04 f   libucrt:onexit.obj
 0001:0001da40       ??R<lambda_f03950bc5685219e0bcd2087efbe011e>@@QEBAHXZ 000000018001ea40 f   libucrt:onexit.obj
 0001:0001dbbc       initialize_global_variables 000000018001ebbc f   libucrt:initialization.obj
 0001:0001dbd0       initialize_c               000000018001ebd0 f   libucrt:initialization.obj
 0001:0001dbf4       initialize_environment     000000018001ebf4 f   libucrt:initialization.obj
 0001:0001dbf4       initialize_global_state_isolation 000000018001ebf4 f   libucrt:initialization.obj
 0001:0001dbf4       report_memory_leaks        000000018001ebf4 f   libucrt:initialization.obj
 0001:0001dbf4       uninitialize_c             000000018001ebf4 f   libucrt:initialization.obj
 0001:0001dbf4       uninitialize_global_state_isolation 000000018001ebf4 f   libucrt:initialization.obj
 0001:0001dbf8       uninitialize_environment   000000018001ebf8 f   libucrt:initialization.obj
 0001:0001dc08       initialize_pointers        000000018001ec08 f   libucrt:initialization.obj
 0001:0001dc48       uninitialize_vcruntime     000000018001ec48 f   libucrt:initialization.obj
 0001:0001dc50       uninitialize_allocated_memory 000000018001ec50 f   libucrt:initialization.obj
 0001:0001dc90       uninitialize_allocated_io_buffers 000000018001ec90 f   libucrt:initialization.obj
 0001:0001de50       $$000000                   000000018001ee50     libucrt:strncmp.obj
 0001:0001df14       ??$?RV<lambda_0ae27a3a962d80f24befdcbee591983d>@@AEAV<lambda_8d0ee55de4b1038c4002e0adecdf1839>@@V<lambda_dc504788e8f1664fe9b84e20bfb512f2>@@@?$__crt_seh_guarded_call@X@@QEAAX$$QEAV<lambda_0ae27a3a962d80f24befdcbee591983d>@@AEAV<lambda_8d0ee55de4b1038c4002e0adecdf1839>@@$$QEAV<lambda_dc504788e8f1664fe9b84e20bfb512f2>@@@Z 000000018001ef14 f   libucrt:per_thread_data.obj
 0001:0001df54       ??$?RV<lambda_2d41944a1d46af3157314b8a01080d33>@@AEAV<lambda_8f455de75cd7d7f24b4096f044d8b9e6>@@V<lambda_aa500f224e6afead328df44964fe2772>@@@?$__crt_seh_guarded_call@X@@QEAAX$$QEAV<lambda_2d41944a1d46af3157314b8a01080d33>@@AEAV<lambda_8f455de75cd7d7f24b4096f044d8b9e6>@@$$QEAV<lambda_aa500f224e6afead328df44964fe2772>@@@Z 000000018001ef54 f   libucrt:per_thread_data.obj
 0001:0001df94       ??$?RV<lambda_aa87e3671a710a21b5dc78c0bdf72e11>@@AEAV<lambda_92619d2358a28f41a33ba319515a20b9>@@V<lambda_6992ecaafeb10aed2b74cb1fae11a551>@@@?$__crt_seh_guarded_call@X@@QEAAX$$QEAV<lambda_aa87e3671a710a21b5dc78c0bdf72e11>@@AEAV<lambda_92619d2358a28f41a33ba319515a20b9>@@$$QEAV<lambda_6992ecaafeb10aed2b74cb1fae11a551>@@@Z 000000018001ef94 f   libucrt:per_thread_data.obj
 0001:0001dfdc       ??$?RV<lambda_f2e299630e499de9f9a165e60fcd3db5>@@AEAV<lambda_2ae9d31cdba2644fcbeaf08da7c24588>@@V<lambda_40d01ff24d0e7b3814fdbdcee8eab3c7>@@@?$__crt_seh_guarded_call@X@@QEAAX$$QEAV<lambda_f2e299630e499de9f9a165e60fcd3db5>@@AEAV<lambda_2ae9d31cdba2644fcbeaf08da7c24588>@@$$QEAV<lambda_40d01ff24d0e7b3814fdbdcee8eab3c7>@@@Z 000000018001efdc f   libucrt:per_thread_data.obj
 0001:0001e03c       ?construct_ptd_array@@YAXQEAU__acrt_ptd@@@Z 000000018001f03c f   libucrt:per_thread_data.obj
 0001:0001e10c       ?destroy_fls@@YAXPEAX@Z    000000018001f10c f   libucrt:per_thread_data.obj
 0001:0001e12c       ?destroy_ptd_array@@YAXQEAU__acrt_ptd@@@Z 000000018001f12c f   libucrt:per_thread_data.obj
 0001:0001e224       ?replace_current_thread_locale_nolock@@YAXQEAU__acrt_ptd@@QEAU__crt_locale_data@@@Z 000000018001f224 f   libucrt:per_thread_data.obj
 0001:0001e6b8       ??$?RV<lambda_410d79af7f07d98d83a3f525b3859a53>@@AEAV<lambda_3e16ef9562a7dcce91392c22ab16ea36>@@V<lambda_38119f0e861e05405d8a144b9b982f0a>@@@?$__crt_seh_guarded_call@X@@QEAAX$$QEAV<lambda_410d79af7f07d98d83a3f525b3859a53>@@AEAV<lambda_3e16ef9562a7dcce91392c22ab16ea36>@@$$QEAV<lambda_38119f0e861e05405d8a144b9b982f0a>@@@Z 000000018001f6b8 f   libucrt:wsetlocale.obj
 0001:0001e970       ?<lambda_invoker_cdecl>@<lambda_a1ce4c8ae42411fd470c77163914f50e>@@CAHPEBX0@Z 000000018001f970 f   libucrt:argv_wildcards.obj
 0001:0001ec88       ??$common_expand_argv_wildcards@D@@YAHQEAPEADQEAPEAPEAD@Z 000000018001fc88 f   libucrt:argv_wildcards.obj
 0001:0001ee94       ??$copy_and_add_argument_to_buffer@D@@YAHQEBD0_KAEAV?$argument_list@D@?A0x5f5c8891@@@Z 000000018001fe94 f   libucrt:argv_wildcards.obj
 0001:0001f01c       ??$expand_argument_wildcards@D@@YAHQEAD0AEAV?$argument_list@D@?A0x5f5c8891@@@Z 000000018002001c f   libucrt:argv_wildcards.obj
 0001:0001f568       ??$?RV<lambda_efdfa57d1f175319df784efa44bb7b81>@@AEAV<lambda_5f0a4c1567f8adc6734073e5d1e1b35c>@@V<lambda_2e8a7d3640ea6ccb4c2413664c2db6fd>@@@?$__crt_seh_guarded_call@X@@QEAAX$$QEAV<lambda_efdfa57d1f175319df784efa44bb7b81>@@AEAV<lambda_5f0a4c1567f8adc6734073e5d1e1b35c>@@$$QEAV<lambda_2e8a7d3640ea6ccb4c2413664c2db6fd>@@@Z 0000000180020568 f   libucrt:mbctype.obj
 0001:0001f724       ?getSystemCP@@YAHH@Z       0000000180020724 f   libucrt:mbctype.obj
 0001:0001f7a4       ?setSBCS@@YAXPEAU__crt_multibyte_data@@@Z 00000001800207a4 f   libucrt:mbctype.obj
 0001:0001f834       ?setSBUpLow@@YAXPEAU__crt_multibyte_data@@@Z 0000000180020834 f   libucrt:mbctype.obj
 0001:0001fa18       ?setmbcp_internal@@YAHH_NQEAU__acrt_ptd@@QEAPEAU__crt_multibyte_data@@@Z 0000000180020a18 f   libucrt:mbctype.obj
 0001:0001fbd8       ?update_thread_multibyte_data_internal@@YAPEAU__crt_multibyte_data@@QEAU__acrt_ptd@@QEAPEAU1@@Z 0000000180020bd8 f   libucrt:mbctype.obj
 0001:0001ffc8       ?x_ismbbtype_l@@YAHPEAU__crt_locale_pointers@@IHH@Z 0000000180020fc8 f   libucrt:ismbbyte.obj
 0001:00020324       ?try_get_function@@YAPEAXW4function_id@?A0x391cf84c@@QEBDQEBW4module_id@2@2@Z 0000000180021324 f   libucrt:winapi_thunks.obj
 0001:000208e4       ?initialize_inherited_file_handles_nolock@@YAXXZ 00000001800218e4 f   libucrt:ioinit.obj
 0001:000209d4       ?initialize_stdio_handles_nolock@@YAXXZ 00000001800219d4 f   libucrt:ioinit.obj
 0001:00020c18       ??$?RV<lambda_450d765d439847d4c735a33c368b5fc0>@@AEAV<lambda_44731a7d0e6d81c3e6aa82d741081786>@@V<lambda_601a2a7da3b7a96e9554ac7215c4b07c>@@@?$__crt_seh_guarded_call@P6AXH@Z@@QEAAP6AXH@Z$$QEAV<lambda_450d765d439847d4c735a33c368b5fc0>@@AEAV<lambda_44731a7d0e6d81c3e6aa82d741081786>@@$$QEAV<lambda_601a2a7da3b7a96e9554ac7215c4b07c>@@@Z 0000000180021c18 f   libucrt:signal.obj
 0001:00020f74       ??$?RV<lambda_842d9ff0dc9ef11c61343bbaebe7f885>@@AEAV<lambda_c5860995281e5c4ce005b3de8f5874ee>@@V<lambda_d90129c13df834fdcbf8d2b88dafcf2d>@@@?$__crt_seh_guarded_call@X@@QEAAX$$QEAV<lambda_842d9ff0dc9ef11c61343bbaebe7f885>@@AEAV<lambda_c5860995281e5c4ce005b3de8f5874ee>@@$$QEAV<lambda_d90129c13df834fdcbf8d2b88dafcf2d>@@@Z 0000000180021f74 f   libucrt:fflush.obj
 0001:00021010       ??$?RV<lambda_886d6c58226a84441f68b9f2b8217b83>@@AEAV<lambda_ab61a845afdef5b7c387490eaf3616ee>@@V<lambda_f7f22ab5edc0698d5f6905b0d3f44752>@@@?$__crt_seh_guarded_call@X@@QEAAX$$QEAV<lambda_886d6c58226a84441f68b9f2b8217b83>@@AEAV<lambda_ab61a845afdef5b7c387490eaf3616ee>@@$$QEAV<lambda_f7f22ab5edc0698d5f6905b0d3f44752>@@@Z 0000000180022010 f   libucrt:fflush.obj
 0001:000210f0       ?common_flush_all@@YAH_N@Z 00000001800220f0 f   libucrt:fflush.obj
 0001:00021b18       ?free_crt_array_internal@@YAXQEAPEBX_K@Z 0000000180022b18 f   libucrt:inittime.obj
 0001:00022284       fallbackMethod             0000000180023284 f   libucrt:strpbrk.obj
 0001:0002263c       $LN78                      000000018002363c     libucrt:strpbrk.obj
 0001:00022678       $LN77                      0000000180023678     libucrt:strpbrk.obj
 0001:000226b8       $LN76                      00000001800236b8     libucrt:strpbrk.obj
 0001:00022794       ?__acrt_LCMapStringA_stat@@YAHPEAU__crt_locale_pointers@@PEB_WKPEBDHPEADHHH@Z 0000000180023794 f   libucrt:lcmapstringa.obj
 0001:00022b44       ?initialize_multibyte@@YAHXZ 0000000180023b44 f   libucrt:multibyte_initializer.obj
 0001:00022fe8       ??$?RV<lambda_a37b2b86f63e897a80ea819b0eb08c01>@@AEAV<lambda_38ce7e780aa69e748d6df282ebc68efe>@@V<lambda_99fb1378e971ab6e7edea83e3a7a83a2>@@@?$__crt_seh_guarded_call@H@@QEAAH$$QEAV<lambda_a37b2b86f63e897a80ea819b0eb08c01>@@AEAV<lambda_38ce7e780aa69e748d6df282ebc68efe>@@$$QEAV<lambda_99fb1378e971ab6e7edea83e3a7a83a2>@@@Z 0000000180023fe8 f   libucrt:commit.obj
 0001:00023108       ?write_double_translated_ansi_nolock@@YA?AUwrite_result@?A0x17268360@@HQEBDI@Z 0000000180024108 f   libucrt:write.obj
 0001:000235f4       ?write_text_ansi_nolock@@YA?AUwrite_result@?A0x17268360@@HQEBDI@Z 00000001800245f4 f   libucrt:write.obj
 0001:000236f8       ?write_text_utf16le_nolock@@YA?AUwrite_result@?A0x17268360@@HQEBDI@Z 00000001800246f8 f   libucrt:write.obj
 0001:00023814       ?write_text_utf8_nolock@@YA?AUwrite_result@?A0x17268360@@HQEBDI@Z 0000000180024814 f   libucrt:write.obj
 0001:00024114       ??$common_lseek_nolock@_J@@YA_JH_JH@Z 0000000180025114 f   libucrt:lseek.obj
 0001:000244c0       $$000000                   00000001800254c0     libucrt:log10.obj
 0001:00024b9c       ??$?RV<lambda_751a882b2c74d4b022dec766aa51a29a>@@AEAV<lambda_628dfdc04ba53c8bfc02c9951375f3f5>@@V<lambda_f6c7be5f7998530c34de24c7437d6b54>@@@?$__crt_seh_guarded_call@H@@QEAAH$$QEAV<lambda_751a882b2c74d4b022dec766aa51a29a>@@AEAV<lambda_628dfdc04ba53c8bfc02c9951375f3f5>@@$$QEAV<lambda_f6c7be5f7998530c34de24c7437d6b54>@@@Z 0000000180025b9c f   libucrt:close.obj
 0001:00024d90       _call_matherr              0000000180025d90 f   libucrt:libm_error.obj
 0001:00024df8       _exception_enabled         0000000180025df8 f   libucrt:libm_error.obj
 0001:00025070       _log_special_common        0000000180026070 f   libucrt:log_special.obj
 0001:00025110       $$000000                   0000000180026110     libucrt:fpsr.obj
 0001:00025700       $$000000                   0000000180026700     LIBCMT:chkstk.obj
 0001:00025760       $$000000                   0000000180026760     libvcruntime:memcmp.obj
 0001:00025840       $$000000                   0000000180026840     LIBCMT:guard_dispatch.obj
 0001:00025860       $$000000                   0000000180026860     LIBCMT:guard_xfg_dispatch.obj
 0001:00025880       ?fin$0@?0??dllmain_crt_process_attach@@YAHQEAUHINSTANCE__@@QEAX@Z@4HA 0000000180026880 f   LIBCMT:dll_dllmain.obj
 0001:00025897       ?fin$0@?0??dllmain_crt_process_detach@@YAH_N@Z@4HA 0000000180026897 f   LIBCMT:dll_dllmain.obj
 0001:000258b0       ?fin$1@?0??dllmain_crt_process_detach@@YAH_N@Z@4HA 00000001800268b0 f   LIBCMT:dll_dllmain.obj
 0001:000258c4       ?filt$0@?0??dllmain_dispatch@@YAHQEAUHINSTANCE__@@KQEAX@Z@4HA 00000001800268c4 f   LIBCMT:dll_dllmain.obj
 0001:000258fa       __scrt_is_nonwritable_in_current_image$filt$0 00000001800268fa f   LIBCMT:utility.obj
 0001:00025912       __DestructExceptionObject$filt$0 0000000180026912 f   libvcruntime:ehhelpers.obj
 0001:000259a8       _query_new_handler$fin$0   00000001800269a8 f   libucrt:new_handler.obj
 0001:000259be       ?fin$0@?0???$?RV<lambda_0ae27a3a962d80f24befdcbee591983d>@@AEAV<lambda_8d0ee55de4b1038c4002e0adecdf1839>@@V<lambda_dc504788e8f1664fe9b84e20bfb512f2>@@@?$__crt_seh_guarded_call@X@@QEAAX$$QEAV<lambda_0ae27a3a962d80f24befdcbee591983d>@@AEAV<lambda_8d0ee55de4b1038c4002e0adecdf1839>@@$$QEAV<lambda_dc504788e8f1664fe9b84e20bfb512f2>@@@Z@4HA 00000001800269be f   libucrt:per_thread_data.obj
 0001:000259be       ?fin$0@?0???$?RV<lambda_2d41944a1d46af3157314b8a01080d33>@@AEAV<lambda_8f455de75cd7d7f24b4096f044d8b9e6>@@V<lambda_aa500f224e6afead328df44964fe2772>@@@?$__crt_seh_guarded_call@X@@QEAAX$$QEAV<lambda_2d41944a1d46af3157314b8a01080d33>@@AEAV<lambda_8f455de75cd7d7f24b4096f044d8b9e6>@@$$QEAV<lambda_aa500f224e6afead328df44964fe2772>@@@Z@4HA 00000001800269be f   libucrt:per_thread_data.obj
 0001:000259be       ?fin$0@?0???$?RV<lambda_aa87e3671a710a21b5dc78c0bdf72e11>@@AEAV<lambda_92619d2358a28f41a33ba319515a20b9>@@V<lambda_6992ecaafeb10aed2b74cb1fae11a551>@@@?$__crt_seh_guarded_call@X@@QEAAX$$QEAV<lambda_aa87e3671a710a21b5dc78c0bdf72e11>@@AEAV<lambda_92619d2358a28f41a33ba319515a20b9>@@$$QEAV<lambda_6992ecaafeb10aed2b74cb1fae11a551>@@@Z@4HA 00000001800269be f   libucrt:per_thread_data.obj
 0001:000259be       ?fin$0@?0???$?RV<lambda_f2e299630e499de9f9a165e60fcd3db5>@@AEAV<lambda_2ae9d31cdba2644fcbeaf08da7c24588>@@V<lambda_40d01ff24d0e7b3814fdbdcee8eab3c7>@@@?$__crt_seh_guarded_call@X@@QEAAX$$QEAV<lambda_f2e299630e499de9f9a165e60fcd3db5>@@AEAV<lambda_2ae9d31cdba2644fcbeaf08da7c24588>@@$$QEAV<lambda_40d01ff24d0e7b3814fdbdcee8eab3c7>@@@Z@4HA 00000001800269be f   libucrt:per_thread_data.obj
 0001:000259be       ?fin$0@?0???$?RV<lambda_efdfa57d1f175319df784efa44bb7b81>@@AEAV<lambda_5f0a4c1567f8adc6734073e5d1e1b35c>@@V<lambda_2e8a7d3640ea6ccb4c2413664c2db6fd>@@@?$__crt_seh_guarded_call@X@@QEAAX$$QEAV<lambda_efdfa57d1f175319df784efa44bb7b81>@@AEAV<lambda_5f0a4c1567f8adc6734073e5d1e1b35c>@@$$QEAV<lambda_2e8a7d3640ea6ccb4c2413664c2db6fd>@@@Z@4HA 00000001800269be f   libucrt:mbctype.obj
 0001:000259be       ?fin$0@?0???$?RV<lambda_450d765d439847d4c735a33c368b5fc0>@@AEAV<lambda_44731a7d0e6d81c3e6aa82d741081786>@@V<lambda_601a2a7da3b7a96e9554ac7215c4b07c>@@@?$__crt_seh_guarded_call@P6AXH@Z@@QEAAP6AXH@Z$$QEAV<lambda_450d765d439847d4c735a33c368b5fc0>@@AEAV<lambda_44731a7d0e6d81c3e6aa82d741081786>@@$$QEAV<lambda_601a2a7da3b7a96e9554ac7215c4b07c>@@@Z@4HA 00000001800269be f   libucrt:signal.obj
 0001:000259be       ?fin$0@?0???$?RV<lambda_d80eeec6fff315bfe5c115232f3240e3>@@AEAV<lambda_6e4b09c48022b2350581041d5f6b0c4c>@@V<lambda_2358e3775559c9db80273638284d5e45>@@@?$__crt_seh_guarded_call@X@@QEAAX$$QEAV<lambda_d80eeec6fff315bfe5c115232f3240e3>@@AEAV<lambda_6e4b09c48022b2350581041d5f6b0c4c>@@$$QEAV<lambda_2358e3775559c9db80273638284d5e45>@@@Z@4HA 00000001800269be f   libucrt:exit.obj
 0001:000259be       ?fin$0@?0???$?RV<lambda_7777bce6b2f8c936911f934f8298dc43>@@AEAV<lambda_f03950bc5685219e0bcd2087efbe011e>@@V<lambda_3883c3dff614d5e0c5f61bb1ac94921c>@@@?$__crt_seh_guarded_call@H@@QEAAH$$QEAV<lambda_7777bce6b2f8c936911f934f8298dc43>@@AEAV<lambda_f03950bc5685219e0bcd2087efbe011e>@@$$QEAV<lambda_3883c3dff614d5e0c5f61bb1ac94921c>@@@Z@4HA 00000001800269be f   libucrt:onexit.obj
 0001:000259d8       ?filt$0@?0???R<lambda_6e4b09c48022b2350581041d5f6b0c4c>@@QEBA@XZ@4HA 00000001800269d8 f   libucrt:exit.obj
 0001:000259f3       ?fin$0@?0???$?RV<lambda_410d79af7f07d98d83a3f525b3859a53>@@AEAV<lambda_3e16ef9562a7dcce91392c22ab16ea36>@@V<lambda_38119f0e861e05405d8a144b9b982f0a>@@@?$__crt_seh_guarded_call@X@@QEAAX$$QEAV<lambda_410d79af7f07d98d83a3f525b3859a53>@@AEAV<lambda_3e16ef9562a7dcce91392c22ab16ea36>@@$$QEAV<lambda_38119f0e861e05405d8a144b9b982f0a>@@@Z@4HA 00000001800269f3 f   libucrt:wsetlocale.obj
 0001:00025a0d       ?fin$0@?0??update_thread_multibyte_data_internal@@YAPEAU__crt_multibyte_data@@QEAU__acrt_ptd@@QEAPEAU1@@Z@4HA 0000000180026a0d f   libucrt:mbctype.obj
 0001:00025a26       __acrt_initialize_lowio$fin$0 0000000180026a26 f   libucrt:ioinit.obj
 0001:00025a26       __acrt_lowio_ensure_fh_exists$fin$0 0000000180026a26 f   libucrt:osfinfo.obj
 0001:00025a3f       raise$fin$0                0000000180026a3f f   libucrt:signal.obj
 0001:00025a60       ?fin$0@?0???$?RV<lambda_842d9ff0dc9ef11c61343bbaebe7f885>@@AEAV<lambda_c5860995281e5c4ce005b3de8f5874ee>@@V<lambda_d90129c13df834fdcbf8d2b88dafcf2d>@@@?$__crt_seh_guarded_call@X@@QEAAX$$QEAV<lambda_842d9ff0dc9ef11c61343bbaebe7f885>@@AEAV<lambda_c5860995281e5c4ce005b3de8f5874ee>@@$$QEAV<lambda_d90129c13df834fdcbf8d2b88dafcf2d>@@@Z@4HA 0000000180026a60 f   libucrt:fflush.obj
 0001:00025a7b       ?fin$0@?0???$?RV<lambda_886d6c58226a84441f68b9f2b8217b83>@@AEAV<lambda_ab61a845afdef5b7c387490eaf3616ee>@@V<lambda_f7f22ab5edc0698d5f6905b0d3f44752>@@@?$__crt_seh_guarded_call@X@@QEAAX$$QEAV<lambda_886d6c58226a84441f68b9f2b8217b83>@@AEAV<lambda_ab61a845afdef5b7c387490eaf3616ee>@@$$QEAV<lambda_f7f22ab5edc0698d5f6905b0d3f44752>@@@Z@4HA 0000000180026a7b f   libucrt:fflush.obj
 0001:00025a98       __acrt_update_thread_locale_data$fin$0 0000000180026a98 f   libucrt:locale_refcounting.obj
 0001:00025ab1       ?fin$0@?0???$?RV<lambda_751a882b2c74d4b022dec766aa51a29a>@@AEAV<lambda_628dfdc04ba53c8bfc02c9951375f3f5>@@V<lambda_f6c7be5f7998530c34de24c7437d6b54>@@@?$__crt_seh_guarded_call@H@@QEAAH$$QEAV<lambda_751a882b2c74d4b022dec766aa51a29a>@@AEAV<lambda_628dfdc04ba53c8bfc02c9951375f3f5>@@$$QEAV<lambda_f6c7be5f7998530c34de24c7437d6b54>@@@Z@4HA 0000000180026ab1 f   libucrt:close.obj
 0001:00025ab1       ?fin$0@?0???$?RV<lambda_a37b2b86f63e897a80ea819b0eb08c01>@@AEAV<lambda_38ce7e780aa69e748d6df282ebc68efe>@@V<lambda_99fb1378e971ab6e7edea83e3a7a83a2>@@@?$__crt_seh_guarded_call@H@@QEAAH$$QEAV<lambda_a37b2b86f63e897a80ea819b0eb08c01>@@AEAV<lambda_38ce7e780aa69e748d6df282ebc68efe>@@$$QEAV<lambda_99fb1378e971ab6e7edea83e3a7a83a2>@@@Z@4HA 0000000180026ab1 f   libucrt:commit.obj
 0001:00025acb       _write$fin$0               0000000180026acb f   libucrt:write.obj
 0001:00025ae2       _fcloseall$fin$0           0000000180026ae2 f   libucrt:closeall.obj
 0001:00025afb       fclose$fin$0               0000000180026afb f   libucrt:fclose.obj
 0001:00025b13       _ctrlfp$filt$0             0000000180026b13 f   libucrt:fpctrl.obj
 0001:00025b40       _IsNonwritableInCurrentImage$filt$0 0000000180026b40 f   LIBCMT:pesect.obj
 0002:00000460       GS_ExceptionPointers       0000000180027460     LIBCMT:gs_report.obj
 0002:000004b0       ?tokenTable@@3QBUStringLiteral@@B 00000001800274b0     libvcruntime:undname.obj
 0002:000005b0       ?nameTable@@3QBUStringLiteral@@B 00000001800275b0     libvcruntime:undname.obj
 0002:00000ae0       ?rttiTable@@3QBUStringLiteral@@B 0000000180027ae0     libvcruntime:undname.obj
 0002:00000b30       ?IndirectionName@@3QBUStringLiteral@@B 0000000180027b30     libvcruntime:undname.obj
 0002:00000b90       ?PrefixName@@3QBUStringLiteral@@B 0000000180027b90     libvcruntime:undname.obj
 0002:00001268       ?module_names@?A0x3064ecbf@@3QBQEB_WB 0000000180028268     libvcruntime:winapi_downlevel.obj
 0002:00001328       ?candidate_modules@?1??try_get_FlsAlloc@@YAP6AKP6AXPEAX@Z@ZXZ@4QBW4module_id@?A0x3064ecbf@@B 0000000180028328     libvcruntime:winapi_downlevel.obj
 0002:00001340       ?candidate_modules@?1??try_get_FlsFree@@YAP6AHK@ZXZ@4QBW4module_id@?A0x3064ecbf@@B 0000000180028340     libvcruntime:winapi_downlevel.obj
 0002:00001350       ?candidate_modules@?1??try_get_FlsGetValue@@YAP6APEAXK@ZXZ@4QBW4module_id@?A0x3064ecbf@@B 0000000180028350     libvcruntime:winapi_downlevel.obj
 0002:00001368       ?candidate_modules@?1??try_get_FlsSetValue@@YAP6AHKPEAX@ZXZ@4QBW4module_id@?A0x3064ecbf@@B 0000000180028368     libvcruntime:winapi_downlevel.obj
 0002:00001380       ?candidate_modules@?1??try_get_InitializeCriticalSectionEx@@YAP6AHPEAU_RTL_CRITICAL_SECTION@@KK@ZXZ@4QBW4module_id@?A0x3064ecbf@@B 0000000180028380     libvcruntime:winapi_downlevel.obj
 0002:000014b0       __acrt_initializers        00000001800284b0     libucrt:initialization.obj
 0002:000015b0       ?errtable@@3QBUerrentry@?A0x31fdb9ec@@B 00000001800285b0     libucrt:errno.obj
 0002:00001da0       ?_mb_locale_names@@3QBQEB_WB 0000000180028da0     libucrt:mbctype.obj
 0002:00001e00       ?module_names@?A0x391cf84c@@3QBQEB_WB 0000000180028e00     libucrt:winapi_thunks.obj
 0002:00002308       ?candidate_modules@?1??try_get_AreFileApisANSI@@YAP6AHXZXZ@4QBW4module_id@?A0x391cf84c@@B 0000000180029308     libucrt:winapi_thunks.obj
 0002:00002320       ?candidate_modules@?1??try_get_FlsAlloc@@YAP6AKP6AXPEAX@Z@ZXZ@4QBW4module_id@?A0x391cf84c@@B 0000000180029320     libucrt:winapi_thunks.obj
 0002:00002328       ?candidate_modules@?1??try_get_FlsFree@@YAP6AHK@ZXZ@4QBW4module_id@?A0x391cf84c@@B 0000000180029328     libucrt:winapi_thunks.obj
 0002:00002330       ?candidate_modules@?1??try_get_FlsGetValue@@YAP6APEAXK@ZXZ@4QBW4module_id@?A0x391cf84c@@B 0000000180029330     libucrt:winapi_thunks.obj
 0002:00002338       ?candidate_modules@?1??try_get_FlsSetValue@@YAP6AHKPEAX@ZXZ@4QBW4module_id@?A0x391cf84c@@B 0000000180029338     libucrt:winapi_thunks.obj
 0002:00002340       ?candidate_modules@?1??try_get_InitializeCriticalSectionEx@@YAP6AHPEAU_RTL_CRITICAL_SECTION@@KK@ZXZ@4QBW4module_id@?A0x391cf84c@@B 0000000180029340     libucrt:winapi_thunks.obj
 0002:00002348       ?candidate_modules@?1??try_get_LCMapStringEx@@YAP6AHPEB_WK0HPEA_WHPEAU_nlsversioninfo@@PEAX_J@ZXZ@4QBW4module_id@?A0x391cf84c@@B 0000000180029348     libucrt:winapi_thunks.obj
 0002:00002360       ?candidate_modules@?1??try_get_LocaleNameToLCID@@YAP6AKPEB_WK@ZXZ@4QBW4module_id@?A0x391cf84c@@B 0000000180029360     libucrt:winapi_thunks.obj
 0002:0000237c       ?candidate_modules@?1??try_get_AppPolicyGetProcessTerminationMethod@@YAP6AJPEAXPEAW4AppPolicyProcessTerminationMethod@@@ZXZ@4QBW4module_id@?A0x391cf84c@@B 000000018002937c     libucrt:winapi_thunks.obj
 0002:000029c0       ?LcidToLocaleNameTable@?A0x881e4c05@@3QBULcidToLocaleName@1@B 00000001800299c0     libucrt:lcidtoname_downlevel.obj
 0002:00004420       ?LocaleNameToIndexTable@?A0x881e4c05@@3QBULocaleNameIndex@1@B 000000018002b420     libucrt:lcidtoname_downlevel.obj
 0002:00005cc0       __real_ninf                000000018002ccc0     libucrt:log10.obj
 0002:00005cd0       __real_inf                 000000018002ccd0     libucrt:log10.obj
 0002:00005ce0       __real_neg_qnan            000000018002cce0     libucrt:log10.obj
 0002:00005cf0       __real_qnanbit             000000018002ccf0     libucrt:log10.obj
 0002:00005d00       __int_1023                 000000018002cd00     libucrt:log10.obj
 0002:00005d10       __mask_001                 000000018002cd10     libucrt:log10.obj
 0002:00005d20       __mask_mant                000000018002cd20     libucrt:log10.obj
 0002:00005d30       __mask_mant_top8           000000018002cd30     libucrt:log10.obj
 0002:00005d40       __mask_mant9               000000018002cd40     libucrt:log10.obj
 0002:00005d50       __real_log10_e             000000018002cd50     libucrt:log10.obj
 0002:00005d60       __real_log10_e_lead        000000018002cd60     libucrt:log10.obj
 0002:00005d70       __real_log10_e_tail        000000018002cd70     libucrt:log10.obj
 0002:00005d80       __real_log10_2_lead        000000018002cd80     libucrt:log10.obj
 0002:00005d90       __real_log10_2_tail        000000018002cd90     libucrt:log10.obj
 0002:00005da0       __real_two                 000000018002cda0     libucrt:log10.obj
 0002:00005db0       __real_one                 000000018002cdb0     libucrt:log10.obj
 0002:00005dc0       __real_half                000000018002cdc0     libucrt:log10.obj
 0002:00005dd0       __mask_100                 000000018002cdd0     libucrt:log10.obj
 0002:00005de0       __real_1_over_512          000000018002cde0     libucrt:log10.obj
 0002:00005df0       __real_1_over_2            000000018002cdf0     libucrt:log10.obj
 0002:00005e00       __real_1_over_3            000000018002ce00     libucrt:log10.obj
 0002:00005e10       __real_1_over_4            000000018002ce10     libucrt:log10.obj
 0002:00005e20       __real_1_over_5            000000018002ce20     libucrt:log10.obj
 0002:00005e30       __real_1_over_6            000000018002ce30     libucrt:log10.obj
 0002:00005e40       __real_neg_1023            000000018002ce40     libucrt:log10.obj
 0002:00005e50       __mask_2045                000000018002ce50     libucrt:log10.obj
 0002:00005e60       __real_threshold           000000018002ce60     libucrt:log10.obj
 0002:00005e70       __real_near_one_lt         000000018002ce70     libucrt:log10.obj
 0002:00005e80       __real_near_one_gt         000000018002ce80     libucrt:log10.obj
 0002:00005e90       __real_min_norm            000000018002ce90     libucrt:log10.obj
 0002:00005ea0       __real_notsign             000000018002cea0     libucrt:log10.obj
 0002:00005eb0       __real_ca1                 000000018002ceb0     libucrt:log10.obj
 0002:00005ec0       __real_ca2                 000000018002cec0     libucrt:log10.obj
 0002:00005ed0       __real_ca3                 000000018002ced0     libucrt:log10.obj
 0002:00005ee0       __real_ca4                 000000018002cee0     libucrt:log10.obj
 0002:00005ef0       __mask_lower               000000018002cef0     libucrt:log10.obj
 0002:00005f00       __flag_x_zero              000000018002cf00     libucrt:log10.obj
 0002:00005f04       __flag_x_neg               000000018002cf04     libucrt:log10.obj
 0002:00005f08       __flag_x_nan               000000018002cf08     libucrt:log10.obj
 0002:00007760       __real@433fffffffffffff    000000018002e760     libucrt:fpsr.obj
 0002:00007768       __real@c33fffffffffffff    000000018002e768     libucrt:fpsr.obj
 0002:000077ce       ?_Fake_alloc@std@@3U_Fake_allocator@1@B 000000018002e7ce     addon.obj
 0002:000077cf       ?piecewise_construct@std@@3Upiecewise_construct_t@1@B 000000018002e7cf     addon.obj
 0002:000077d0       ?_Fake_alloc@std@@3U_Fake_allocator@1@B 000000018002e7d0     minkowski.obj
 0002:000077d1       ?piecewise_construct@std@@3Upiecewise_construct_t@1@B 000000018002e7d1     minkowski.obj
 0002:00008148       $unwind$?FunctionCallbackWrapper@imp@Nan@@YAXAEBV?$FunctionCallbackInfo@VValue@v8@@@v8@@@Z 000000018002f148     addon.obj
 0002:00008158       $unwind$?InitAll@@YAXV?$Local@VObject@v8@@@v8@@@Z 000000018002f158     addon.obj
 0002:0000816c       $unwind$?_Raise@exception@stdext@@QEBAXXZ 000000018002f16c     minkowski.obj
 0002:0000816c       $unwind$??0length_error@std@@QEAA@PEBD@Z 000000018002f16c     libcpmt:xthrow.obj
 0002:0000816c       $unwind$?__mbrtowc_utf8@__crt_mbstring@@YA_KPEA_WPEBD_KPEAU_Mbstatet@@@Z 000000018002f16c     libucrt:mbrtowc.obj
 0002:00008174       $unwind$??1?$pair@U?$pair@V?$point_data@H@polygon@boost@@V123@@std@@V?$vector@U?$pair@HH@std@@V?$allocator@U?$pair@HH@std@@@2@@2@@std@@QEAA@XZ 000000018002f174     minkowski.obj
 0002:00008174       $unwind$??1?$polygon_with_holes_data@H@polygon@boost@@QEAA@XZ 000000018002f174     minkowski.obj
 0002:00008174       $unwind$??1?$scanline@HHV?$vector@HV?$allocator@H@std@@@std@@@polygon@boost@@QEAA@XZ 000000018002f174     minkowski.obj
 0002:00008174       $unwind$??1?$vector@U?$pair@U?$pair@V?$point_data@H@polygon@boost@@V123@@std@@U?$pair@HH@2@@std@@V?$allocator@U?$pair@U?$pair@V?$point_data@H@polygon@boost@@V123@@std@@U?$pair@HH@2@@std@@@2@@std@@QEAA@XZ 000000018002f174     minkowski.obj
 0002:00008174       $unwind$??1?$vector@U?$pair@U?$pair@V?$point_data@H@polygon@boost@@V123@@std@@V?$vector@U?$pair@HH@std@@V?$allocator@U?$pair@HH@std@@@2@@2@@std@@V?$allocator@U?$pair@U?$pair@V?$point_data@H@polygon@boost@@V123@@std@@V?$vector@U?$pair@HH@std@@V?$allocator@U?$pair@HH@std@@@2@@2@@std@@@2@@std@@QEAA@XZ 000000018002f174     minkowski.obj
 0002:00008174       $unwind$??_Gbad_array_new_length@stdext@@UEAAPEAXI@Z 000000018002f174     minkowski.obj
 0002:00008174       $unwind$??_Gexception@stdext@@UEAAPEAXI@Z 000000018002f174     minkowski.obj
 0002:00008174       $unwind$?_Tidy@?$vector@U?$pair@U?$pair@V?$point_data@H@polygon@boost@@V123@@std@@H@std@@V?$allocator@U?$pair@U?$pair@V?$point_data@H@polygon@boost@@V123@@std@@H@std@@@2@@std@@AEAAXXZ 000000018002f174     minkowski.obj
 0002:00008174       $unwind$?_Umove@?$vector@U?$pair@U?$pair@V?$point_data@H@polygon@boost@@V123@@std@@V?$vector@U?$pair@HH@std@@V?$allocator@U?$pair@HH@std@@@2@@2@@std@@V?$allocator@U?$pair@U?$pair@V?$point_data@H@polygon@boost@@V123@@std@@V?$vector@U?$pair@HH@std@@V?$allocator@U?$pair@HH@std@@@2@@2@@std@@@2@@std@@AEAAPEAU?$pair@U?$pair@V?$point_data@H@polygon@boost@@V123@@std@@V?$vector@U?$pair@HH@std@@V?$allocator@U?$pair@HH@std@@@2@@2@@2@PEAU32@00@Z 000000018002f174     minkowski.obj
 0002:00008174       $unwind$?clear@?$vector@U?$pair@U?$pair@V?$point_data@H@polygon@boost@@V123@@std@@V?$vector@U?$pair@HH@std@@V?$allocator@U?$pair@HH@std@@@2@@2@@std@@V?$allocator@U?$pair@U?$pair@V?$point_data@H@polygon@boost@@V123@@std@@V?$vector@U?$pair@HH@std@@V?$allocator@U?$pair@HH@std@@@2@@2@@std@@@2@@std@@QEAAXXZ 000000018002f174     minkowski.obj
 0002:00008174       $unwind$?insert_clean@?$polygon_set_data@H@polygon@boost@@QEAAXAEBU?$pair@U?$pair@V?$point_data@H@polygon@boost@@V123@@std@@H@std@@_N@Z 000000018002f174     minkowski.obj
 0002:00008174       $unwind$__raise_securityfailure 000000018002f174     LIBCMT:gs_report.obj
 0002:00008174       $unwind$??2@YAPEAX_K@Z     000000018002f174     LIBCMT:new_scalar.obj
 0002:00008174       $unwind$??_Gtype_info@@UEAAPEAXI@Z 000000018002f174     LIBCMT:std_type_info_static.obj
 0002:00008174       $unwind$??0bad_array_new_length@std@@QEAA@AEBV01@@Z 000000018002f174     LIBCMT:throw_bad_alloc.obj
 0002:00008174       $unwind$__scrt_initialize_crt 000000018002f174     LIBCMT:utility.obj
 0002:00008174       $unwind$__scrt_initialize_onexit_tables 000000018002f174     LIBCMT:utility.obj
 0002:00008174       $unwind$__scrt_release_startup_lock 000000018002f174     LIBCMT:utility.obj
 0002:00008174       $unwind$__scrt_uninitialize_crt 000000018002f174     LIBCMT:utility.obj
 0002:00008174       $unwind$??0bad_alloc@std@@QEAA@AEBV01@@Z 000000018002f174     libcpmt:xthrow.obj
 0002:00008174       $unwind$??0exception@std@@QEAA@AEBV01@@Z 000000018002f174     libcpmt:xthrow.obj
 0002:00008174       $unwind$??0length_error@std@@QEAA@AEBV01@@Z 000000018002f174     libcpmt:xthrow.obj
 0002:00008174       $unwind$??0logic_error@std@@QEAA@AEBV01@@Z 000000018002f174     libcpmt:xthrow.obj
 0002:00008174       $unwind$__vcrt_uninitialize_locks 000000018002f174     libvcruntime:locks.obj
 0002:00008174       $unwind$__vcrt_freeptd     000000018002f174     libvcruntime:per_thread_data.obj
 0002:00008174       $unwind$__std_exception_destroy 000000018002f174     libvcruntime:std_exception.obj
 0002:00008174       $unwind$__std_type_info_destroy_list 000000018002f174     libvcruntime:std_type_info.obj
 0002:00008174       $unwind$__vcrt_FlsAlloc    000000018002f174     libvcruntime:winapi_downlevel.obj
 0002:00008174       $unwind$__vcrt_FlsFree     000000018002f174     libvcruntime:winapi_downlevel.obj
 0002:00008174       $unwind$__vcrt_FlsGetValue 000000018002f174     libvcruntime:winapi_downlevel.obj
 0002:00008174       $unwind$_calloc_base       000000018002f174     libucrt:calloc_base.obj
 0002:00008174       $unwind$_malloc_base       000000018002f174     libucrt:malloc_base.obj
 0002:00008174       $unwind$_callnewh          000000018002f174     libucrt:new_handler.obj
 0002:00008174       $unwind$initialize_pointers 000000018002f174     libucrt:initialization.obj
 0002:00008174       $unwind$uninitialize_allocated_memory 000000018002f174     libucrt:initialization.obj
 0002:00008174       $unwind$__acrt_initialize_locks 000000018002f174     libucrt:locks.obj
 0002:00008174       $unwind$__acrt_uninitialize_locks 000000018002f174     libucrt:locks.obj
 0002:00008174       $unwind$__acrt_freeptd     000000018002f174     libucrt:per_thread_data.obj
 0002:00008174       $unwind$__acrt_getptd_head 000000018002f174     libucrt:per_thread_data.obj
 0002:00008174       $unwind$__acrt_get_process_end_policy 000000018002f174     libucrt:win_policies.obj
 0002:00008174       $unwind$__acrt_AppPolicyGetProcessTerminationMethodInternal 000000018002f174     libucrt:winapi_thunks.obj
 0002:00008174       $unwind$__acrt_FlsAlloc    000000018002f174     libucrt:winapi_thunks.obj
 0002:00008174       $unwind$__acrt_FlsFree     000000018002f174     libucrt:winapi_thunks.obj
 0002:00008174       $unwind$__acrt_FlsGetValue 000000018002f174     libucrt:winapi_thunks.obj
 0002:00008174       $unwind$__acrt_uninitialize_winapi_thunks 000000018002f174     libucrt:winapi_thunks.obj
 0002:00008174       $unwind$__acrt_update_locale_info 000000018002f174     libucrt:locale_update.obj
 0002:00008174       $unwind$__acrt_update_multibyte_info 000000018002f174     libucrt:locale_update.obj
 0002:00008174       $unwind$__acrt_allocate_buffer_for_argv 000000018002f174     libucrt:argv_parsing.obj
 0002:00008174       $unwind$?exit_or_terminate_process@@YAXI@Z 000000018002f174     libucrt:exit.obj
 0002:00008174       $unwind$?try_cor_exit_process@@YAXI@Z 000000018002f174     libucrt:exit.obj
 0002:00008174       $unwind$__acrt_uninitialize_stdio 000000018002f174     libucrt:_file.obj
 0002:00008174       $unwind$__acrt_stdio_free_buffer_nolock 000000018002f174     libucrt:_freebuf.obj
 0002:00008174       $unwind$_fflush_nolock     000000018002f174     libucrt:fflush.obj
 0002:00008174       $unwind$strcpy_s           000000018002f174     libucrt:strcpy_s.obj
 0002:00008174       $unwind$_clrfp             000000018002f174     libucrt:fpctrl.obj
 0002:00008174       $unwind$_set_statfp        000000018002f174     libucrt:fpctrl.obj
 0002:0000817c       $unwind$?_Doraise@bad_alloc@stdext@@MEBAXXZ 000000018002f17c     minkowski.obj
 0002:0000817c       $unwind$?_Throw_bad_array_new_length@std@@YAXXZ 000000018002f17c     minkowski.obj
 0002:0000817c       $unwind$_invalid_parameter_noinfo 000000018002f17c     libucrt:invalid_parameter.obj
 0002:0000817c       $unwind$_invalid_parameter_noinfo_noreturn 000000018002f17c     libucrt:invalid_parameter.obj
 0002:0000817c       $unwind$_log10_special     000000018002f17c     libucrt:log_special.obj
 0002:00008184       $unwind$?_Throw_tree_length_error@std@@YAXXZ 000000018002f184     minkowski.obj
 0002:00008184       $unwind$?_Xlength@?$vector@HV?$allocator@H@std@@@std@@CAXXZ 000000018002f184     minkowski.obj
 0002:00008184       $unwind$?_Xlength@?$vector@PEAVactive_tail_arbitrary@?$polygon_arbitrary_formation@H@polygon@boost@@V?$allocator@PEAVactive_tail_arbitrary@?$polygon_arbitrary_formation@H@polygon@boost@@@std@@@std@@CAXXZ 000000018002f184     minkowski.obj
 0002:00008184       $unwind$?_Xlength@?$vector@U?$pair@HH@std@@V?$allocator@U?$pair@HH@std@@@2@@std@@CAXXZ 000000018002f184     minkowski.obj
 0002:00008184       $unwind$?_Xlength@?$vector@U?$pair@HU?$pair@_K_K@std@@@std@@V?$allocator@U?$pair@HU?$pair@_K_K@std@@@std@@@2@@std@@CAXXZ 000000018002f184     minkowski.obj
 0002:00008184       $unwind$?_Xlength@?$vector@U?$pair@U?$pair@U?$pair@V?$point_data@H@polygon@boost@@V123@@std@@H@std@@PEAVactive_tail_arbitrary@?$polygon_arbitrary_formation@H@polygon@boost@@@std@@V?$allocator@U?$pair@U?$pair@U?$pair@V?$point_data@H@polygon@boost@@V123@@std@@H@std@@PEAVactive_tail_arbitrary@?$polygon_arbitrary_formation@H@polygon@boost@@@std@@@2@@std@@CAXXZ 000000018002f184     minkowski.obj
 0002:00008184       $unwind$?_Xlength@?$vector@U?$pair@U?$pair@V?$point_data@H@polygon@boost@@V123@@std@@H@std@@V?$allocator@U?$pair@U?$pair@V?$point_data@H@polygon@boost@@V123@@std@@H@std@@@2@@std@@CAXXZ 000000018002f184     minkowski.obj
 0002:00008184       $unwind$?_Xlength@?$vector@U?$pair@U?$pair@V?$point_data@H@polygon@boost@@V123@@std@@U?$pair@HH@2@@std@@V?$allocator@U?$pair@U?$pair@V?$point_data@H@polygon@boost@@V123@@std@@U?$pair@HH@2@@std@@@2@@std@@CAXXZ 000000018002f184     minkowski.obj
 0002:00008184       $unwind$?_Xlength@?$vector@U?$pair@U?$pair@V?$point_data@H@polygon@boost@@V123@@std@@V?$vector@U?$pair@HH@std@@V?$allocator@U?$pair@HH@std@@@2@@2@@std@@V?$allocator@U?$pair@U?$pair@V?$point_data@H@polygon@boost@@V123@@std@@V?$vector@U?$pair@HH@std@@V?$allocator@U?$pair@HH@std@@@2@@2@@std@@@2@@std@@CAXXZ 000000018002f184     minkowski.obj
 0002:00008184       $unwind$?_Xlength@?$vector@U?$pair@V?$point_data@H@polygon@boost@@H@std@@V?$allocator@U?$pair@V?$point_data@H@polygon@boost@@H@std@@@2@@std@@CAXXZ 000000018002f184     minkowski.obj
 0002:00008184       $unwind$?_Xlength@?$vector@U?$pair@Vvertex_half_edge@?$scanline_base@H@polygon@boost@@PEAVactive_tail_arbitrary@?$polygon_arbitrary_formation@H@34@@std@@V?$allocator@U?$pair@Vvertex_half_edge@?$scanline_base@H@polygon@boost@@PEAVactive_tail_arbitrary@?$polygon_arbitrary_formation@H@34@@std@@@2@@std@@CAXXZ 000000018002f184     minkowski.obj
 0002:00008184       $unwind$?_Xlength@?$vector@V?$_Tree_iterator@V?$_Tree_val@U?$_Tree_simple_types@U?$pair@$$CBU?$pair@V?$point_data@H@polygon@boost@@V123@@std@@V?$vector@U?$pair@HH@std@@V?$allocator@U?$pair@HH@std@@@2@@2@@std@@@std@@@std@@@std@@V?$allocator@V?$_Tree_iterator@V?$_Tree_val@U?$_Tree_simple_types@U?$pair@$$CBU?$pair@V?$point_data@H@polygon@boost@@V123@@std@@V?$vector@U?$pair@HH@std@@V?$allocator@U?$pair@HH@std@@@2@@2@@std@@@std@@@std@@@std@@@2@@std@@CAXXZ 000000018002f184     minkowski.obj
 0002:00008184       $unwind$?_Xlength@?$vector@V?$_Tree_iterator@V?$_Tree_val@U?$_Tree_simple_types@U?$pair@$$CBVvertex_half_edge@?$scanline_base@H@polygon@boost@@PEAVactive_tail_arbitrary@?$polygon_arbitrary_formation@H@34@@std@@@std@@@std@@@std@@V?$allocator@V?$_Tree_iterator@V?$_Tree_val@U?$_Tree_simple_types@U?$pair@$$CBVvertex_half_edge@?$scanline_base@H@polygon@boost@@PEAVactive_tail_arbitrary@?$polygon_arbitrary_formation@H@34@@std@@@std@@@std@@@std@@@2@@std@@CAXXZ 000000018002f184     minkowski.obj
 0002:00008184       $unwind$?_Xlength@?$vector@V?$point_data@H@polygon@boost@@V?$allocator@V?$point_data@H@polygon@boost@@@std@@@std@@CAXXZ 000000018002f184     minkowski.obj
 0002:00008184       $unwind$?_Xlength@?$vector@V?$polygon_data@H@polygon@boost@@V?$allocator@V?$polygon_data@H@polygon@boost@@@std@@@std@@CAXXZ 000000018002f184     minkowski.obj
 0002:00008184       $unwind$?_Xlength@?$vector@V?$polygon_with_holes_data@H@polygon@boost@@V?$allocator@V?$polygon_with_holes_data@H@polygon@boost@@@std@@@std@@CAXXZ 000000018002f184     minkowski.obj
 0002:00008184       $unwind$?_Xlength@?$vector@V?$set@V?$point_data@H@polygon@boost@@U?$less@V?$point_data@H@polygon@boost@@@std@@V?$allocator@V?$point_data@H@polygon@boost@@@5@@std@@V?$allocator@V?$set@V?$point_data@H@polygon@boost@@U?$less@V?$point_data@H@polygon@boost@@@std@@V?$allocator@V?$point_data@H@polygon@boost@@@5@@std@@@2@@std@@CAXXZ 000000018002f184     minkowski.obj
 0002:00008184       $unwind$?_Xlength@?$vector@Vvertex_half_edge@?$scanline_base@H@polygon@boost@@V?$allocator@Vvertex_half_edge@?$scanline_base@H@polygon@boost@@@std@@@std@@CAXXZ 000000018002f184     minkowski.obj
 0002:00008184       $unwind$?allocate@?$allocator@H@std@@QEAAPEAH_K@Z 000000018002f184     minkowski.obj
 0002:00008184       $unwind$?allocate@?$allocator@PEAVactive_tail_arbitrary@?$polygon_arbitrary_formation@H@polygon@boost@@@std@@QEAAPEAPEAVactive_tail_arbitrary@?$polygon_arbitrary_formation@H@polygon@boost@@_K@Z 000000018002f184     minkowski.obj
 0002:00008184       $unwind$?allocate@?$allocator@U?$pair@HH@std@@@std@@QEAAPEAU?$pair@HH@2@_K@Z 000000018002f184     minkowski.obj
 0002:00008184       $unwind$?allocate@?$allocator@U?$pair@HU?$pair@_K_K@std@@@std@@@std@@QEAAPEAU?$pair@HU?$pair@_K_K@std@@@2@_K@Z 000000018002f184     minkowski.obj
 0002:00008184       $unwind$?allocate@?$allocator@U?$pair@U?$pair@V?$point_data@H@polygon@boost@@V123@@std@@H@std@@@std@@QEAAPEAU?$pair@U?$pair@V?$point_data@H@polygon@boost@@V123@@std@@H@2@_K@Z 000000018002f184     minkowski.obj
 0002:00008184       $unwind$?allocate@?$allocator@U?$pair@U?$pair@V?$point_data@H@polygon@boost@@V123@@std@@V?$vector@U?$pair@HH@std@@V?$allocator@U?$pair@HH@std@@@2@@2@@std@@@std@@QEAAPEAU?$pair@U?$pair@V?$point_data@H@polygon@boost@@V123@@std@@V?$vector@U?$pair@HH@std@@V?$allocator@U?$pair@HH@std@@@2@@2@@2@_K@Z 000000018002f184     minkowski.obj
 0002:00008184       $unwind$?allocate@?$allocator@U?$pair@V?$point_data@H@polygon@boost@@H@std@@@std@@QEAAPEAU?$pair@V?$point_data@H@polygon@boost@@H@2@_K@Z 000000018002f184     minkowski.obj
 0002:00008184       $unwind$?allocate@?$allocator@V?$point_data@H@polygon@boost@@@std@@QEAAPEAV?$point_data@H@polygon@boost@@_K@Z 000000018002f184     minkowski.obj
 0002:00008184       $unwind$?allocate@?$allocator@V?$polygon_data@H@polygon@boost@@@std@@QEAAPEAV?$polygon_data@H@polygon@boost@@_K@Z 000000018002f184     minkowski.obj
 0002:00008184       $unwind$?copyHoles@active_tail_arbitrary@?$polygon_arbitrary_formation@H@polygon@boost@@QEAAXAEAV1234@@Z 000000018002f184     minkowski.obj
 0002:00008184       $unwind$?deallocate@?$allocator@U?$pair@HH@std@@@std@@QEAAXQEAU?$pair@HH@2@_K@Z 000000018002f184     minkowski.obj
 0002:00008184       $unwind$?deallocate@?$allocator@V?$point_data@H@polygon@boost@@@std@@QEAAXQEAV?$point_data@H@polygon@boost@@_K@Z 000000018002f184     minkowski.obj
 0002:00008184       $unwind$__scrt_initialize_default_local_stdio_options 000000018002f184     LIBCMT:default_local_stdio_options.obj
 0002:00008184       $unwind$?dllmain_crt_dispatch@@YAHQEAUHINSTANCE__@@KQEAX@Z 000000018002f184     LIBCMT:dll_dllmain.obj
 0002:00008184       $unwind$__report_rangecheckfailure 000000018002f184     LIBCMT:gs_report.obj
 0002:00008184       $unwind$__GSHandlerCheck   000000018002f184     LIBCMT:gshandler.obj
 0002:00008184       $unwind$__scrt_acquire_startup_lock 000000018002f184     LIBCMT:utility.obj
 0002:00008184       $unwind$__scrt_dllmain_after_initialize_c 000000018002f184     LIBCMT:utility.obj
 0002:00008184       $unwind$__scrt_dllmain_before_initialize_c 000000018002f184     LIBCMT:utility.obj
 0002:00008184       $unwind$__scrt_dllmain_crt_thread_attach 000000018002f184     LIBCMT:utility.obj
 0002:00008184       $unwind$__scrt_dllmain_crt_thread_detach 000000018002f184     LIBCMT:utility.obj
 0002:00008184       $unwind$__scrt_dllmain_uninitialize_c 000000018002f184     LIBCMT:utility.obj
 0002:00008184       $unwind$__scrt_dllmain_uninitialize_critical 000000018002f184     LIBCMT:utility.obj
 0002:00008184       $unwind$__vcrt_initialize  000000018002f184     libvcruntime:initialization.obj
 0002:00008184       $unwind$__vcrt_thread_attach 000000018002f184     libvcruntime:initialization.obj
 0002:00008184       $unwind$__vcrt_thread_detach 000000018002f184     libvcruntime:initialization.obj
 0002:00008184       $unwind$__vcrt_uninitialize 000000018002f184     libvcruntime:initialization.obj
 0002:00008184       $unwind$__vcrt_uninitialize_critical 000000018002f184     libvcruntime:initialization.obj
 0002:00008184       $unwind$__vcrt_initialize_locks 000000018002f184     libvcruntime:locks.obj
 0002:00008184       $unwind$__vcrt_freefls     000000018002f184     libvcruntime:per_thread_data.obj
 0002:00008184       $unwind$__vcrt_getptd      000000018002f184     libvcruntime:per_thread_data.obj
 0002:00008184       $unwind$__vcrt_initialize_ptd 000000018002f184     libvcruntime:per_thread_data.obj
 0002:00008184       $unwind$__vcrt_uninitialize_ptd 000000018002f184     libvcruntime:per_thread_data.obj
 0002:00008184       $unwind$__dcrt_terminate_console_output 000000018002f184     libucrt:initcon.obj
 0002:00008184       $unwind$??$uninitialize_environment_internal@D@@YAXAEAPEAPEAD@Z 000000018002f184     libucrt:environment_initialization.obj
 0002:00008184       $unwind$??$uninitialize_environment_internal@_W@@YAXAEAPEAPEA_W@Z 000000018002f184     libucrt:environment_initialization.obj
 0002:00008184       $unwind$__dcrt_uninitialize_environments_nolock 000000018002f184     libucrt:environment_initialization.obj
 0002:00008184       $unwind$__acrt_initialize_heap 000000018002f184     libucrt:heap_handle.obj
 0002:00008184       $unwind$_msize_base        000000018002f184     libucrt:msize.obj
 0002:00008184       $unwind$?initialize_multibyte@@YAHXZ 000000018002f184     libucrt:multibyte_initializer.obj
 0002:00008184       $unwind$__acrt_thread_attach 000000018002f184     libucrt:initialization.obj
 0002:00008184       $unwind$__acrt_thread_detach 000000018002f184     libucrt:initialization.obj
 0002:00008184       $unwind$__acrt_uninitialize 000000018002f184     libucrt:initialization.obj
 0002:00008184       $unwind$__acrt_uninitialize_critical 000000018002f184     libucrt:initialization.obj
 0002:00008184       $unwind$initialize_c       000000018002f184     libucrt:initialization.obj
 0002:00008184       $unwind$uninitialize_allocated_io_buffers 000000018002f184     libucrt:initialization.obj
 0002:00008184       $unwind$uninitialize_environment 000000018002f184     libucrt:initialization.obj
 0002:00008184       $unwind$__acrt_initialize_ptd 000000018002f184     libucrt:per_thread_data.obj
 0002:00008184       $unwind$__acrt_uninitialize_ptd 000000018002f184     libucrt:per_thread_data.obj
 0002:00008184       $unwind$__acrt_AreFileApisANSI 000000018002f184     libucrt:winapi_thunks.obj
 0002:00008184       $unwind$__pctype_func      000000018002f184     libucrt:ctype.obj
 0002:00008184       $unwind$__acrt_release_locale_ref 000000018002f184     libucrt:locale_refcounting.obj
 0002:00008184       $unwind$_isatty            000000018002f184     libucrt:isatty.obj
 0002:00008184       $unwind$_get_osfhandle     000000018002f184     libucrt:osfinfo.obj
 0002:00008184       $unwind$__acrt_initialize_multibyte 000000018002f184     libucrt:mbctype.obj
 0002:00008184       $unwind$__acrt_update_thread_multibyte_data 000000018002f184     libucrt:mbctype.obj
 0002:00008184       $unwind$__doserrno         000000018002f184     libucrt:errno.obj
 0002:00008184       $unwind$_errno             000000018002f184     libucrt:errno.obj
 0002:00008184       $unwind$_invoke_watson     000000018002f184     libucrt:invalid_parameter.obj
 0002:00008184       $unwind$abort              000000018002f184     libucrt:abort.obj
 0002:00008184       $unwind$__acrt_initialize_command_line 000000018002f184     libucrt:argv_data.obj
 0002:00008184       $unwind$_fileno            000000018002f184     libucrt:fileno.obj
 0002:00008184       $unwind$_statfp            000000018002f184     libucrt:fpctrl.obj
 0002:00008184       $unwind$_set_errno_from_matherr 000000018002f184     libucrt:fpexcept.obj
 0002:0000818c       $unwind$?convolve_two_polygon_sets@@YAXAEAV?$polygon_set_data@H@polygon@boost@@AEBV123@1@Z 000000018002f18c     minkowski.obj
 0002:000081ac       $unwind$?calculateNFP@@YAXAEBV?$FunctionCallbackInfo@VValue@v8@@@Nan@@@Z 000000018002f1ac     minkowski.obj
 0002:000081fc       $unwind$??0?$polygon_with_holes_data@H@polygon@boost@@QEAA@AEBV012@@Z 000000018002f1fc     minkowski.obj
 0002:0000820c       $chain$1$??0?$polygon_with_holes_data@H@polygon@boost@@QEAA@AEBV012@@Z 000000018002f20c     minkowski.obj
 0002:00008224       $chain$2$??0?$polygon_with_holes_data@H@polygon@boost@@QEAA@AEBV012@@Z 000000018002f224     minkowski.obj
 0002:00008238       $chain$3$??0?$polygon_with_holes_data@H@polygon@boost@@QEAA@AEBV012@@Z 000000018002f238     minkowski.obj
 0002:00008248       $chain$4$??0?$polygon_with_holes_data@H@polygon@boost@@QEAA@AEBV012@@Z 000000018002f248     minkowski.obj
 0002:00008258       $unwind$??$emplace_back@AEBU?$pair@U?$pair@V?$point_data@H@polygon@boost@@V123@@std@@H@std@@@?$vector@U?$pair@U?$pair@V?$point_data@H@polygon@boost@@V123@@std@@H@std@@V?$allocator@U?$pair@U?$pair@V?$point_data@H@polygon@boost@@V123@@std@@H@std@@@2@@std@@QEAA?A_TAEBU?$pair@U?$pair@V?$point_data@H@polygon@boost@@V123@@std@@H@1@@Z 000000018002f258     minkowski.obj
 0002:00008258       $unwind$??$emplace_back@AEBU?$pair@U?$pair@V?$point_data@H@polygon@boost@@V123@@std@@V?$vector@U?$pair@HH@std@@V?$allocator@U?$pair@HH@std@@@2@@2@@std@@@?$vector@U?$pair@U?$pair@V?$point_data@H@polygon@boost@@V123@@std@@V?$vector@U?$pair@HH@std@@V?$allocator@U?$pair@HH@std@@@2@@2@@std@@V?$allocator@U?$pair@U?$pair@V?$point_data@H@polygon@boost@@V123@@std@@V?$vector@U?$pair@HH@std@@V?$allocator@U?$pair@HH@std@@@2@@2@@std@@@2@@std@@QEAA?A_TAEBU?$pair@U?$pair@V?$point_data@H@polygon@boost@@V123@@std@@V?$vector@U?$pair@HH@std@@V?$allocator@U?$pair@HH@std@@@2@@2@@1@@Z 000000018002f258     minkowski.obj
 0002:00008258       $unwind$??$emplace_back@U?$pair@U?$pair@V?$point_data@H@polygon@boost@@V123@@std@@H@std@@@?$vector@U?$pair@U?$pair@V?$point_data@H@polygon@boost@@V123@@std@@H@std@@V?$allocator@U?$pair@U?$pair@V?$point_data@H@polygon@boost@@V123@@std@@H@std@@@2@@std@@QEAA?A_T$$QEAU?$pair@U?$pair@V?$point_data@H@polygon@boost@@V123@@std@@H@1@@Z 000000018002f258     minkowski.obj
 0002:00008258       $unwind$?push_back@?$vector@V?$point_data@H@polygon@boost@@V?$allocator@V?$point_data@H@polygon@boost@@@std@@@std@@QEAAX$$QEAV?$point_data@H@polygon@boost@@@Z 000000018002f258     minkowski.obj
 0002:00008264       $chain$2$?push_back@?$vector@V?$point_data@H@polygon@boost@@V?$allocator@V?$point_data@H@polygon@boost@@@std@@@std@@QEAAX$$QEAV?$point_data@H@polygon@boost@@@Z 000000018002f264     minkowski.obj
 0002:00008280       $chain$4$?push_back@?$vector@V?$point_data@H@polygon@boost@@V?$allocator@V?$point_data@H@polygon@boost@@@std@@@std@@QEAAX$$QEAV?$point_data@H@polygon@boost@@@Z 000000018002f280     minkowski.obj
 0002:00008298       $unwind$??$_Erase_tree@V?$allocator@U?$_Tree_node@U?$pair@$$CBHV?$vector@U?$pair@U?$pair@V?$point_data@H@polygon@boost@@V123@@std@@H@std@@V?$allocator@U?$pair@U?$pair@V?$point_data@H@polygon@boost@@V123@@std@@H@std@@@2@@std@@@std@@PEAX@std@@@std@@@?$_Tree_val@U?$_Tree_simple_types@U?$pair@$$CBHV?$vector@U?$pair@U?$pair@V?$point_data@H@polygon@boost@@V123@@std@@H@std@@V?$allocator@U?$pair@U?$pair@V?$point_data@H@polygon@boost@@V123@@std@@H@std@@@2@@std@@@std@@@std@@@std@@QEAAXAEAV?$allocator@U?$_Tree_node@U?$pair@$$CBHV?$vector@U?$pair@U?$pair@V?$point_data@H@polygon@boost@@V123@@std@@H@std@@V?$allocator@U?$pair@U?$pair@V?$point_data@H@polygon@boost@@V123@@std@@H@std@@@2@@std@@@std@@PEAX@std@@@1@PEAU?$_Tree_node@U?$pair@$$CBHV?$vector@U?$pair@U?$pair@V?$point_data@H@polygon@boost@@V123@@std@@H@std@@V?$allocator@U?$pair@U?$pair@V?$point_data@H@polygon@boost@@V123@@std@@H@std@@@2@@std@@@std@@PEAX@1@@Z 000000018002f298     minkowski.obj
 0002:00008298       $unwind$??0?$polygon_data@H@polygon@boost@@QEAA@AEBV012@@Z 000000018002f298     minkowski.obj
 0002:00008298       $unwind$??0?$vector@U?$pair@HH@std@@V?$allocator@U?$pair@HH@std@@@2@@std@@QEAA@AEBV01@@Z 000000018002f298     minkowski.obj
 0002:000082a8       $chain$0$??0?$polygon_data@H@polygon@boost@@QEAA@AEBV012@@Z 000000018002f2a8     minkowski.obj
 0002:000082bc       $chain$1$??0?$polygon_data@H@polygon@boost@@QEAA@AEBV012@@Z 000000018002f2bc     minkowski.obj
 0002:000082cc       $unwind$??$convolve@V?$polygon_with_holes_data@H@polygon@boost@@V?$point_data@H@23@@polygon@boost@@YAAEAV?$polygon_with_holes_data@H@01@AEAV201@AEBV?$point_data@H@01@@Z 000000018002f2cc     minkowski.obj
 0002:000082e4       $unwind$??$_Free_non_head@V?$allocator@U?$_List_node@V?$polygon_data@H@polygon@boost@@PEAX@std@@@std@@@?$_List_node@V?$polygon_data@H@polygon@boost@@PEAX@std@@SAXAEAV?$allocator@U?$_List_node@V?$polygon_data@H@polygon@boost@@PEAX@std@@@1@PEAU01@@Z 000000018002f2e4     minkowski.obj
 0002:000082f0       $chain$0$??$_Free_non_head@V?$allocator@U?$_List_node@V?$polygon_data@H@polygon@boost@@PEAX@std@@@std@@@?$_List_node@V?$polygon_data@H@polygon@boost@@PEAX@std@@SAXAEAV?$allocator@U?$_List_node@V?$polygon_data@H@polygon@boost@@PEAX@std@@@1@PEAU01@@Z 000000018002f2f0     minkowski.obj
 0002:00008304       $chain$1$??$_Free_non_head@V?$allocator@U?$_List_node@V?$polygon_data@H@polygon@boost@@PEAX@std@@@std@@@?$_List_node@V?$polygon_data@H@polygon@boost@@PEAX@std@@SAXAEAV?$allocator@U?$_List_node@V?$polygon_data@H@polygon@boost@@PEAX@std@@@1@PEAU01@@Z 000000018002f304     minkowski.obj
 0002:00008314       $chain$2$??$_Free_non_head@V?$allocator@U?$_List_node@V?$polygon_data@H@polygon@boost@@PEAX@std@@@std@@@?$_List_node@V?$polygon_data@H@polygon@boost@@PEAX@std@@SAXAEAV?$allocator@U?$_List_node@V?$polygon_data@H@polygon@boost@@PEAX@std@@@1@PEAU01@@Z 000000018002f314     minkowski.obj
 0002:00008328       $unwind$??$set@V?$_Vector_const_iterator@V?$_Vector_val@U?$_Simple_types@U?$pair@U?$pair@V?$point_data@H@polygon@boost@@V123@@std@@H@std@@@std@@@std@@@std@@@?$polygon_set_mutable_traits@V?$polygon_set_data@H@polygon@boost@@@polygon@boost@@SAXAEAV?$polygon_set_data@H@12@V?$_Vector_const_iterator@V?$_Vector_val@U?$_Simple_types@U?$pair@U?$pair@V?$point_data@H@polygon@boost@@V123@@std@@H@std@@@std@@@std@@@std@@1@Z 000000018002f328     minkowski.obj
 0002:00008328       $unwind$?_Change_array@?$vector@HV?$allocator@H@std@@@std@@AEAAXQEAH_K1@Z 000000018002f328     minkowski.obj
 0002:00008328       $unwind$?_Change_array@?$vector@U?$pair@HH@std@@V?$allocator@U?$pair@HH@std@@@2@@std@@AEAAXQEAU?$pair@HH@2@_K1@Z 000000018002f328     minkowski.obj
 0002:00008328       $unwind$?_Change_array@?$vector@V?$point_data@H@polygon@boost@@V?$allocator@V?$point_data@H@polygon@boost@@@std@@@std@@AEAAXQEAV?$point_data@H@polygon@boost@@_K1@Z 000000018002f328     minkowski.obj
 0002:00008328       $unwind$__scrt_dllmain_exception_filter 000000018002f328     LIBCMT:utility.obj
 0002:00008328       $unwind$_recalloc_base     000000018002f328     libucrt:recalloc.obj
 0002:00008328       $unwind$__acrt_free_locale 000000018002f328     libucrt:locale_refcounting.obj
 0002:00008328       $unwind$__acrt_lowio_create_handle_array 000000018002f328     libucrt:osfinfo.obj
 0002:00008328       $unwind$?setSBCS@@YAXPEAU__crt_multibyte_data@@@Z 000000018002f328     libucrt:mbctype.obj
 0002:00008328       $unwind$_seh_filter_exe    000000018002f328     libucrt:exception_filter.obj
 0002:00008328       $unwind$_initterm          000000018002f328     libucrt:initterm.obj
 0002:0000833c       $unwind$??$convolve_two_point_sequences@V?$_Vector_const_iterator@V?$_Vector_val@U?$_Simple_types@V?$point_data@H@polygon@boost@@@std@@@std@@@std@@V12@@@YAXAEAV?$polygon_set_data@H@polygon@boost@@V?$_Vector_const_iterator@V?$_Vector_val@U?$_Simple_types@V?$point_data@H@polygon@boost@@@std@@@std@@@std@@111@Z 000000018002f33c     minkowski.obj
 0002:00008354       $chain$0$??$convolve_two_point_sequences@V?$_Vector_const_iterator@V?$_Vector_val@U?$_Simple_types@V?$point_data@H@polygon@boost@@@std@@@std@@@std@@V12@@@YAXAEAV?$polygon_set_data@H@polygon@boost@@V?$_Vector_const_iterator@V?$_Vector_val@U?$_Simple_types@V?$point_data@H@polygon@boost@@@std@@@std@@@std@@111@Z 000000018002f354     minkowski.obj
 0002:00008368       $chain$2$??$convolve_two_point_sequences@V?$_Vector_const_iterator@V?$_Vector_val@U?$_Simple_types@V?$point_data@H@polygon@boost@@@std@@@std@@@std@@V12@@@YAXAEAV?$polygon_set_data@H@polygon@boost@@V?$_Vector_const_iterator@V?$_Vector_val@U?$_Simple_types@V?$point_data@H@polygon@boost@@@std@@@std@@@std@@111@Z 000000018002f368     minkowski.obj
 0002:00008380       $chain$3$??$convolve_two_point_sequences@V?$_Vector_const_iterator@V?$_Vector_val@U?$_Simple_types@V?$point_data@H@polygon@boost@@@std@@@std@@@std@@V12@@@YAXAEAV?$polygon_set_data@H@polygon@boost@@V?$_Vector_const_iterator@V?$_Vector_val@U?$_Simple_types@V?$point_data@H@polygon@boost@@@std@@@std@@@std@@111@Z 000000018002f380     minkowski.obj
 0002:00008394       $chain$5$??$convolve_two_point_sequences@V?$_Vector_const_iterator@V?$_Vector_val@U?$_Simple_types@V?$point_data@H@polygon@boost@@@std@@@std@@@std@@V12@@@YAXAEAV?$polygon_set_data@H@polygon@boost@@V?$_Vector_const_iterator@V?$_Vector_val@U?$_Simple_types@V?$point_data@H@polygon@boost@@@std@@@std@@@std@@111@Z 000000018002f394     minkowski.obj
 0002:000083ac       $chain$6$??$convolve_two_point_sequences@V?$_Vector_const_iterator@V?$_Vector_val@U?$_Simple_types@V?$point_data@H@polygon@boost@@@std@@@std@@@std@@V12@@@YAXAEAV?$polygon_set_data@H@polygon@boost@@V?$_Vector_const_iterator@V?$_Vector_val@U?$_Simple_types@V?$point_data@H@polygon@boost@@@std@@@std@@@std@@111@Z 000000018002f3ac     minkowski.obj
 0002:000083bc       $chain$7$??$convolve_two_point_sequences@V?$_Vector_const_iterator@V?$_Vector_val@U?$_Simple_types@V?$point_data@H@polygon@boost@@@std@@@std@@@std@@V12@@@YAXAEAV?$polygon_set_data@H@polygon@boost@@V?$_Vector_const_iterator@V?$_Vector_val@U?$_Simple_types@V?$point_data@H@polygon@boost@@@std@@@std@@@std@@111@Z 000000018002f3bc     minkowski.obj
 0002:000083cc       $chain$8$??$convolve_two_point_sequences@V?$_Vector_const_iterator@V?$_Vector_val@U?$_Simple_types@V?$point_data@H@polygon@boost@@@std@@@std@@@std@@V12@@@YAXAEAV?$polygon_set_data@H@polygon@boost@@V?$_Vector_const_iterator@V?$_Vector_val@U?$_Simple_types@V?$point_data@H@polygon@boost@@@std@@@std@@@std@@111@Z 000000018002f3cc     minkowski.obj
 0002:000083dc       $chain$9$??$convolve_two_point_sequences@V?$_Vector_const_iterator@V?$_Vector_val@U?$_Simple_types@V?$point_data@H@polygon@boost@@@std@@@std@@@std@@V12@@@YAXAEAV?$polygon_set_data@H@polygon@boost@@V?$_Vector_const_iterator@V?$_Vector_val@U?$_Simple_types@V?$point_data@H@polygon@boost@@@std@@@std@@@std@@111@Z 000000018002f3dc     minkowski.obj
 0002:000083ec       $chain$10$??$convolve_two_point_sequences@V?$_Vector_const_iterator@V?$_Vector_val@U?$_Simple_types@V?$point_data@H@polygon@boost@@@std@@@std@@@std@@V12@@@YAXAEAV?$polygon_set_data@H@polygon@boost@@V?$_Vector_const_iterator@V?$_Vector_val@U?$_Simple_types@V?$point_data@H@polygon@boost@@@std@@@std@@@std@@111@Z 000000018002f3ec     minkowski.obj
 0002:00008408       $unwind$??$convolve@V?$polygon_data@H@polygon@boost@@V?$point_data@H@23@@polygon@boost@@YAAEAV?$polygon_data@H@01@AEAV201@AEBV?$point_data@H@01@@Z 000000018002f408     minkowski.obj
 0002:00008420       $unwind$??$_Assign_cast@AEAV?$polygon_data@H@polygon@boost@@V?$_List_unchecked_const_iterator@V?$_List_val@U?$_List_simple_types@V?$polygon_data@H@polygon@boost@@@std@@@std@@U_Iterator_base0@2@@std@@@?$list@V?$polygon_data@H@polygon@boost@@V?$allocator@V?$polygon_data@H@polygon@boost@@@std@@@std@@AEAAXV?$_List_unchecked_const_iterator@V?$_List_val@U?$_List_simple_types@V?$polygon_data@H@polygon@boost@@@std@@@std@@U_Iterator_base0@2@@1@V21@@Z 000000018002f420     minkowski.obj
 0002:00008434       $chain$0$??$_Assign_cast@AEAV?$polygon_data@H@polygon@boost@@V?$_List_unchecked_const_iterator@V?$_List_val@U?$_List_simple_types@V?$polygon_data@H@polygon@boost@@@std@@@std@@U_Iterator_base0@2@@std@@@?$list@V?$polygon_data@H@polygon@boost@@V?$allocator@V?$polygon_data@H@polygon@boost@@@std@@@std@@AEAAXV?$_List_unchecked_const_iterator@V?$_List_val@U?$_List_simple_types@V?$polygon_data@H@polygon@boost@@@std@@@std@@U_Iterator_base0@2@@1@V21@@Z 000000018002f434     minkowski.obj
 0002:00008448       $chain$1$??$_Assign_cast@AEAV?$polygon_data@H@polygon@boost@@V?$_List_unchecked_const_iterator@V?$_List_val@U?$_List_simple_types@V?$polygon_data@H@polygon@boost@@@std@@@std@@U_Iterator_base0@2@@std@@@?$list@V?$polygon_data@H@polygon@boost@@V?$allocator@V?$polygon_data@H@polygon@boost@@@std@@@std@@AEAAXV?$_List_unchecked_const_iterator@V?$_List_val@U?$_List_simple_types@V?$polygon_data@H@polygon@boost@@@std@@@std@@U_Iterator_base0@2@@1@V21@@Z 000000018002f448     minkowski.obj
 0002:00008448       $chain$3$??$_Assign_cast@AEAV?$polygon_data@H@polygon@boost@@V?$_List_unchecked_const_iterator@V?$_List_val@U?$_List_simple_types@V?$polygon_data@H@polygon@boost@@@std@@@std@@U_Iterator_base0@2@@std@@@?$list@V?$polygon_data@H@polygon@boost@@V?$allocator@V?$polygon_data@H@polygon@boost@@@std@@@std@@AEAAXV?$_List_unchecked_const_iterator@V?$_List_val@U?$_List_simple_types@V?$polygon_data@H@polygon@boost@@@std@@@std@@U_Iterator_base0@2@@1@V21@@Z 000000018002f448     minkowski.obj
 0002:00008458       $chain$2$??$_Assign_cast@AEAV?$polygon_data@H@polygon@boost@@V?$_List_unchecked_const_iterator@V?$_List_val@U?$_List_simple_types@V?$polygon_data@H@polygon@boost@@@std@@@std@@U_Iterator_base0@2@@std@@@?$list@V?$polygon_data@H@polygon@boost@@V?$allocator@V?$polygon_data@H@polygon@boost@@@std@@@std@@AEAAXV?$_List_unchecked_const_iterator@V?$_List_val@U?$_List_simple_types@V?$polygon_data@H@polygon@boost@@@std@@@std@@U_Iterator_base0@2@@1@V21@@Z 000000018002f458     minkowski.obj
 0002:0000846c       $unwind$??$_Assign_range@PEAU?$pair@HH@std@@@?$vector@U?$pair@HH@std@@V?$allocator@U?$pair@HH@std@@@2@@std@@AEAAXPEAU?$pair@HH@1@0Uforward_iterator_tag@1@@Z 000000018002f46c     minkowski.obj
 0002:0000846c       $unwind$??$_Assign_range@PEAV?$point_data@H@polygon@boost@@@?$vector@V?$point_data@H@polygon@boost@@V?$allocator@V?$point_data@H@polygon@boost@@@std@@@std@@AEAAXPEAV?$point_data@H@polygon@boost@@0Uforward_iterator_tag@1@@Z 000000018002f46c     minkowski.obj
 0002:00008480       $chain$0$??$_Assign_range@PEAV?$point_data@H@polygon@boost@@@?$vector@V?$point_data@H@polygon@boost@@V?$allocator@V?$point_data@H@polygon@boost@@@std@@@std@@AEAAXPEAV?$point_data@H@polygon@boost@@0Uforward_iterator_tag@1@@Z 000000018002f480     minkowski.obj
 0002:00008494       $chain$1$??$_Assign_range@PEAV?$point_data@H@polygon@boost@@@?$vector@V?$point_data@H@polygon@boost@@V?$allocator@V?$point_data@H@polygon@boost@@@std@@@std@@AEAAXPEAV?$point_data@H@polygon@boost@@0Uforward_iterator_tag@1@@Z 000000018002f494     minkowski.obj
 0002:000084a4       $chain$2$??$_Assign_range@PEAV?$point_data@H@polygon@boost@@@?$vector@V?$point_data@H@polygon@boost@@V?$allocator@V?$point_data@H@polygon@boost@@@std@@@std@@AEAAXPEAV?$point_data@H@polygon@boost@@0Uforward_iterator_tag@1@@Z 000000018002f4a4     minkowski.obj
 0002:000084b8       $unwind$??$_Destroy_range@V?$allocator@V?$polygon_data@H@polygon@boost@@@std@@@std@@YAXPEAV?$polygon_data@H@polygon@boost@@QEAV123@AEAV?$allocator@V?$polygon_data@H@polygon@boost@@@0@@Z 000000018002f4b8     minkowski.obj
 0002:000084c4       $chain$0$??$_Destroy_range@V?$allocator@V?$polygon_data@H@polygon@boost@@@std@@@std@@YAXPEAV?$polygon_data@H@polygon@boost@@QEAV123@AEAV?$allocator@V?$polygon_data@H@polygon@boost@@@0@@Z 000000018002f4c4     minkowski.obj
 0002:000084d8       $chain$1$??$_Destroy_range@V?$allocator@V?$polygon_data@H@polygon@boost@@@std@@@std@@YAXPEAV?$polygon_data@H@polygon@boost@@QEAV123@AEAV?$allocator@V?$polygon_data@H@polygon@boost@@@0@@Z 000000018002f4d8     minkowski.obj
 0002:000084e8       $chain$2$??$_Destroy_range@V?$allocator@V?$polygon_data@H@polygon@boost@@@std@@@std@@YAXPEAV?$polygon_data@H@polygon@boost@@QEAV123@AEAV?$allocator@V?$polygon_data@H@polygon@boost@@@0@@Z 000000018002f4e8     minkowski.obj
 0002:000084fc       $unwind$?push_back@?$vector@U?$pair@HH@std@@V?$allocator@U?$pair@HH@std@@@2@@std@@QEAAX$$QEAU?$pair@HH@2@@Z 000000018002f4fc     minkowski.obj
 0002:000084fc       $unwind$?push_back@?$vector@U?$pair@HH@std@@V?$allocator@U?$pair@HH@std@@@2@@std@@QEAAXAEBU?$pair@HH@2@@Z 000000018002f4fc     minkowski.obj
 0002:00008508       $chain$2$?push_back@?$vector@U?$pair@HH@std@@V?$allocator@U?$pair@HH@std@@@2@@std@@QEAAX$$QEAU?$pair@HH@2@@Z 000000018002f508     minkowski.obj
 0002:00008508       $chain$2$?push_back@?$vector@U?$pair@HH@std@@V?$allocator@U?$pair@HH@std@@@2@@std@@QEAAXAEBU?$pair@HH@2@@Z 000000018002f508     minkowski.obj
 0002:00008524       $chain$4$?push_back@?$vector@U?$pair@HH@std@@V?$allocator@U?$pair@HH@std@@@2@@std@@QEAAX$$QEAU?$pair@HH@2@@Z 000000018002f524     minkowski.obj
 0002:00008524       $chain$4$?push_back@?$vector@U?$pair@HH@std@@V?$allocator@U?$pair@HH@std@@@2@@std@@QEAAXAEBU?$pair@HH@2@@Z 000000018002f524     minkowski.obj
 0002:0000853c       $unwind$??$get_fracture@V?$vector@V?$polygon_with_holes_data@H@polygon@boost@@V?$allocator@V?$polygon_with_holes_data@H@polygon@boost@@@std@@@std@@Upolygon_with_holes_concept@polygon@boost@@@?$polygon_set_data@H@polygon@boost@@AEBAXAEAV?$vector@V?$polygon_with_holes_data@H@polygon@boost@@V?$allocator@V?$polygon_with_holes_data@H@polygon@boost@@@std@@@std@@_NUpolygon_with_holes_concept@12@@Z 000000018002f53c     minkowski.obj
 0002:00008558       $unwind$??$execute_boolean_op@V?$polygon_set_data@H@polygon@boost@@V123@V?$polygon_with_holes_data@H@23@$02@polygon@boost@@YAXAEAV?$polygon_set_data@H@01@AEBV201@AEBV?$polygon_with_holes_data@H@01@@Z 000000018002f558     minkowski.obj
 0002:00008558       $unwind$??$execute_boolean_op@V?$polygon_set_data@H@polygon@boost@@V123@V?$polygon_with_holes_data@H@23@$0A@@polygon@boost@@YAXAEAV?$polygon_set_data@H@01@AEBV201@AEBV?$polygon_with_holes_data@H@01@@Z 000000018002f558     minkowski.obj
 0002:0000857c       $unwind$?clean@?$polygon_set_data@H@polygon@boost@@QEBAXXZ 000000018002f57c     minkowski.obj
 0002:00008594       $chain$0$?clean@?$polygon_set_data@H@polygon@boost@@QEBAXXZ 000000018002f594     minkowski.obj
 0002:000085a8       $chain$1$?clean@?$polygon_set_data@H@polygon@boost@@QEBAXXZ 000000018002f5a8     minkowski.obj
 0002:000085b8       $chain$2$?clean@?$polygon_set_data@H@polygon@boost@@QEBAXXZ 000000018002f5b8     minkowski.obj
 0002:000085cc       $unwind$??$insert_vertex_sequence@V?$_Vector_const_iterator@V?$_Vector_val@U?$_Simple_types@V?$point_data@H@polygon@boost@@@std@@@std@@@std@@@?$polygon_set_data@H@polygon@boost@@QEAAXV?$_Vector_const_iterator@V?$_Vector_val@U?$_Simple_types@V?$point_data@H@polygon@boost@@@std@@@std@@@std@@0Vdirection_1d@12@_N@Z 000000018002f5cc     minkowski.obj
 0002:000085e0       $chain$1$??$insert_vertex_sequence@V?$_Vector_const_iterator@V?$_Vector_val@U?$_Simple_types@V?$point_data@H@polygon@boost@@@std@@@std@@@std@@@?$polygon_set_data@H@polygon@boost@@QEAAXV?$_Vector_const_iterator@V?$_Vector_val@U?$_Simple_types@V?$point_data@H@polygon@boost@@@std@@@std@@@std@@0Vdirection_1d@12@_N@Z 000000018002f5e0     minkowski.obj
 0002:000085f8       $chain$4$??$insert_vertex_sequence@V?$_Vector_const_iterator@V?$_Vector_val@U?$_Simple_types@V?$point_data@H@polygon@boost@@@std@@@std@@@std@@@?$polygon_set_data@H@polygon@boost@@QEAAXV?$_Vector_const_iterator@V?$_Vector_val@U?$_Simple_types@V?$point_data@H@polygon@boost@@@std@@@std@@@std@@0Vdirection_1d@12@_N@Z 000000018002f5f8     minkowski.obj
 0002:00008614       $chain$5$??$insert_vertex_sequence@V?$_Vector_const_iterator@V?$_Vector_val@U?$_Simple_types@V?$point_data@H@polygon@boost@@@std@@@std@@@std@@@?$polygon_set_data@H@polygon@boost@@QEAAXV?$_Vector_const_iterator@V?$_Vector_val@U?$_Simple_types@V?$point_data@H@polygon@boost@@@std@@@std@@@std@@0Vdirection_1d@12@_N@Z 000000018002f614     minkowski.obj
 0002:00008624       $chain$6$??$insert_vertex_sequence@V?$_Vector_const_iterator@V?$_Vector_val@U?$_Simple_types@V?$point_data@H@polygon@boost@@@std@@@std@@@std@@@?$polygon_set_data@H@polygon@boost@@QEAAXV?$_Vector_const_iterator@V?$_Vector_val@U?$_Simple_types@V?$point_data@H@polygon@boost@@@std@@@std@@@std@@0Vdirection_1d@12@_N@Z 000000018002f624     minkowski.obj
 0002:00008634       $unwind$??$insert_into_view_arg@V?$polygon_set_data@H@polygon@boost@@V?$polygon_with_holes_data@H@23@@polygon@boost@@YAXAEAV?$polygon_set_data@H@01@AEBV?$polygon_with_holes_data@H@01@@Z 000000018002f634     minkowski.obj
 0002:00008640       $chain$3$??$insert_into_view_arg@V?$polygon_set_data@H@polygon@boost@@V?$polygon_with_holes_data@H@23@@polygon@boost@@YAXAEAV?$polygon_set_data@H@01@AEBV?$polygon_with_holes_data@H@01@@Z 000000018002f640     minkowski.obj
 0002:00008660       $chain$4$??$insert_into_view_arg@V?$polygon_set_data@H@polygon@boost@@V?$polygon_with_holes_data@H@23@@polygon@boost@@YAXAEAV?$polygon_set_data@H@01@AEBV?$polygon_with_holes_data@H@01@@Z 000000018002f660     minkowski.obj
 0002:00008670       $unwind$??$execute@V?$polygon_set_data@H@polygon@boost@@V?$_Vector_const_iterator@V?$_Vector_val@U?$_Simple_types@U?$pair@U?$pair@V?$point_data@H@polygon@boost@@V123@@std@@H@std@@@std@@@std@@@std@@V45@@?$arbitrary_boolean_op@H@polygon@boost@@QEAAXAEAV?$polygon_set_data@H@12@V?$_Vector_const_iterator@V?$_Vector_val@U?$_Simple_types@U?$pair@U?$pair@V?$point_data@H@polygon@boost@@V123@@std@@H@std@@@std@@@std@@@std@@111H@Z 000000018002f670     minkowski.obj
 0002:00008698       $unwind$??$_Emplace_reallocate@U?$pair@U?$pair@V?$point_data@H@polygon@boost@@V123@@std@@U?$pair@HH@2@@std@@@?$vector@U?$pair@U?$pair@V?$point_data@H@polygon@boost@@V123@@std@@U?$pair@HH@2@@std@@V?$allocator@U?$pair@U?$pair@V?$point_data@H@polygon@boost@@V123@@std@@U?$pair@HH@2@@std@@@2@@std@@QEAAPEAU?$pair@U?$pair@V?$point_data@H@polygon@boost@@V123@@std@@U?$pair@HH@2@@1@QEAU21@$$QEAU21@@Z 000000018002f698     minkowski.obj
 0002:00008698       $unwind$??$_Emplace_reallocate@Vvertex_half_edge@?$scanline_base@H@polygon@boost@@@?$vector@Vvertex_half_edge@?$scanline_base@H@polygon@boost@@V?$allocator@Vvertex_half_edge@?$scanline_base@H@polygon@boost@@@std@@@std@@QEAAPEAVvertex_half_edge@?$scanline_base@H@polygon@boost@@QEAV2345@$$QEAV2345@@Z 000000018002f698     minkowski.obj
 0002:000086a8       $chain$2$??$_Emplace_reallocate@Vvertex_half_edge@?$scanline_base@H@polygon@boost@@@?$vector@Vvertex_half_edge@?$scanline_base@H@polygon@boost@@V?$allocator@Vvertex_half_edge@?$scanline_base@H@polygon@boost@@@std@@@std@@QEAAPEAVvertex_half_edge@?$scanline_base@H@polygon@boost@@QEAV2345@$$QEAV2345@@Z 000000018002f6a8     minkowski.obj
 0002:000086c4       $chain$4$??$_Emplace_reallocate@Vvertex_half_edge@?$scanline_base@H@polygon@boost@@@?$vector@Vvertex_half_edge@?$scanline_base@H@polygon@boost@@V?$allocator@Vvertex_half_edge@?$scanline_base@H@polygon@boost@@@std@@@std@@QEAAPEAVvertex_half_edge@?$scanline_base@H@polygon@boost@@QEAV2345@$$QEAV2345@@Z 000000018002f6c4     minkowski.obj
 0002:000086e0       $chain$5$??$_Emplace_reallocate@Vvertex_half_edge@?$scanline_base@H@polygon@boost@@@?$vector@Vvertex_half_edge@?$scanline_base@H@polygon@boost@@V?$allocator@Vvertex_half_edge@?$scanline_base@H@polygon@boost@@@std@@@std@@QEAAPEAVvertex_half_edge@?$scanline_base@H@polygon@boost@@QEAV2345@$$QEAV2345@@Z 000000018002f6e0     minkowski.obj
 0002:000086f0       $unwind$??$?0AEBV?$point_data@H@polygon@boost@@@?$_Tree_temp_node@V?$allocator@U?$_Tree_node@V?$point_data@H@polygon@boost@@PEAX@std@@@std@@@std@@QEAA@AEAV?$allocator@U?$_Tree_node@V?$point_data@H@polygon@boost@@PEAX@std@@@1@PEAU?$_Tree_node@V?$point_data@H@polygon@boost@@PEAX@1@AEBV?$point_data@H@polygon@boost@@@Z 000000018002f6f0     minkowski.obj
 0002:000086f0       $unwind$??$_Emplace@AEBV?$point_data@H@polygon@boost@@@?$list@V?$point_data@H@polygon@boost@@V?$allocator@V?$point_data@H@polygon@boost@@@std@@@std@@QEAAPEAU?$_List_node@V?$point_data@H@polygon@boost@@PEAX@1@QEAU21@AEBV?$point_data@H@polygon@boost@@@Z 000000018002f6f0     minkowski.obj
 0002:000086f0       $unwind$??$_Erase_head@V?$allocator@U?$_Tree_node@V?$point_data@H@polygon@boost@@PEAX@std@@@std@@@?$_Tree_val@U?$_Tree_simple_types@V?$point_data@H@polygon@boost@@@std@@@std@@QEAAXAEAV?$allocator@U?$_Tree_node@V?$point_data@H@polygon@boost@@PEAX@std@@@1@@Z 000000018002f6f0     minkowski.obj
 0002:000086f0       $unwind$??$_Erase_tree@V?$allocator@U?$_Tree_node@U?$pair@$$CBVvertex_half_edge@?$scanline_base@H@polygon@boost@@PEAVactive_tail_arbitrary@?$polygon_arbitrary_formation@H@34@@std@@PEAX@std@@@std@@@?$_Tree_val@U?$_Tree_simple_types@U?$pair@$$CBVvertex_half_edge@?$scanline_base@H@polygon@boost@@PEAVactive_tail_arbitrary@?$polygon_arbitrary_formation@H@34@@std@@@std@@@std@@QEAAXAEAV?$allocator@U?$_Tree_node@U?$pair@$$CBVvertex_half_edge@?$scanline_base@H@polygon@boost@@PEAVactive_tail_arbitrary@?$polygon_arbitrary_formation@H@34@@std@@PEAX@std@@@1@PEAU?$_Tree_node@U?$pair@$$CBVvertex_half_edge@?$scanline_base@H@polygon@boost@@PEAVactive_tail_arbitrary@?$polygon_arbitrary_formation@H@34@@std@@PEAX@1@@Z 000000018002f6f0     minkowski.obj
 0002:000086f0       $unwind$??$_Erase_tree@V?$allocator@U?$_Tree_node@V?$point_data@H@polygon@boost@@PEAX@std@@@std@@@?$_Tree_val@U?$_Tree_simple_types@V?$point_data@H@polygon@boost@@@std@@@std@@QEAAXAEAV?$allocator@U?$_Tree_node@V?$point_data@H@polygon@boost@@PEAX@std@@@1@PEAU?$_Tree_node@V?$point_data@H@polygon@boost@@PEAX@1@@Z 000000018002f6f0     minkowski.obj
 0002:000086f0       $unwind$??_Gactive_tail_arbitrary@?$polygon_arbitrary_formation@H@polygon@boost@@QEAAPEAXI@Z 000000018002f6f0     minkowski.obj
 0002:000086f0       $unwind$?_Umove@?$vector@V?$polygon_with_holes_data@H@polygon@boost@@V?$allocator@V?$polygon_with_holes_data@H@polygon@boost@@@std@@@std@@AEAAPEAV?$polygon_with_holes_data@H@polygon@boost@@PEAV345@00@Z 000000018002f6f0     minkowski.obj
 0002:000086f0       $unwind$?addHole@active_tail_arbitrary@?$polygon_arbitrary_formation@H@polygon@boost@@QEAAPEAV1234@PEAV1234@@Z 000000018002f6f0     minkowski.obj
 0002:000086f0       $unwind$_DllMainCRTStartup 000000018002f6f0     LIBCMT:dll_dllmain.obj
 0002:000086f0       $unwind$__vcrt_getptd_noexit 000000018002f6f0     libvcruntime:per_thread_data.obj
 0002:000086f0       $unwind$__vcrt_InitializeCriticalSectionEx 000000018002f6f0     libvcruntime:winapi_downlevel.obj
 0002:000086f0       $unwind$__acrt_getptd      000000018002f6f0     libucrt:per_thread_data.obj
 0002:000086f0       $unwind$__acrt_getptd_noexit 000000018002f6f0     libucrt:per_thread_data.obj
 0002:000086f0       $unwind$__acrt_execute_initializers 000000018002f6f0     libucrt:shared_initialization.obj
 0002:000086f0       $unwind$__acrt_InitializeCriticalSectionEx 000000018002f6f0     libucrt:winapi_thunks.obj
 0002:000086f0       $unwind$?free_crt_array_internal@@YAXQEAPEBX_K@Z 000000018002f6f0     libucrt:inittime.obj
 0002:000086f0       $unwind$??$common_lseek_nolock@_J@@YA_JH_JH@Z 000000018002f6f0     libucrt:lseek.obj
 0002:000086f0       $unwind$__acrt_stdio_flush_nolock 000000018002f6f0     libucrt:fflush.obj
 0002:000086f0       $unwind$??0_LocaleUpdate@@QEAA@QEAU__crt_locale_pointers@@@Z 000000018002f6f0     libucrt:stricmp.obj
 0002:000086f0       $unwind$_exception_enabled 000000018002f6f0     libucrt:libm_error.obj
 0002:00008700       $chain$0$??0?$vector@U?$pair@HH@std@@V?$allocator@U?$pair@HH@std@@@2@@std@@QEAA@AEBV01@@Z 000000018002f700     minkowski.obj
 0002:00008714       $chain$1$??0?$vector@U?$pair@HH@std@@V?$allocator@U?$pair@HH@std@@@2@@std@@QEAA@AEBV01@@Z 000000018002f714     minkowski.obj
 0002:00008724       $chain$2$??$emplace_back@AEBU?$pair@U?$pair@V?$point_data@H@polygon@boost@@V123@@std@@H@std@@@?$vector@U?$pair@U?$pair@V?$point_data@H@polygon@boost@@V123@@std@@H@std@@V?$allocator@U?$pair@U?$pair@V?$point_data@H@polygon@boost@@V123@@std@@H@std@@@2@@std@@QEAA?A_TAEBU?$pair@U?$pair@V?$point_data@H@polygon@boost@@V123@@std@@H@1@@Z 000000018002f724     minkowski.obj
 0002:00008724       $chain$2$??$emplace_back@U?$pair@U?$pair@V?$point_data@H@polygon@boost@@V123@@std@@H@std@@@?$vector@U?$pair@U?$pair@V?$point_data@H@polygon@boost@@V123@@std@@H@std@@V?$allocator@U?$pair@U?$pair@V?$point_data@H@polygon@boost@@V123@@std@@H@std@@@2@@std@@QEAA?A_T$$QEAU?$pair@U?$pair@V?$point_data@H@polygon@boost@@V123@@std@@H@1@@Z 000000018002f724     minkowski.obj
 0002:00008740       $chain$4$??$emplace_back@AEBU?$pair@U?$pair@V?$point_data@H@polygon@boost@@V123@@std@@H@std@@@?$vector@U?$pair@U?$pair@V?$point_data@H@polygon@boost@@V123@@std@@H@std@@V?$allocator@U?$pair@U?$pair@V?$point_data@H@polygon@boost@@V123@@std@@H@std@@@2@@std@@QEAA?A_TAEBU?$pair@U?$pair@V?$point_data@H@polygon@boost@@V123@@std@@H@1@@Z 000000018002f740     minkowski.obj
 0002:00008740       $chain$4$??$emplace_back@U?$pair@U?$pair@V?$point_data@H@polygon@boost@@V123@@std@@H@std@@@?$vector@U?$pair@U?$pair@V?$point_data@H@polygon@boost@@V123@@std@@H@std@@V?$allocator@U?$pair@U?$pair@V?$point_data@H@polygon@boost@@V123@@std@@H@std@@@2@@std@@QEAA?A_T$$QEAU?$pair@U?$pair@V?$point_data@H@polygon@boost@@V123@@std@@H@1@@Z 000000018002f740     minkowski.obj
 0002:00008758       $unwind$?_Change_array@?$vector@U?$pair@HU?$pair@_K_K@std@@@std@@V?$allocator@U?$pair@HU?$pair@_K_K@std@@@std@@@2@@std@@AEAAXQEAU?$pair@HU?$pair@_K_K@std@@@2@_K1@Z 000000018002f758     minkowski.obj
 0002:00008758       $unwind$?_Change_array@?$vector@U?$pair@U?$pair@V?$point_data@H@polygon@boost@@V123@@std@@H@std@@V?$allocator@U?$pair@U?$pair@V?$point_data@H@polygon@boost@@V123@@std@@H@std@@@2@@std@@AEAAXQEAU?$pair@U?$pair@V?$point_data@H@polygon@boost@@V123@@std@@H@2@_K1@Z 000000018002f758     minkowski.obj
 0002:00008758       $unwind$?_Change_array@?$vector@U?$pair@U?$pair@V?$point_data@H@polygon@boost@@V123@@std@@V?$vector@U?$pair@HH@std@@V?$allocator@U?$pair@HH@std@@@2@@2@@std@@V?$allocator@U?$pair@U?$pair@V?$point_data@H@polygon@boost@@V123@@std@@V?$vector@U?$pair@HH@std@@V?$allocator@U?$pair@HH@std@@@2@@2@@std@@@2@@std@@AEAAXQEAU?$pair@U?$pair@V?$point_data@H@polygon@boost@@V123@@std@@V?$vector@U?$pair@HH@std@@V?$allocator@U?$pair@HH@std@@@2@@2@@2@_K1@Z 000000018002f758     minkowski.obj
 0002:00008758       $unwind$?_Change_array@?$vector@U?$pair@V?$point_data@H@polygon@boost@@H@std@@V?$allocator@U?$pair@V?$point_data@H@polygon@boost@@H@std@@@2@@std@@AEAAXQEAU?$pair@V?$point_data@H@polygon@boost@@H@2@_K1@Z 000000018002f758     minkowski.obj
 0002:00008758       $unwind$__std_exception_copy 000000018002f758     libvcruntime:std_exception.obj
 0002:00008758       $unwind$_free_osfhnd       000000018002f758     libucrt:osfinfo.obj
 0002:0000876c       $unwind$??$processEvent_@V?$vector@V?$polygon_with_holes_data@H@polygon@boost@@V?$allocator@V?$polygon_with_holes_data@H@polygon@boost@@@std@@@std@@V?$_Vector_iterator@V?$_Vector_val@U?$_Simple_types@Vvertex_half_edge@?$scanline_base@H@polygon@boost@@@std@@@std@@@2@@?$polygon_arbitrary_formation@H@polygon@boost@@IEAA?AV?$_Vector_iterator@V?$_Vector_val@U?$_Simple_types@Vvertex_half_edge@?$scanline_base@H@polygon@boost@@@std@@@std@@@std@@AEAV?$vector@V?$polygon_with_holes_data@H@polygon@boost@@V?$allocator@V?$polygon_with_holes_data@H@polygon@boost@@@std@@@4@V34@1@Z 000000018002f76c     minkowski.obj
 0002:00008794       $unwind$??$_Sort_heap_unchecked@PEAV?$point_data@H@polygon@boost@@U?$less@X@std@@@std@@YAXPEAV?$point_data@H@polygon@boost@@0U?$less@X@0@@Z 000000018002f794     minkowski.obj
 0002:00008794       $unwind$??$point_sequence_area@V?$_Vector_const_iterator@V?$_Vector_val@U?$_Simple_types@V?$point_data@H@polygon@boost@@@std@@@std@@@std@@O@polygon@boost@@YAOV?$_Vector_const_iterator@V?$_Vector_val@U?$_Simple_types@V?$point_data@H@polygon@boost@@@std@@@std@@@std@@0@Z 000000018002f794     minkowski.obj
 0002:0000879c       $chain$0$??$point_sequence_area@V?$_Vector_const_iterator@V?$_Vector_val@U?$_Simple_types@V?$point_data@H@polygon@boost@@@std@@@std@@@std@@O@polygon@boost@@YAOV?$_Vector_const_iterator@V?$_Vector_val@U?$_Simple_types@V?$point_data@H@polygon@boost@@@std@@@std@@@std@@0@Z 000000018002f79c     minkowski.obj
 0002:000087b0       $chain$1$??$point_sequence_area@V?$_Vector_const_iterator@V?$_Vector_val@U?$_Simple_types@V?$point_data@H@polygon@boost@@@std@@@std@@@std@@O@polygon@boost@@YAOV?$_Vector_const_iterator@V?$_Vector_val@U?$_Simple_types@V?$point_data@H@polygon@boost@@@std@@@std@@@std@@0@Z 000000018002f7b0     minkowski.obj
 0002:000087c0       $unwind$??$insert@V?$_Vector_const_iterator@V?$_Vector_val@U?$_Simple_types@U?$pair@U?$pair@V?$point_data@H@polygon@boost@@V123@@std@@H@std@@@std@@@std@@@std@@@?$arbitrary_boolean_op@H@polygon@boost@@AEAAXV?$_Vector_const_iterator@V?$_Vector_val@U?$_Simple_types@U?$pair@U?$pair@V?$point_data@H@polygon@boost@@V123@@std@@H@std@@@std@@@std@@@std@@0H@Z 000000018002f7c0     minkowski.obj
 0002:000087cc       $chain$0$??$insert@V?$_Vector_const_iterator@V?$_Vector_val@U?$_Simple_types@U?$pair@U?$pair@V?$point_data@H@polygon@boost@@V123@@std@@H@std@@@std@@@std@@@std@@@?$arbitrary_boolean_op@H@polygon@boost@@AEAAXV?$_Vector_const_iterator@V?$_Vector_val@U?$_Simple_types@U?$pair@U?$pair@V?$point_data@H@polygon@boost@@V123@@std@@H@std@@@std@@@std@@@std@@0H@Z 000000018002f7cc     minkowski.obj
 0002:000087e0       $chain$1$??$insert@V?$_Vector_const_iterator@V?$_Vector_val@U?$_Simple_types@U?$pair@U?$pair@V?$point_data@H@polygon@boost@@V123@@std@@H@std@@@std@@@std@@@std@@@?$arbitrary_boolean_op@H@polygon@boost@@AEAAXV?$_Vector_const_iterator@V?$_Vector_val@U?$_Simple_types@U?$pair@U?$pair@V?$point_data@H@polygon@boost@@V123@@std@@H@std@@@std@@@std@@@std@@0H@Z 000000018002f7e0     minkowski.obj
 0002:000087f0       $unwind$??$validate_scan@V?$_Vector_iterator@V?$_Vector_val@U?$_Simple_types@U?$pair@U?$pair@V?$point_data@H@polygon@boost@@V123@@std@@U?$pair@HH@2@@std@@@std@@@std@@@std@@H@?$line_intersection@H@polygon@boost@@SAXAEAV?$vector@U?$pair@U?$pair@V?$point_data@H@polygon@boost@@V123@@std@@U?$pair@HH@2@@std@@V?$allocator@U?$pair@U?$pair@V?$point_data@H@polygon@boost@@V123@@std@@U?$pair@HH@2@@std@@@2@@std@@V?$_Vector_iterator@V?$_Vector_val@U?$_Simple_types@U?$pair@U?$pair@V?$point_data@H@polygon@boost@@V123@@std@@U?$pair@HH@2@@std@@@std@@@std@@@4@1@Z 000000018002f7f0     minkowski.obj
 0002:00008808       $chain$0$??$_Assign_range@PEAU?$pair@HH@std@@@?$vector@U?$pair@HH@std@@V?$allocator@U?$pair@HH@std@@@2@@std@@AEAAXPEAU?$pair@HH@1@0Uforward_iterator_tag@1@@Z 000000018002f808     minkowski.obj
 0002:0000881c       $chain$1$??$_Assign_range@PEAU?$pair@HH@std@@@?$vector@U?$pair@HH@std@@V?$allocator@U?$pair@HH@std@@@2@@std@@AEAAXPEAU?$pair@HH@1@0Uforward_iterator_tag@1@@Z 000000018002f81c     minkowski.obj
 0002:0000882c       $chain$2$??$_Assign_range@PEAU?$pair@HH@std@@@?$vector@U?$pair@HH@std@@V?$allocator@U?$pair@HH@std@@@2@@std@@AEAAXPEAU?$pair@HH@1@0Uforward_iterator_tag@1@@Z 000000018002f82c     minkowski.obj
 0002:00008840       $unwind$??$_Destroy_range@V?$allocator@U?$pair@U?$pair@V?$point_data@H@polygon@boost@@V123@@std@@V?$vector@U?$pair@HH@std@@V?$allocator@U?$pair@HH@std@@@2@@2@@std@@@std@@@std@@YAXPEAU?$pair@U?$pair@V?$point_data@H@polygon@boost@@V123@@std@@V?$vector@U?$pair@HH@std@@V?$allocator@U?$pair@HH@std@@@2@@2@@0@QEAU10@AEAV?$allocator@U?$pair@U?$pair@V?$point_data@H@polygon@boost@@V123@@std@@V?$vector@U?$pair@HH@std@@V?$allocator@U?$pair@HH@std@@@2@@2@@std@@@0@@Z 000000018002f840     minkowski.obj
 0002:00008848       $chain$1$??$_Destroy_range@V?$allocator@U?$pair@U?$pair@V?$point_data@H@polygon@boost@@V123@@std@@V?$vector@U?$pair@HH@std@@V?$allocator@U?$pair@HH@std@@@2@@2@@std@@@std@@@std@@YAXPEAU?$pair@U?$pair@V?$point_data@H@polygon@boost@@V123@@std@@V?$vector@U?$pair@HH@std@@V?$allocator@U?$pair@HH@std@@@2@@2@@0@QEAU10@AEAV?$allocator@U?$pair@U?$pair@V?$point_data@H@polygon@boost@@V123@@std@@V?$vector@U?$pair@HH@std@@V?$allocator@U?$pair@HH@std@@@2@@2@@std@@@0@@Z 000000018002f848     minkowski.obj
 0002:00008860       $chain$2$??$_Destroy_range@V?$allocator@U?$pair@U?$pair@V?$point_data@H@polygon@boost@@V123@@std@@V?$vector@U?$pair@HH@std@@V?$allocator@U?$pair@HH@std@@@2@@2@@std@@@std@@@std@@YAXPEAU?$pair@U?$pair@V?$point_data@H@polygon@boost@@V123@@std@@V?$vector@U?$pair@HH@std@@V?$allocator@U?$pair@HH@std@@@2@@2@@0@QEAU10@AEAV?$allocator@U?$pair@U?$pair@V?$point_data@H@polygon@boost@@V123@@std@@V?$vector@U?$pair@HH@std@@V?$allocator@U?$pair@HH@std@@@2@@2@@std@@@0@@Z 000000018002f860     minkowski.obj
 0002:00008870       $chain$3$??$_Destroy_range@V?$allocator@U?$pair@U?$pair@V?$point_data@H@polygon@boost@@V123@@std@@V?$vector@U?$pair@HH@std@@V?$allocator@U?$pair@HH@std@@@2@@2@@std@@@std@@@std@@YAXPEAU?$pair@U?$pair@V?$point_data@H@polygon@boost@@V123@@std@@V?$vector@U?$pair@HH@std@@V?$allocator@U?$pair@HH@std@@@2@@2@@0@QEAU10@AEAV?$allocator@U?$pair@U?$pair@V?$point_data@H@polygon@boost@@V123@@std@@V?$vector@U?$pair@HH@std@@V?$allocator@U?$pair@HH@std@@@2@@2@@std@@@0@@Z 000000018002f870     minkowski.obj
 0002:00008888       $unwind$??$_Erase_tree@V?$allocator@U?$_Tree_node@U?$pair@$$CBU?$pair@V?$point_data@H@polygon@boost@@V123@@std@@V?$vector@U?$pair@HH@std@@V?$allocator@U?$pair@HH@std@@@2@@2@@std@@PEAX@std@@@std@@@?$_Tree_val@U?$_Tree_simple_types@U?$pair@$$CBU?$pair@V?$point_data@H@polygon@boost@@V123@@std@@V?$vector@U?$pair@HH@std@@V?$allocator@U?$pair@HH@std@@@2@@2@@std@@@std@@@std@@QEAAXAEAV?$allocator@U?$_Tree_node@U?$pair@$$CBU?$pair@V?$point_data@H@polygon@boost@@V123@@std@@V?$vector@U?$pair@HH@std@@V?$allocator@U?$pair@HH@std@@@2@@2@@std@@PEAX@std@@@1@PEAU?$_Tree_node@U?$pair@$$CBU?$pair@V?$point_data@H@polygon@boost@@V123@@std@@V?$vector@U?$pair@HH@std@@V?$allocator@U?$pair@HH@std@@@2@@2@@std@@PEAX@1@@Z 000000018002f888     minkowski.obj
 0002:00008898       $chain$1$??$_Erase_tree@V?$allocator@U?$_Tree_node@U?$pair@$$CBU?$pair@V?$point_data@H@polygon@boost@@V123@@std@@V?$vector@U?$pair@HH@std@@V?$allocator@U?$pair@HH@std@@@2@@2@@std@@PEAX@std@@@std@@@?$_Tree_val@U?$_Tree_simple_types@U?$pair@$$CBU?$pair@V?$point_data@H@polygon@boost@@V123@@std@@V?$vector@U?$pair@HH@std@@V?$allocator@U?$pair@HH@std@@@2@@2@@std@@@std@@@std@@QEAAXAEAV?$allocator@U?$_Tree_node@U?$pair@$$CBU?$pair@V?$point_data@H@polygon@boost@@V123@@std@@V?$vector@U?$pair@HH@std@@V?$allocator@U?$pair@HH@std@@@2@@2@@std@@PEAX@std@@@1@PEAU?$_Tree_node@U?$pair@$$CBU?$pair@V?$point_data@H@polygon@boost@@V123@@std@@V?$vector@U?$pair@HH@std@@V?$allocator@U?$pair@HH@std@@@2@@2@@std@@PEAX@1@@Z 000000018002f898     minkowski.obj
 0002:000088b0       $chain$2$??$_Erase_tree@V?$allocator@U?$_Tree_node@U?$pair@$$CBU?$pair@V?$point_data@H@polygon@boost@@V123@@std@@V?$vector@U?$pair@HH@std@@V?$allocator@U?$pair@HH@std@@@2@@2@@std@@PEAX@std@@@std@@@?$_Tree_val@U?$_Tree_simple_types@U?$pair@$$CBU?$pair@V?$point_data@H@polygon@boost@@V123@@std@@V?$vector@U?$pair@HH@std@@V?$allocator@U?$pair@HH@std@@@2@@2@@std@@@std@@@std@@QEAAXAEAV?$allocator@U?$_Tree_node@U?$pair@$$CBU?$pair@V?$point_data@H@polygon@boost@@V123@@std@@V?$vector@U?$pair@HH@std@@V?$allocator@U?$pair@HH@std@@@2@@2@@std@@PEAX@std@@@1@PEAU?$_Tree_node@U?$pair@$$CBU?$pair@V?$point_data@H@polygon@boost@@V123@@std@@V?$vector@U?$pair@HH@std@@V?$allocator@U?$pair@HH@std@@@2@@2@@std@@PEAX@1@@Z 000000018002f8b0     minkowski.obj
 0002:000088c0       $chain$3$??$_Erase_tree@V?$allocator@U?$_Tree_node@U?$pair@$$CBU?$pair@V?$point_data@H@polygon@boost@@V123@@std@@V?$vector@U?$pair@HH@std@@V?$allocator@U?$pair@HH@std@@@2@@2@@std@@PEAX@std@@@std@@@?$_Tree_val@U?$_Tree_simple_types@U?$pair@$$CBU?$pair@V?$point_data@H@polygon@boost@@V123@@std@@V?$vector@U?$pair@HH@std@@V?$allocator@U?$pair@HH@std@@@2@@2@@std@@@std@@@std@@QEAAXAEAV?$allocator@U?$_Tree_node@U?$pair@$$CBU?$pair@V?$point_data@H@polygon@boost@@V123@@std@@V?$vector@U?$pair@HH@std@@V?$allocator@U?$pair@HH@std@@@2@@2@@std@@PEAX@std@@@1@PEAU?$_Tree_node@U?$pair@$$CBU?$pair@V?$point_data@H@polygon@boost@@V123@@std@@V?$vector@U?$pair@HH@std@@V?$allocator@U?$pair@HH@std@@@2@@2@@std@@PEAX@1@@Z 000000018002f8c0     minkowski.obj
 0002:000088d8       $unwind$?remove_retired_edges_from_scanline@?$scanline@HHV?$vector@HV?$allocator@H@std@@@std@@@polygon@boost@@QEAAXXZ 000000018002f8d8     minkowski.obj
 0002:000088fc       $unwind$?join@active_tail_arbitrary@?$polygon_arbitrary_formation@H@polygon@boost@@QEAA_NPEAV1234@@Z 000000018002f8fc     minkowski.obj
 0002:00008908       $chain$1$?join@active_tail_arbitrary@?$polygon_arbitrary_formation@H@polygon@boost@@QEAA_NPEAV1234@@Z 000000018002f908     minkowski.obj
 0002:00008920       $chain$2$?join@active_tail_arbitrary@?$polygon_arbitrary_formation@H@polygon@boost@@QEAA_NPEAV1234@@Z 000000018002f920     minkowski.obj
 0002:00008930       $chain$3$?join@active_tail_arbitrary@?$polygon_arbitrary_formation@H@polygon@boost@@QEAA_NPEAV1234@@Z 000000018002f930     minkowski.obj
 0002:00008948       $unwind$?on_above_or_below@?$scanline_base@H@polygon@boost@@SAHV?$point_data@H@23@AEBU?$pair@V?$point_data@H@polygon@boost@@V123@@std@@@Z 000000018002f948     minkowski.obj
 0002:00008960       $unwind$??_Gpoly_line_arbitrary@?$polygon_arbitrary_formation@H@polygon@boost@@QEAAPEAXI@Z 000000018002f960     minkowski.obj
 0002:00008968       $chain$0$??_Gpoly_line_arbitrary@?$polygon_arbitrary_formation@H@polygon@boost@@QEAAPEAXI@Z 000000018002f968     minkowski.obj
 0002:0000897c       $chain$1$??_Gpoly_line_arbitrary@?$polygon_arbitrary_formation@H@polygon@boost@@QEAAPEAXI@Z 000000018002f97c     minkowski.obj
 0002:0000898c       $unwind$?erase_end_events@?$scanline@HHV?$vector@HV?$allocator@H@std@@@std@@@polygon@boost@@QEAAXV?$_Tree_const_iterator@V?$_Tree_val@U?$_Tree_simple_types@V?$point_data@H@polygon@boost@@@std@@@std@@@std@@@Z 000000018002f98c     minkowski.obj
 0002:0000898c       $unwind$__acrt_DownlevelLocaleNameToLCID 000000018002f98c     libucrt:lcidtoname_downlevel.obj
 0002:0000898c       $unwind$??R<lambda_f03950bc5685219e0bcd2087efbe011e>@@QEBAHXZ 000000018002f98c     libucrt:onexit.obj
 0002:000089a4       $chain$0$?copyHoles@active_tail_arbitrary@?$polygon_arbitrary_formation@H@polygon@boost@@QEAAXAEAV1234@@Z 000000018002f9a4     minkowski.obj
 0002:000089b8       $chain$1$?copyHoles@active_tail_arbitrary@?$polygon_arbitrary_formation@H@polygon@boost@@QEAAXAEAV1234@@Z 000000018002f9b8     minkowski.obj
 0002:000089c8       $chain$2$?copyHoles@active_tail_arbitrary@?$polygon_arbitrary_formation@H@polygon@boost@@QEAAXAEAV1234@@Z 000000018002f9c8     minkowski.obj
 0002:000089dc       $unwind$?less_slope@?$scanline_base@H@polygon@boost@@SA_NAEBH0AEBV?$point_data@H@23@1@Z 000000018002f9dc     minkowski.obj
 0002:000089f0       $unwind$?_Extract@?$_Tree_val@U?$_Tree_simple_types@U?$pair@$$CBU?$pair@V?$point_data@H@polygon@boost@@V123@@std@@V?$vector@U?$pair@HH@std@@V?$allocator@U?$pair@HH@std@@@2@@2@@std@@@std@@@std@@QEAAPEAU?$_Tree_node@U?$pair@$$CBU?$pair@V?$point_data@H@polygon@boost@@V123@@std@@V?$vector@U?$pair@HH@std@@V?$allocator@U?$pair@HH@std@@@2@@2@@std@@PEAX@2@V?$_Tree_unchecked_const_iterator@V?$_Tree_val@U?$_Tree_simple_types@U?$pair@$$CBU?$pair@V?$point_data@H@polygon@boost@@V123@@std@@V?$vector@U?$pair@HH@std@@V?$allocator@U?$pair@HH@std@@@2@@2@@std@@@std@@@std@@U_Iterator_base0@2@@2@@Z 000000018002f9f0     minkowski.obj
 0002:000089f0       $unwind$?_Extract@?$_Tree_val@U?$_Tree_simple_types@U?$pair@$$CBVvertex_half_edge@?$scanline_base@H@polygon@boost@@PEAVactive_tail_arbitrary@?$polygon_arbitrary_formation@H@34@@std@@@std@@@std@@QEAAPEAU?$_Tree_node@U?$pair@$$CBVvertex_half_edge@?$scanline_base@H@polygon@boost@@PEAVactive_tail_arbitrary@?$polygon_arbitrary_formation@H@34@@std@@PEAX@2@V?$_Tree_unchecked_const_iterator@V?$_Tree_val@U?$_Tree_simple_types@U?$pair@$$CBVvertex_half_edge@?$scanline_base@H@polygon@boost@@PEAVactive_tail_arbitrary@?$polygon_arbitrary_formation@H@34@@std@@@std@@@std@@U_Iterator_base0@2@@2@@Z 000000018002f9f0     minkowski.obj
 0002:000089f0       $unwind$?_Extract@?$_Tree_val@U?$_Tree_simple_types@V?$point_data@H@polygon@boost@@@std@@@std@@QEAAPEAU?$_Tree_node@V?$point_data@H@polygon@boost@@PEAX@2@V?$_Tree_unchecked_const_iterator@V?$_Tree_val@U?$_Tree_simple_types@V?$point_data@H@polygon@boost@@@std@@@std@@U_Iterator_base0@2@@2@@Z 000000018002f9f0     minkowski.obj
 0002:000089f0       $unwind$_RTC_Initialize    000000018002f9f0     LIBCMT:initsect.obj
 0002:000089f0       $unwind$_RTC_Terminate     000000018002f9f0     LIBCMT:initsect.obj
 0002:000089f0       $unwind$??_Gbad_array_new_length@std@@UEAAPEAXI@Z 000000018002f9f0     LIBCMT:throw_bad_alloc.obj
 0002:000089f0       $unwind$??_Gbad_alloc@std@@UEAAPEAXI@Z 000000018002f9f0     libcpmt:xthrow.obj
 0002:000089f0       $unwind$??_Gexception@std@@UEAAPEAXI@Z 000000018002f9f0     libcpmt:xthrow.obj
 0002:000089f0       $unwind$??_Glength_error@std@@UEAAPEAXI@Z 000000018002f9f0     libcpmt:xthrow.obj
 0002:000089f0       $unwind$??_Glogic_error@std@@UEAAPEAXI@Z 000000018002f9f0     libcpmt:xthrow.obj
 0002:000089f0       $unwind$__vcrt_FlsSetValue 000000018002f9f0     libvcruntime:winapi_downlevel.obj
 0002:000089f0       $unwind$??$common_initialize_environment_nolock@D@@YAHXZ 000000018002f9f0     libucrt:environment_initialization.obj
 0002:000089f0       $unwind$_realloc_base      000000018002f9f0     libucrt:realloc_base.obj
 0002:000089f0       $unwind$?replace_current_thread_locale_nolock@@YAXQEAU__acrt_ptd@@QEAU__crt_locale_data@@@Z 000000018002f9f0     libucrt:per_thread_data.obj
 0002:000089f0       $unwind$__acrt_execute_uninitializers 000000018002f9f0     libucrt:shared_initialization.obj
 0002:000089f0       $unwind$__acrt_FlsSetValue 000000018002f9f0     libucrt:winapi_thunks.obj
 0002:000089f0       $unwind$__acrt_LocaleNameToLCID 000000018002f9f0     libucrt:winapi_thunks.obj
 0002:000089f0       $unwind$_updatetlocinfoEx_nolock 000000018002f9f0     libucrt:locale_refcounting.obj
 0002:000089f0       $unwind$_close_nolock      000000018002f9f0     libucrt:close.obj
 0002:000089f0       $unwind$__acrt_uninitialize_lowio 000000018002f9f0     libucrt:ioinit.obj
 0002:000089f0       $unwind$__acrt_errno_map_os_error 000000018002f9f0     libucrt:errno.obj
 0002:000089f0       $unwind$_initterm_e        000000018002f9f0     libucrt:initterm.obj
 0002:000089f0       $unwind$_fclose_nolock     000000018002f9f0     libucrt:fclose.obj
 0002:000089f0       $unwind$strncpy_s          000000018002f9f0     libucrt:strncpy_s.obj
 0002:000089fc       $unwind$??$processPoint_@V?$vector@V?$polygon_with_holes_data@H@polygon@boost@@V?$allocator@V?$polygon_with_holes_data@H@polygon@boost@@@std@@@std@@V?$vector@U?$pair@Vvertex_half_edge@?$scanline_base@H@polygon@boost@@PEAVactive_tail_arbitrary@?$polygon_arbitrary_formation@H@34@@std@@V?$allocator@U?$pair@Vvertex_half_edge@?$scanline_base@H@polygon@boost@@PEAVactive_tail_arbitrary@?$polygon_arbitrary_formation@H@34@@std@@@2@@2@@?$polygon_arbitrary_formation@H@polygon@boost@@IEAA?AU?$pair@U?$pair@V?$point_data@H@polygon@boost@@H@std@@PEAVactive_tail_arbitrary@?$polygon_arbitrary_formation@H@polygon@boost@@@std@@AEAV?$vector@V?$polygon_with_holes_data@H@polygon@boost@@V?$allocator@V?$polygon_with_holes_data@H@polygon@boost@@@std@@@4@AEAV?$vector@U?$pair@Vvertex_half_edge@?$scanline_base@H@polygon@boost@@PEAVactive_tail_arbitrary@?$polygon_arbitrary_formation@H@34@@std@@V?$allocator@U?$pair@Vvertex_half_edge@?$scanline_base@H@polygon@boost@@PEAVactive_tail_arbitrary@?$polygon_arbitrary_formation@H@34@@std@@@2@@4@V?$point_data@H@12@AEAV?$vector@U?$pair@U?$pair@U?$pair@V?$point_data@H@polygon@boost@@V123@@std@@H@std@@PEAVactive_tail_arbitrary@?$polygon_arbitrary_formation@H@polygon@boost@@@std@@V?$allocator@U?$pair@U?$pair@U?$pair@V?$point_data@H@polygon@boost@@V123@@std@@H@std@@PEAVactive_tail_arbitrary@?$polygon_arbitrary_formation@H@polygon@boost@@@std@@@2@@4@AEAV?$vector@U?$pair@V?$point_data@H@polygon@boost@@H@std@@V?$allocator@U?$pair@V?$point_data@H@polygon@boost@@H@std@@@2@@4@@Z 000000018002f9fc     minkowski.obj
 0002:00008a18       $unwind$??$_Insert_range@PEAV?$point_data@H@polygon@boost@@@?$vector@V?$point_data@H@polygon@boost@@V?$allocator@V?$point_data@H@polygon@boost@@@std@@@std@@AEAAXV?$_Vector_const_iterator@V?$_Vector_val@U?$_Simple_types@V?$point_data@H@polygon@boost@@@std@@@std@@@1@PEAV?$point_data@H@polygon@boost@@1Uforward_iterator_tag@1@@Z 000000018002fa18     minkowski.obj
 0002:00008a18       $unwind$??$_Insert_range@PEBV?$point_data@H@polygon@boost@@@?$vector@V?$point_data@H@polygon@boost@@V?$allocator@V?$point_data@H@polygon@boost@@@std@@@std@@AEAAXV?$_Vector_const_iterator@V?$_Vector_val@U?$_Simple_types@V?$point_data@H@polygon@boost@@@std@@@std@@@1@PEBV?$point_data@H@polygon@boost@@1Uforward_iterator_tag@1@@Z 000000018002fa18     minkowski.obj
 0002:00008a2c       $chain$1$??$_Insert_range@PEAV?$point_data@H@polygon@boost@@@?$vector@V?$point_data@H@polygon@boost@@V?$allocator@V?$point_data@H@polygon@boost@@@std@@@std@@AEAAXV?$_Vector_const_iterator@V?$_Vector_val@U?$_Simple_types@V?$point_data@H@polygon@boost@@@std@@@std@@@1@PEAV?$point_data@H@polygon@boost@@1Uforward_iterator_tag@1@@Z 000000018002fa2c     minkowski.obj
 0002:00008a2c       $chain$1$??$_Insert_range@PEBV?$point_data@H@polygon@boost@@@?$vector@V?$point_data@H@polygon@boost@@V?$allocator@V?$point_data@H@polygon@boost@@@std@@@std@@AEAAXV?$_Vector_const_iterator@V?$_Vector_val@U?$_Simple_types@V?$point_data@H@polygon@boost@@@std@@@std@@@1@PEBV?$point_data@H@polygon@boost@@1Uforward_iterator_tag@1@@Z 000000018002fa2c     minkowski.obj
 0002:00008a44       $chain$2$??$_Insert_range@PEAV?$point_data@H@polygon@boost@@@?$vector@V?$point_data@H@polygon@boost@@V?$allocator@V?$point_data@H@polygon@boost@@@std@@@std@@AEAAXV?$_Vector_const_iterator@V?$_Vector_val@U?$_Simple_types@V?$point_data@H@polygon@boost@@@std@@@std@@@1@PEAV?$point_data@H@polygon@boost@@1Uforward_iterator_tag@1@@Z 000000018002fa44     minkowski.obj
 0002:00008a44       $chain$2$??$_Insert_range@PEBV?$point_data@H@polygon@boost@@@?$vector@V?$point_data@H@polygon@boost@@V?$allocator@V?$point_data@H@polygon@boost@@@std@@@std@@AEAAXV?$_Vector_const_iterator@V?$_Vector_val@U?$_Simple_types@V?$point_data@H@polygon@boost@@@std@@@std@@@1@PEBV?$point_data@H@polygon@boost@@1Uforward_iterator_tag@1@@Z 000000018002fa44     minkowski.obj
 0002:00008a54       $chain$3$??$_Insert_range@PEAV?$point_data@H@polygon@boost@@@?$vector@V?$point_data@H@polygon@boost@@V?$allocator@V?$point_data@H@polygon@boost@@@std@@@std@@AEAAXV?$_Vector_const_iterator@V?$_Vector_val@U?$_Simple_types@V?$point_data@H@polygon@boost@@@std@@@std@@@1@PEAV?$point_data@H@polygon@boost@@1Uforward_iterator_tag@1@@Z 000000018002fa54     minkowski.obj
 0002:00008a54       $chain$3$??$_Insert_range@PEBV?$point_data@H@polygon@boost@@@?$vector@V?$point_data@H@polygon@boost@@V?$allocator@V?$point_data@H@polygon@boost@@@std@@@std@@AEAAXV?$_Vector_const_iterator@V?$_Vector_val@U?$_Simple_types@V?$point_data@H@polygon@boost@@@std@@@std@@@1@PEBV?$point_data@H@polygon@boost@@1Uforward_iterator_tag@1@@Z 000000018002fa54     minkowski.obj
 0002:00008a6c       $chain$4$??$_Insert_range@PEAV?$point_data@H@polygon@boost@@@?$vector@V?$point_data@H@polygon@boost@@V?$allocator@V?$point_data@H@polygon@boost@@@std@@@std@@AEAAXV?$_Vector_const_iterator@V?$_Vector_val@U?$_Simple_types@V?$point_data@H@polygon@boost@@@std@@@std@@@1@PEAV?$point_data@H@polygon@boost@@1Uforward_iterator_tag@1@@Z 000000018002fa6c     minkowski.obj
 0002:00008a6c       $chain$4$??$_Insert_range@PEBV?$point_data@H@polygon@boost@@@?$vector@V?$point_data@H@polygon@boost@@V?$allocator@V?$point_data@H@polygon@boost@@@std@@@std@@AEAAXV?$_Vector_const_iterator@V?$_Vector_val@U?$_Simple_types@V?$point_data@H@polygon@boost@@@std@@@std@@@1@PEBV?$point_data@H@polygon@boost@@1Uforward_iterator_tag@1@@Z 000000018002fa6c     minkowski.obj
 0002:00008a80       $unwind$??$validate_scan@V?$_Vector_iterator@V?$_Vector_val@U?$_Simple_types@U?$pair@U?$pair@V?$point_data@H@polygon@boost@@V123@@std@@H@std@@@std@@@std@@@std@@@?$line_intersection@H@polygon@boost@@SAXAEAV?$vector@U?$pair@U?$pair@V?$point_data@H@polygon@boost@@V123@@std@@H@std@@V?$allocator@U?$pair@U?$pair@V?$point_data@H@polygon@boost@@V123@@std@@H@std@@@2@@std@@V?$_Vector_iterator@V?$_Vector_val@U?$_Simple_types@U?$pair@U?$pair@V?$point_data@H@polygon@boost@@V123@@std@@H@std@@@std@@@std@@@4@1@Z 000000018002fa80     minkowski.obj
 0002:00008a9c       $unwind$??$handle_input_events@V?$polygon_set_data@H@polygon@boost@@V?$boolean_output_functor@V?$polygon_set_data@H@polygon@boost@@V?$vector@HV?$allocator@H@std@@@std@@$02@?$arbitrary_boolean_op@H@23@V?$_Vector_iterator@V?$_Vector_val@U?$_Simple_types@U?$pair@U?$pair@V?$point_data@H@polygon@boost@@V123@@std@@U?$pair@HH@2@@std@@@std@@@std@@@std@@@?$scanline@HHV?$vector@HV?$allocator@H@std@@@std@@@polygon@boost@@QEAA?AV?$_Vector_iterator@V?$_Vector_val@U?$_Simple_types@U?$pair@U?$pair@V?$point_data@H@polygon@boost@@V123@@std@@U?$pair@HH@2@@std@@@std@@@std@@@std@@AEAV?$polygon_set_data@H@12@V?$boolean_output_functor@V?$polygon_set_data@H@polygon@boost@@V?$vector@HV?$allocator@H@std@@@std@@$02@?$arbitrary_boolean_op@H@12@V34@2@Z 000000018002fa9c     minkowski.obj
 0002:00008a9c       $unwind$??$handle_input_events@V?$polygon_set_data@H@polygon@boost@@V?$boolean_output_functor@V?$polygon_set_data@H@polygon@boost@@V?$vector@HV?$allocator@H@std@@@std@@$0A@@?$arbitrary_boolean_op@H@23@V?$_Vector_iterator@V?$_Vector_val@U?$_Simple_types@U?$pair@U?$pair@V?$point_data@H@polygon@boost@@V123@@std@@U?$pair@HH@2@@std@@@std@@@std@@@std@@@?$scanline@HHV?$vector@HV?$allocator@H@std@@@std@@@polygon@boost@@QEAA?AV?$_Vector_iterator@V?$_Vector_val@U?$_Simple_types@U?$pair@U?$pair@V?$point_data@H@polygon@boost@@V123@@std@@U?$pair@HH@2@@std@@@std@@@std@@@std@@AEAV?$polygon_set_data@H@12@V?$boolean_output_functor@V?$polygon_set_data@H@polygon@boost@@V?$vector@HV?$allocator@H@std@@@std@@$0A@@?$arbitrary_boolean_op@H@12@V34@2@Z 000000018002fa9c     minkowski.obj
 0002:00008ac0       $unwind$??$_Emplace_reallocate@AEBH@?$vector@HV?$allocator@H@std@@@std@@QEAAPEAHQEAHAEBH@Z 000000018002fac0     minkowski.obj
 0002:00008ad4       $chain$1$??$_Emplace_reallocate@AEBH@?$vector@HV?$allocator@H@std@@@std@@QEAAPEAHQEAHAEBH@Z 000000018002fad4     minkowski.obj
 0002:00008aec       $chain$2$??$_Emplace_reallocate@AEBH@?$vector@HV?$allocator@H@std@@@std@@QEAAPEAHQEAHAEBH@Z 000000018002faec     minkowski.obj
 0002:00008afc       $unwind$??$_Emplace_reallocate@AEBU?$pair@V?$point_data@H@polygon@boost@@H@std@@@?$vector@U?$pair@V?$point_data@H@polygon@boost@@H@std@@V?$allocator@U?$pair@V?$point_data@H@polygon@boost@@H@std@@@2@@std@@QEAAPEAU?$pair@V?$point_data@H@polygon@boost@@H@1@QEAU21@AEBU21@@Z 000000018002fafc     minkowski.obj
 0002:00008afc       $unwind$??$_Emplace_reallocate@U?$pair@V?$point_data@H@polygon@boost@@H@std@@@?$vector@U?$pair@V?$point_data@H@polygon@boost@@H@std@@V?$allocator@U?$pair@V?$point_data@H@polygon@boost@@H@std@@@2@@std@@QEAAPEAU?$pair@V?$point_data@H@polygon@boost@@H@1@QEAU21@$$QEAU21@@Z 000000018002fafc     minkowski.obj
 0002:00008b10       $chain$0$??$_Emplace_reallocate@AEBU?$pair@V?$point_data@H@polygon@boost@@H@std@@@?$vector@U?$pair@V?$point_data@H@polygon@boost@@H@std@@V?$allocator@U?$pair@V?$point_data@H@polygon@boost@@H@std@@@2@@std@@QEAAPEAU?$pair@V?$point_data@H@polygon@boost@@H@1@QEAU21@AEBU21@@Z 000000018002fb10     minkowski.obj
 0002:00008b10       $chain$0$??$_Emplace_reallocate@U?$pair@V?$point_data@H@polygon@boost@@H@std@@@?$vector@U?$pair@V?$point_data@H@polygon@boost@@H@std@@V?$allocator@U?$pair@V?$point_data@H@polygon@boost@@H@std@@@2@@std@@QEAAPEAU?$pair@V?$point_data@H@polygon@boost@@H@1@QEAU21@$$QEAU21@@Z 000000018002fb10     minkowski.obj
 0002:00008b24       $chain$1$??$_Emplace_reallocate@AEBU?$pair@V?$point_data@H@polygon@boost@@H@std@@@?$vector@U?$pair@V?$point_data@H@polygon@boost@@H@std@@V?$allocator@U?$pair@V?$point_data@H@polygon@boost@@H@std@@@2@@std@@QEAAPEAU?$pair@V?$point_data@H@polygon@boost@@H@1@QEAU21@AEBU21@@Z 000000018002fb24     minkowski.obj
 0002:00008b24       $chain$1$??$_Emplace_reallocate@U?$pair@V?$point_data@H@polygon@boost@@H@std@@@?$vector@U?$pair@V?$point_data@H@polygon@boost@@H@std@@V?$allocator@U?$pair@V?$point_data@H@polygon@boost@@H@std@@@2@@std@@QEAAPEAU?$pair@V?$point_data@H@polygon@boost@@H@1@QEAU21@$$QEAU21@@Z 000000018002fb24     minkowski.obj
 0002:00008b34       $unwind$??$_Emplace_reallocate@U?$pair@U?$pair@U?$pair@V?$point_data@H@polygon@boost@@V123@@std@@H@std@@PEAVactive_tail_arbitrary@?$polygon_arbitrary_formation@H@polygon@boost@@@std@@@?$vector@U?$pair@U?$pair@U?$pair@V?$point_data@H@polygon@boost@@V123@@std@@H@std@@PEAVactive_tail_arbitrary@?$polygon_arbitrary_formation@H@polygon@boost@@@std@@V?$allocator@U?$pair@U?$pair@U?$pair@V?$point_data@H@polygon@boost@@V123@@std@@H@std@@PEAVactive_tail_arbitrary@?$polygon_arbitrary_formation@H@polygon@boost@@@std@@@2@@std@@QEAAPEAU?$pair@U?$pair@U?$pair@V?$point_data@H@polygon@boost@@V123@@std@@H@std@@PEAVactive_tail_arbitrary@?$polygon_arbitrary_formation@H@polygon@boost@@@1@QEAU21@$$QEAU21@@Z 000000018002fb34     minkowski.obj
 0002:00008b34       $unwind$??$_Emplace_reallocate@U?$pair@Vvertex_half_edge@?$scanline_base@H@polygon@boost@@PEAVactive_tail_arbitrary@?$polygon_arbitrary_formation@H@34@@std@@@?$vector@U?$pair@Vvertex_half_edge@?$scanline_base@H@polygon@boost@@PEAVactive_tail_arbitrary@?$polygon_arbitrary_formation@H@34@@std@@V?$allocator@U?$pair@Vvertex_half_edge@?$scanline_base@H@polygon@boost@@PEAVactive_tail_arbitrary@?$polygon_arbitrary_formation@H@34@@std@@@2@@std@@QEAAPEAU?$pair@Vvertex_half_edge@?$scanline_base@H@polygon@boost@@PEAVactive_tail_arbitrary@?$polygon_arbitrary_formation@H@34@@1@QEAU21@$$QEAU21@@Z 000000018002fb34     minkowski.obj
 0002:00008b48       $chain$1$??$_Emplace_reallocate@U?$pair@U?$pair@U?$pair@V?$point_data@H@polygon@boost@@V123@@std@@H@std@@PEAVactive_tail_arbitrary@?$polygon_arbitrary_formation@H@polygon@boost@@@std@@@?$vector@U?$pair@U?$pair@U?$pair@V?$point_data@H@polygon@boost@@V123@@std@@H@std@@PEAVactive_tail_arbitrary@?$polygon_arbitrary_formation@H@polygon@boost@@@std@@V?$allocator@U?$pair@U?$pair@U?$pair@V?$point_data@H@polygon@boost@@V123@@std@@H@std@@PEAVactive_tail_arbitrary@?$polygon_arbitrary_formation@H@polygon@boost@@@std@@@2@@std@@QEAAPEAU?$pair@U?$pair@U?$pair@V?$point_data@H@polygon@boost@@V123@@std@@H@std@@PEAVactive_tail_arbitrary@?$polygon_arbitrary_formation@H@polygon@boost@@@1@QEAU21@$$QEAU21@@Z 000000018002fb48     minkowski.obj
 0002:00008b48       $chain$1$??$_Emplace_reallocate@U?$pair@Vvertex_half_edge@?$scanline_base@H@polygon@boost@@PEAVactive_tail_arbitrary@?$polygon_arbitrary_formation@H@34@@std@@@?$vector@U?$pair@Vvertex_half_edge@?$scanline_base@H@polygon@boost@@PEAVactive_tail_arbitrary@?$polygon_arbitrary_formation@H@34@@std@@V?$allocator@U?$pair@Vvertex_half_edge@?$scanline_base@H@polygon@boost@@PEAVactive_tail_arbitrary@?$polygon_arbitrary_formation@H@34@@std@@@2@@std@@QEAAPEAU?$pair@Vvertex_half_edge@?$scanline_base@H@polygon@boost@@PEAVactive_tail_arbitrary@?$polygon_arbitrary_formation@H@34@@1@QEAU21@$$QEAU21@@Z 000000018002fb48     minkowski.obj
 0002:00008b60       $chain$3$??$_Emplace_reallocate@U?$pair@U?$pair@U?$pair@V?$point_data@H@polygon@boost@@V123@@std@@H@std@@PEAVactive_tail_arbitrary@?$polygon_arbitrary_formation@H@polygon@boost@@@std@@@?$vector@U?$pair@U?$pair@U?$pair@V?$point_data@H@polygon@boost@@V123@@std@@H@std@@PEAVactive_tail_arbitrary@?$polygon_arbitrary_formation@H@polygon@boost@@@std@@V?$allocator@U?$pair@U?$pair@U?$pair@V?$point_data@H@polygon@boost@@V123@@std@@H@std@@PEAVactive_tail_arbitrary@?$polygon_arbitrary_formation@H@polygon@boost@@@std@@@2@@std@@QEAAPEAU?$pair@U?$pair@U?$pair@V?$point_data@H@polygon@boost@@V123@@std@@H@std@@PEAVactive_tail_arbitrary@?$polygon_arbitrary_formation@H@polygon@boost@@@1@QEAU21@$$QEAU21@@Z 000000018002fb60     minkowski.obj
 0002:00008b60       $chain$3$??$_Emplace_reallocate@U?$pair@Vvertex_half_edge@?$scanline_base@H@polygon@boost@@PEAVactive_tail_arbitrary@?$polygon_arbitrary_formation@H@34@@std@@@?$vector@U?$pair@Vvertex_half_edge@?$scanline_base@H@polygon@boost@@PEAVactive_tail_arbitrary@?$polygon_arbitrary_formation@H@34@@std@@V?$allocator@U?$pair@Vvertex_half_edge@?$scanline_base@H@polygon@boost@@PEAVactive_tail_arbitrary@?$polygon_arbitrary_formation@H@34@@std@@@2@@std@@QEAAPEAU?$pair@Vvertex_half_edge@?$scanline_base@H@polygon@boost@@PEAVactive_tail_arbitrary@?$polygon_arbitrary_formation@H@34@@1@QEAU21@$$QEAU21@@Z 000000018002fb60     minkowski.obj
 0002:00008b78       $chain$4$??$_Emplace_reallocate@U?$pair@U?$pair@U?$pair@V?$point_data@H@polygon@boost@@V123@@std@@H@std@@PEAVactive_tail_arbitrary@?$polygon_arbitrary_formation@H@polygon@boost@@@std@@@?$vector@U?$pair@U?$pair@U?$pair@V?$point_data@H@polygon@boost@@V123@@std@@H@std@@PEAVactive_tail_arbitrary@?$polygon_arbitrary_formation@H@polygon@boost@@@std@@V?$allocator@U?$pair@U?$pair@U?$pair@V?$point_data@H@polygon@boost@@V123@@std@@H@std@@PEAVactive_tail_arbitrary@?$polygon_arbitrary_formation@H@polygon@boost@@@std@@@2@@std@@QEAAPEAU?$pair@U?$pair@U?$pair@V?$point_data@H@polygon@boost@@V123@@std@@H@std@@PEAVactive_tail_arbitrary@?$polygon_arbitrary_formation@H@polygon@boost@@@1@QEAU21@$$QEAU21@@Z 000000018002fb78     minkowski.obj
 0002:00008b78       $chain$4$??$_Emplace_reallocate@U?$pair@Vvertex_half_edge@?$scanline_base@H@polygon@boost@@PEAVactive_tail_arbitrary@?$polygon_arbitrary_formation@H@34@@std@@@?$vector@U?$pair@Vvertex_half_edge@?$scanline_base@H@polygon@boost@@PEAVactive_tail_arbitrary@?$polygon_arbitrary_formation@H@34@@std@@V?$allocator@U?$pair@Vvertex_half_edge@?$scanline_base@H@polygon@boost@@PEAVactive_tail_arbitrary@?$polygon_arbitrary_formation@H@34@@std@@@2@@std@@QEAAPEAU?$pair@Vvertex_half_edge@?$scanline_base@H@polygon@boost@@PEAVactive_tail_arbitrary@?$polygon_arbitrary_formation@H@34@@1@QEAU21@$$QEAU21@@Z 000000018002fb78     minkowski.obj
 0002:00008b88       $chain$2$??$_Emplace_reallocate@U?$pair@U?$pair@V?$point_data@H@polygon@boost@@V123@@std@@U?$pair@HH@2@@std@@@?$vector@U?$pair@U?$pair@V?$point_data@H@polygon@boost@@V123@@std@@U?$pair@HH@2@@std@@V?$allocator@U?$pair@U?$pair@V?$point_data@H@polygon@boost@@V123@@std@@U?$pair@HH@2@@std@@@2@@std@@QEAAPEAU?$pair@U?$pair@V?$point_data@H@polygon@boost@@V123@@std@@U?$pair@HH@2@@1@QEAU21@$$QEAU21@@Z 000000018002fb88     minkowski.obj
 0002:00008ba4       $chain$4$??$_Emplace_reallocate@U?$pair@U?$pair@V?$point_data@H@polygon@boost@@V123@@std@@U?$pair@HH@2@@std@@@?$vector@U?$pair@U?$pair@V?$point_data@H@polygon@boost@@V123@@std@@U?$pair@HH@2@@std@@V?$allocator@U?$pair@U?$pair@V?$point_data@H@polygon@boost@@V123@@std@@U?$pair@HH@2@@std@@@2@@std@@QEAAPEAU?$pair@U?$pair@V?$point_data@H@polygon@boost@@V123@@std@@U?$pair@HH@2@@1@QEAU21@$$QEAU21@@Z 000000018002fba4     minkowski.obj
 0002:00008bc0       $chain$5$??$_Emplace_reallocate@U?$pair@U?$pair@V?$point_data@H@polygon@boost@@V123@@std@@U?$pair@HH@2@@std@@@?$vector@U?$pair@U?$pair@V?$point_data@H@polygon@boost@@V123@@std@@U?$pair@HH@2@@std@@V?$allocator@U?$pair@U?$pair@V?$point_data@H@polygon@boost@@V123@@std@@U?$pair@HH@2@@std@@@2@@std@@QEAAPEAU?$pair@U?$pair@V?$point_data@H@polygon@boost@@V123@@std@@U?$pair@HH@2@@1@QEAU21@$$QEAU21@@Z 000000018002fbc0     minkowski.obj
 0002:00008bd0       $unwind$??$_Emplace_reallocate@AEBV?$_Tree_iterator@V?$_Tree_val@U?$_Tree_simple_types@U?$pair@$$CBU?$pair@V?$point_data@H@polygon@boost@@V123@@std@@V?$vector@U?$pair@HH@std@@V?$allocator@U?$pair@HH@std@@@2@@2@@std@@@std@@@std@@@std@@@?$vector@V?$_Tree_iterator@V?$_Tree_val@U?$_Tree_simple_types@U?$pair@$$CBU?$pair@V?$point_data@H@polygon@boost@@V123@@std@@V?$vector@U?$pair@HH@std@@V?$allocator@U?$pair@HH@std@@@2@@2@@std@@@std@@@std@@@std@@V?$allocator@V?$_Tree_iterator@V?$_Tree_val@U?$_Tree_simple_types@U?$pair@$$CBU?$pair@V?$point_data@H@polygon@boost@@V123@@std@@V?$vector@U?$pair@HH@std@@V?$allocator@U?$pair@HH@std@@@2@@2@@std@@@std@@@std@@@std@@@2@@std@@QEAAPEAV?$_Tree_iterator@V?$_Tree_val@U?$_Tree_simple_types@U?$pair@$$CBU?$pair@V?$point_data@H@polygon@boost@@V123@@std@@V?$vector@U?$pair@HH@std@@V?$allocator@U?$pair@HH@std@@@2@@2@@std@@@std@@@std@@@1@QEAV21@AEBV21@@Z 000000018002fbd0     minkowski.obj
 0002:00008be0       $chain$3$??$_Emplace_reallocate@AEBV?$_Tree_iterator@V?$_Tree_val@U?$_Tree_simple_types@U?$pair@$$CBU?$pair@V?$point_data@H@polygon@boost@@V123@@std@@V?$vector@U?$pair@HH@std@@V?$allocator@U?$pair@HH@std@@@2@@2@@std@@@std@@@std@@@std@@@?$vector@V?$_Tree_iterator@V?$_Tree_val@U?$_Tree_simple_types@U?$pair@$$CBU?$pair@V?$point_data@H@polygon@boost@@V123@@std@@V?$vector@U?$pair@HH@std@@V?$allocator@U?$pair@HH@std@@@2@@2@@std@@@std@@@std@@@std@@V?$allocator@V?$_Tree_iterator@V?$_Tree_val@U?$_Tree_simple_types@U?$pair@$$CBU?$pair@V?$point_data@H@polygon@boost@@V123@@std@@V?$vector@U?$pair@HH@std@@V?$allocator@U?$pair@HH@std@@@2@@2@@std@@@std@@@std@@@std@@@2@@std@@QEAAPEAV?$_Tree_iterator@V?$_Tree_val@U?$_Tree_simple_types@U?$pair@$$CBU?$pair@V?$point_data@H@polygon@boost@@V123@@std@@V?$vector@U?$pair@HH@std@@V?$allocator@U?$pair@HH@std@@@2@@2@@std@@@std@@@std@@@1@QEAV21@AEBV21@@Z 000000018002fbe0     minkowski.obj
 0002:00008c00       $chain$5$??$_Emplace_reallocate@AEBV?$_Tree_iterator@V?$_Tree_val@U?$_Tree_simple_types@U?$pair@$$CBU?$pair@V?$point_data@H@polygon@boost@@V123@@std@@V?$vector@U?$pair@HH@std@@V?$allocator@U?$pair@HH@std@@@2@@2@@std@@@std@@@std@@@std@@@?$vector@V?$_Tree_iterator@V?$_Tree_val@U?$_Tree_simple_types@U?$pair@$$CBU?$pair@V?$point_data@H@polygon@boost@@V123@@std@@V?$vector@U?$pair@HH@std@@V?$allocator@U?$pair@HH@std@@@2@@2@@std@@@std@@@std@@@std@@V?$allocator@V?$_Tree_iterator@V?$_Tree_val@U?$_Tree_simple_types@U?$pair@$$CBU?$pair@V?$point_data@H@polygon@boost@@V123@@std@@V?$vector@U?$pair@HH@std@@V?$allocator@U?$pair@HH@std@@@2@@2@@std@@@std@@@std@@@std@@@2@@std@@QEAAPEAV?$_Tree_iterator@V?$_Tree_val@U?$_Tree_simple_types@U?$pair@$$CBU?$pair@V?$point_data@H@polygon@boost@@V123@@std@@V?$vector@U?$pair@HH@std@@V?$allocator@U?$pair@HH@std@@@2@@2@@std@@@std@@@std@@@1@QEAV21@AEBV21@@Z 000000018002fc00     minkowski.obj
 0002:00008c20       $chain$6$??$_Emplace_reallocate@AEBV?$_Tree_iterator@V?$_Tree_val@U?$_Tree_simple_types@U?$pair@$$CBU?$pair@V?$point_data@H@polygon@boost@@V123@@std@@V?$vector@U?$pair@HH@std@@V?$allocator@U?$pair@HH@std@@@2@@2@@std@@@std@@@std@@@std@@@?$vector@V?$_Tree_iterator@V?$_Tree_val@U?$_Tree_simple_types@U?$pair@$$CBU?$pair@V?$point_data@H@polygon@boost@@V123@@std@@V?$vector@U?$pair@HH@std@@V?$allocator@U?$pair@HH@std@@@2@@2@@std@@@std@@@std@@@std@@V?$allocator@V?$_Tree_iterator@V?$_Tree_val@U?$_Tree_simple_types@U?$pair@$$CBU?$pair@V?$point_data@H@polygon@boost@@V123@@std@@V?$vector@U?$pair@HH@std@@V?$allocator@U?$pair@HH@std@@@2@@2@@std@@@std@@@std@@@std@@@2@@std@@QEAAPEAV?$_Tree_iterator@V?$_Tree_val@U?$_Tree_simple_types@U?$pair@$$CBU?$pair@V?$point_data@H@polygon@boost@@V123@@std@@V?$vector@U?$pair@HH@std@@V?$allocator@U?$pair@HH@std@@@2@@2@@std@@@std@@@std@@@1@QEAV21@AEBV21@@Z 000000018002fc20     minkowski.obj
 0002:00008c30       $unwind$??$_Find_lower_bound@U?$pair@V?$point_data@H@polygon@boost@@V123@@std@@@?$_Tree@V?$_Tmap_traits@U?$pair@V?$point_data@H@polygon@boost@@V123@@std@@V?$vector@U?$pair@HH@std@@V?$allocator@U?$pair@HH@std@@@2@@2@Vless_half_edge@?$scanline_base@H@polygon@boost@@V?$allocator@U?$pair@$$CBU?$pair@V?$point_data@H@polygon@boost@@V123@@std@@V?$vector@U?$pair@HH@std@@V?$allocator@U?$pair@HH@std@@@2@@2@@std@@@2@$0A@@std@@@std@@IEBA?AU?$_Tree_find_result@PEAU?$_Tree_node@U?$pair@$$CBU?$pair@V?$point_data@H@polygon@boost@@V123@@std@@V?$vector@U?$pair@HH@std@@V?$allocator@U?$pair@HH@std@@@2@@2@@std@@PEAX@std@@@1@AEBU?$pair@V?$point_data@H@polygon@boost@@V123@@1@@Z 000000018002fc30     minkowski.obj
 0002:00008c30       $unwind$??$_Find_lower_bound@Vvertex_half_edge@?$scanline_base@H@polygon@boost@@@?$_Tree@V?$_Tmap_traits@Vvertex_half_edge@?$scanline_base@H@polygon@boost@@PEAVactive_tail_arbitrary@?$polygon_arbitrary_formation@H@34@Vless_vertex_half_edge@234@V?$allocator@U?$pair@$$CBVvertex_half_edge@?$scanline_base@H@polygon@boost@@PEAVactive_tail_arbitrary@?$polygon_arbitrary_formation@H@34@@std@@@std@@$0A@@std@@@std@@IEBA?AU?$_Tree_find_result@PEAU?$_Tree_node@U?$pair@$$CBVvertex_half_edge@?$scanline_base@H@polygon@boost@@PEAVactive_tail_arbitrary@?$polygon_arbitrary_formation@H@34@@std@@PEAX@std@@@1@AEBVvertex_half_edge@?$scanline_base@H@polygon@boost@@@Z 000000018002fc30     minkowski.obj
 0002:00008c48       $chain$3$??$_Find_lower_bound@U?$pair@V?$point_data@H@polygon@boost@@V123@@std@@@?$_Tree@V?$_Tmap_traits@U?$pair@V?$point_data@H@polygon@boost@@V123@@std@@V?$vector@U?$pair@HH@std@@V?$allocator@U?$pair@HH@std@@@2@@2@Vless_half_edge@?$scanline_base@H@polygon@boost@@V?$allocator@U?$pair@$$CBU?$pair@V?$point_data@H@polygon@boost@@V123@@std@@V?$vector@U?$pair@HH@std@@V?$allocator@U?$pair@HH@std@@@2@@2@@std@@@2@$0A@@std@@@std@@IEBA?AU?$_Tree_find_result@PEAU?$_Tree_node@U?$pair@$$CBU?$pair@V?$point_data@H@polygon@boost@@V123@@std@@V?$vector@U?$pair@HH@std@@V?$allocator@U?$pair@HH@std@@@2@@2@@std@@PEAX@std@@@1@AEBU?$pair@V?$point_data@H@polygon@boost@@V123@@1@@Z 000000018002fc48     minkowski.obj
 0002:00008c68       $chain$4$??$_Find_lower_bound@U?$pair@V?$point_data@H@polygon@boost@@V123@@std@@@?$_Tree@V?$_Tmap_traits@U?$pair@V?$point_data@H@polygon@boost@@V123@@std@@V?$vector@U?$pair@HH@std@@V?$allocator@U?$pair@HH@std@@@2@@2@Vless_half_edge@?$scanline_base@H@polygon@boost@@V?$allocator@U?$pair@$$CBU?$pair@V?$point_data@H@polygon@boost@@V123@@std@@V?$vector@U?$pair@HH@std@@V?$allocator@U?$pair@HH@std@@@2@@2@@std@@@2@$0A@@std@@@std@@IEBA?AU?$_Tree_find_result@PEAU?$_Tree_node@U?$pair@$$CBU?$pair@V?$point_data@H@polygon@boost@@V123@@std@@V?$vector@U?$pair@HH@std@@V?$allocator@U?$pair@HH@std@@@2@@2@@std@@PEAX@std@@@1@AEBU?$pair@V?$point_data@H@polygon@boost@@V123@@1@@Z 000000018002fc68     minkowski.obj
 0002:00008c78       $chain$3$??$_Find_lower_bound@Vvertex_half_edge@?$scanline_base@H@polygon@boost@@@?$_Tree@V?$_Tmap_traits@Vvertex_half_edge@?$scanline_base@H@polygon@boost@@PEAVactive_tail_arbitrary@?$polygon_arbitrary_formation@H@34@Vless_vertex_half_edge@234@V?$allocator@U?$pair@$$CBVvertex_half_edge@?$scanline_base@H@polygon@boost@@PEAVactive_tail_arbitrary@?$polygon_arbitrary_formation@H@34@@std@@@std@@$0A@@std@@@std@@IEBA?AU?$_Tree_find_result@PEAU?$_Tree_node@U?$pair@$$CBVvertex_half_edge@?$scanline_base@H@polygon@boost@@PEAVactive_tail_arbitrary@?$polygon_arbitrary_formation@H@34@@std@@PEAX@std@@@1@AEBVvertex_half_edge@?$scanline_base@H@polygon@boost@@@Z 000000018002fc78     minkowski.obj
 0002:00008c98       $chain$4$??$_Find_lower_bound@Vvertex_half_edge@?$scanline_base@H@polygon@boost@@@?$_Tree@V?$_Tmap_traits@Vvertex_half_edge@?$scanline_base@H@polygon@boost@@PEAVactive_tail_arbitrary@?$polygon_arbitrary_formation@H@34@Vless_vertex_half_edge@234@V?$allocator@U?$pair@$$CBVvertex_half_edge@?$scanline_base@H@polygon@boost@@PEAVactive_tail_arbitrary@?$polygon_arbitrary_formation@H@34@@std@@@std@@$0A@@std@@@std@@IEBA?AU?$_Tree_find_result@PEAU?$_Tree_node@U?$pair@$$CBVvertex_half_edge@?$scanline_base@H@polygon@boost@@PEAVactive_tail_arbitrary@?$polygon_arbitrary_formation@H@34@@std@@PEAX@std@@@1@AEBVvertex_half_edge@?$scanline_base@H@polygon@boost@@@Z 000000018002fc98     minkowski.obj
 0002:00008ca8       $unwind$?update_property_map@?$scanline@HHV?$vector@HV?$allocator@H@std@@@std@@@polygon@boost@@SAXAEAV?$vector@U?$pair@HH@std@@V?$allocator@U?$pair@HH@std@@@2@@std@@AEBU?$pair@HH@5@@Z 000000018002fca8     minkowski.obj
 0002:00008cc0       $unwind$?merge_property_maps@?$scanline@HHV?$vector@HV?$allocator@H@std@@@std@@@polygon@boost@@SAXAEAV?$vector@U?$pair@HH@std@@V?$allocator@U?$pair@HH@std@@@2@@std@@AEBV45@@Z 000000018002fcc0     minkowski.obj
 0002:00008cd8       $chain$3$??$emplace_back@AEBU?$pair@U?$pair@V?$point_data@H@polygon@boost@@V123@@std@@V?$vector@U?$pair@HH@std@@V?$allocator@U?$pair@HH@std@@@2@@2@@std@@@?$vector@U?$pair@U?$pair@V?$point_data@H@polygon@boost@@V123@@std@@V?$vector@U?$pair@HH@std@@V?$allocator@U?$pair@HH@std@@@2@@2@@std@@V?$allocator@U?$pair@U?$pair@V?$point_data@H@polygon@boost@@V123@@std@@V?$vector@U?$pair@HH@std@@V?$allocator@U?$pair@HH@std@@@2@@2@@std@@@2@@std@@QEAA?A_TAEBU?$pair@U?$pair@V?$point_data@H@polygon@boost@@V123@@std@@V?$vector@U?$pair@HH@std@@V?$allocator@U?$pair@HH@std@@@2@@2@@1@@Z 000000018002fcd8     minkowski.obj
 0002:00008cf8       $chain$5$??$emplace_back@AEBU?$pair@U?$pair@V?$point_data@H@polygon@boost@@V123@@std@@V?$vector@U?$pair@HH@std@@V?$allocator@U?$pair@HH@std@@@2@@2@@std@@@?$vector@U?$pair@U?$pair@V?$point_data@H@polygon@boost@@V123@@std@@V?$vector@U?$pair@HH@std@@V?$allocator@U?$pair@HH@std@@@2@@2@@std@@V?$allocator@U?$pair@U?$pair@V?$point_data@H@polygon@boost@@V123@@std@@V?$vector@U?$pair@HH@std@@V?$allocator@U?$pair@HH@std@@@2@@2@@std@@@2@@std@@QEAA?A_TAEBU?$pair@U?$pair@V?$point_data@H@polygon@boost@@V123@@std@@V?$vector@U?$pair@HH@std@@V?$allocator@U?$pair@HH@std@@@2@@2@@1@@Z 000000018002fcf8     minkowski.obj
 0002:00008d10       $unwind$??Rless_half_edge@?$scanline_base@H@polygon@boost@@QEBA_NAEBU?$pair@V?$point_data@H@polygon@boost@@V123@@std@@0@Z 000000018002fd10     minkowski.obj
 0002:00008d10       $unwind$??Rless_vertex_half_edge@?$scanline_base@H@polygon@boost@@QEBA_NAEBVvertex_half_edge@123@0@Z 000000018002fd10     minkowski.obj
 0002:00008d28       $chain$2$??Rless_half_edge@?$scanline_base@H@polygon@boost@@QEBA_NAEBU?$pair@V?$point_data@H@polygon@boost@@V123@@std@@0@Z 000000018002fd28     minkowski.obj
 0002:00008d28       $chain$2$??Rless_vertex_half_edge@?$scanline_base@H@polygon@boost@@QEBA_NAEBVvertex_half_edge@123@0@Z 000000018002fd28     minkowski.obj
 0002:00008d44       $chain$3$??Rless_half_edge@?$scanline_base@H@polygon@boost@@QEBA_NAEBU?$pair@V?$point_data@H@polygon@boost@@V123@@std@@0@Z 000000018002fd44     minkowski.obj
 0002:00008d44       $chain$3$??Rless_vertex_half_edge@?$scanline_base@H@polygon@boost@@QEBA_NAEBVvertex_half_edge@123@0@Z 000000018002fd44     minkowski.obj
 0002:00008d58       $chain$4$??Rless_half_edge@?$scanline_base@H@polygon@boost@@QEBA_NAEBU?$pair@V?$point_data@H@polygon@boost@@V123@@std@@0@Z 000000018002fd58     minkowski.obj
 0002:00008d58       $chain$4$??Rless_vertex_half_edge@?$scanline_base@H@polygon@boost@@QEBA_NAEBVvertex_half_edge@123@0@Z 000000018002fd58     minkowski.obj
 0002:00008d68       $chain$5$??Rless_half_edge@?$scanline_base@H@polygon@boost@@QEBA_NAEBU?$pair@V?$point_data@H@polygon@boost@@V123@@std@@0@Z 000000018002fd68     minkowski.obj
 0002:00008d68       $chain$5$??Rless_vertex_half_edge@?$scanline_base@H@polygon@boost@@QEBA_NAEBVvertex_half_edge@123@0@Z 000000018002fd68     minkowski.obj
 0002:00008d78       $chain$6$??Rless_half_edge@?$scanline_base@H@polygon@boost@@QEBA_NAEBU?$pair@V?$point_data@H@polygon@boost@@V123@@std@@0@Z 000000018002fd78     minkowski.obj
 0002:00008d78       $chain$6$??Rless_vertex_half_edge@?$scanline_base@H@polygon@boost@@QEBA_NAEBVvertex_half_edge@123@0@Z 000000018002fd78     minkowski.obj
 0002:00008d94       $unwind$?createActiveTailsAsPair@active_tail_arbitrary@?$polygon_arbitrary_formation@H@polygon@boost@@SA?AU?$pair@PEAVactive_tail_arbitrary@?$polygon_arbitrary_formation@H@polygon@boost@@PEAV1234@@std@@V?$point_data@H@34@_NPEAV1234@1@Z 000000018002fd94     minkowski.obj
 0002:00008d94       $unwind$?try_get_function@@YAPEAXW4function_id@?A0x3064ecbf@@QEBDQEBW4module_id@2@2@Z 000000018002fd94     libvcruntime:winapi_downlevel.obj
 0002:00008d94       $unwind$?try_get_function@@YAPEAXW4function_id@?A0x391cf84c@@QEBDQEBW4module_id@2@2@Z 000000018002fd94     libucrt:winapi_thunks.obj
 0002:00008db0       $unwind$??$joinChains@V?$vector@V?$polygon_with_holes_data@H@polygon@boost@@V?$allocator@V?$polygon_with_holes_data@H@polygon@boost@@@std@@@std@@@active_tail_arbitrary@?$polygon_arbitrary_formation@H@polygon@boost@@SAPEAV0123@V?$point_data@H@23@PEAV0123@1_NAEAV?$vector@V?$polygon_with_holes_data@H@polygon@boost@@V?$allocator@V?$polygon_with_holes_data@H@polygon@boost@@@std@@@std@@@Z 000000018002fdb0     minkowski.obj
 0002:00008dc0       $chain$0$??$joinChains@V?$vector@V?$polygon_with_holes_data@H@polygon@boost@@V?$allocator@V?$polygon_with_holes_data@H@polygon@boost@@@std@@@std@@@active_tail_arbitrary@?$polygon_arbitrary_formation@H@polygon@boost@@SAPEAV0123@V?$point_data@H@23@PEAV0123@1_NAEAV?$vector@V?$polygon_with_holes_data@H@polygon@boost@@V?$allocator@V?$polygon_with_holes_data@H@polygon@boost@@@std@@@std@@@Z 000000018002fdc0     minkowski.obj
 0002:00008dd4       $chain$3$??$joinChains@V?$vector@V?$polygon_with_holes_data@H@polygon@boost@@V?$allocator@V?$polygon_with_holes_data@H@polygon@boost@@@std@@@std@@@active_tail_arbitrary@?$polygon_arbitrary_formation@H@polygon@boost@@SAPEAV0123@V?$point_data@H@23@PEAV0123@1_NAEAV?$vector@V?$polygon_with_holes_data@H@polygon@boost@@V?$allocator@V?$polygon_with_holes_data@H@polygon@boost@@@std@@@std@@@Z 000000018002fdd4     minkowski.obj
 0002:00008df0       $chain$4$??$joinChains@V?$vector@V?$polygon_with_holes_data@H@polygon@boost@@V?$allocator@V?$polygon_with_holes_data@H@polygon@boost@@@std@@@std@@@active_tail_arbitrary@?$polygon_arbitrary_formation@H@polygon@boost@@SAPEAV0123@V?$point_data@H@23@PEAV0123@1_NAEAV?$vector@V?$polygon_with_holes_data@H@polygon@boost@@V?$allocator@V?$polygon_with_holes_data@H@polygon@boost@@@std@@@std@@@Z 000000018002fdf0     minkowski.obj
 0002:00008e08       $chain$5$??$joinChains@V?$vector@V?$polygon_with_holes_data@H@polygon@boost@@V?$allocator@V?$polygon_with_holes_data@H@polygon@boost@@@std@@@std@@@active_tail_arbitrary@?$polygon_arbitrary_formation@H@polygon@boost@@SAPEAV0123@V?$point_data@H@23@PEAV0123@1_NAEAV?$vector@V?$polygon_with_holes_data@H@polygon@boost@@V?$allocator@V?$polygon_with_holes_data@H@polygon@boost@@@std@@@std@@@Z 000000018002fe08     minkowski.obj
 0002:00008e18       $chain$6$??$joinChains@V?$vector@V?$polygon_with_holes_data@H@polygon@boost@@V?$allocator@V?$polygon_with_holes_data@H@polygon@boost@@@std@@@std@@@active_tail_arbitrary@?$polygon_arbitrary_formation@H@polygon@boost@@SAPEAV0123@V?$point_data@H@23@PEAV0123@1_NAEAV?$vector@V?$polygon_with_holes_data@H@polygon@boost@@V?$allocator@V?$polygon_with_holes_data@H@polygon@boost@@@std@@@std@@@Z 000000018002fe18     minkowski.obj
 0002:00008e34       $unwind$??$validate_scan_divide_and_conquer@V?$_Vector_iterator@V?$_Vector_val@U?$_Simple_types@U?$pair@U?$pair@V?$point_data@H@polygon@boost@@V123@@std@@H@std@@@std@@@std@@@std@@@?$line_intersection@H@polygon@boost@@SAXAEAV?$vector@V?$set@V?$point_data@H@polygon@boost@@U?$less@V?$point_data@H@polygon@boost@@@std@@V?$allocator@V?$point_data@H@polygon@boost@@@5@@std@@V?$allocator@V?$set@V?$point_data@H@polygon@boost@@U?$less@V?$point_data@H@polygon@boost@@@std@@V?$allocator@V?$point_data@H@polygon@boost@@@5@@std@@@2@@std@@V?$_Vector_iterator@V?$_Vector_val@U?$_Simple_types@U?$pair@U?$pair@V?$point_data@H@polygon@boost@@V123@@std@@H@std@@@std@@@std@@@4@1@Z 000000018002fe34     minkowski.obj
 0002:00008e4c       $unwind$??$segment_intersections@V?$_Vector_iterator@V?$_Vector_val@U?$_Simple_types@U?$pair@U?$pair@V?$point_data@H@polygon@boost@@V123@@std@@H@std@@@std@@@std@@@std@@@?$line_intersection@H@polygon@boost@@SAXAEAV?$vector@U?$pair@U?$pair@V?$point_data@H@polygon@boost@@V123@@std@@H@std@@V?$allocator@U?$pair@U?$pair@V?$point_data@H@polygon@boost@@V123@@std@@H@std@@@2@@std@@AEAV?$vector@V?$set@V?$point_data@H@polygon@boost@@U?$less@V?$point_data@H@polygon@boost@@@std@@V?$allocator@V?$point_data@H@polygon@boost@@@5@@std@@V?$allocator@V?$set@V?$point_data@H@polygon@boost@@U?$less@V?$point_data@H@polygon@boost@@@std@@V?$allocator@V?$point_data@H@polygon@boost@@@5@@std@@@2@@4@V?$_Vector_iterator@V?$_Vector_val@U?$_Simple_types@U?$pair@U?$pair@V?$point_data@H@polygon@boost@@V123@@std@@H@std@@@std@@@std@@@4@2@Z 000000018002fe4c     minkowski.obj
 0002:00008e60       $chain$5$??$segment_intersections@V?$_Vector_iterator@V?$_Vector_val@U?$_Simple_types@U?$pair@U?$pair@V?$point_data@H@polygon@boost@@V123@@std@@H@std@@@std@@@std@@@std@@@?$line_intersection@H@polygon@boost@@SAXAEAV?$vector@U?$pair@U?$pair@V?$point_data@H@polygon@boost@@V123@@std@@H@std@@V?$allocator@U?$pair@U?$pair@V?$point_data@H@polygon@boost@@V123@@std@@H@std@@@2@@std@@AEAV?$vector@V?$set@V?$point_data@H@polygon@boost@@U?$less@V?$point_data@H@polygon@boost@@@std@@V?$allocator@V?$point_data@H@polygon@boost@@@5@@std@@V?$allocator@V?$set@V?$point_data@H@polygon@boost@@U?$less@V?$point_data@H@polygon@boost@@@std@@V?$allocator@V?$point_data@H@polygon@boost@@@5@@std@@@2@@4@V?$_Vector_iterator@V?$_Vector_val@U?$_Simple_types@U?$pair@U?$pair@V?$point_data@H@polygon@boost@@V123@@std@@H@std@@@std@@@std@@@4@2@Z 000000018002fe60     minkowski.obj
 0002:00008e88       $chain$6$??$segment_intersections@V?$_Vector_iterator@V?$_Vector_val@U?$_Simple_types@U?$pair@U?$pair@V?$point_data@H@polygon@boost@@V123@@std@@H@std@@@std@@@std@@@std@@@?$line_intersection@H@polygon@boost@@SAXAEAV?$vector@U?$pair@U?$pair@V?$point_data@H@polygon@boost@@V123@@std@@H@std@@V?$allocator@U?$pair@U?$pair@V?$point_data@H@polygon@boost@@V123@@std@@H@std@@@2@@std@@AEAV?$vector@V?$set@V?$point_data@H@polygon@boost@@U?$less@V?$point_data@H@polygon@boost@@@std@@V?$allocator@V?$point_data@H@polygon@boost@@@5@@std@@V?$allocator@V?$set@V?$point_data@H@polygon@boost@@U?$less@V?$point_data@H@polygon@boost@@@std@@V?$allocator@V?$point_data@H@polygon@boost@@@5@@std@@@2@@4@V?$_Vector_iterator@V?$_Vector_val@U?$_Simple_types@U?$pair@U?$pair@V?$point_data@H@polygon@boost@@V123@@std@@H@std@@@std@@@std@@@4@2@Z 000000018002fe88     minkowski.obj
 0002:00008e98       $chain$7$??$segment_intersections@V?$_Vector_iterator@V?$_Vector_val@U?$_Simple_types@U?$pair@U?$pair@V?$point_data@H@polygon@boost@@V123@@std@@H@std@@@std@@@std@@@std@@@?$line_intersection@H@polygon@boost@@SAXAEAV?$vector@U?$pair@U?$pair@V?$point_data@H@polygon@boost@@V123@@std@@H@std@@V?$allocator@U?$pair@U?$pair@V?$point_data@H@polygon@boost@@V123@@std@@H@std@@@2@@std@@AEAV?$vector@V?$set@V?$point_data@H@polygon@boost@@U?$less@V?$point_data@H@polygon@boost@@@std@@V?$allocator@V?$point_data@H@polygon@boost@@@5@@std@@V?$allocator@V?$set@V?$point_data@H@polygon@boost@@U?$less@V?$point_data@H@polygon@boost@@@std@@V?$allocator@V?$point_data@H@polygon@boost@@@5@@std@@@2@@4@V?$_Vector_iterator@V?$_Vector_val@U?$_Simple_types@U?$pair@U?$pair@V?$point_data@H@polygon@boost@@V123@@std@@H@std@@@std@@@std@@@4@2@Z 000000018002fe98     minkowski.obj
 0002:00008ec0       $unwind$??$write_out@V?$polygon_set_data@H@polygon@boost@@V?$boolean_output_functor@V?$polygon_set_data@H@polygon@boost@@V?$vector@HV?$allocator@H@std@@@std@@$02@?$arbitrary_boolean_op@H@23@@?$scanline@HHV?$vector@HV?$allocator@H@std@@@std@@@polygon@boost@@QEAAXAEAV?$polygon_set_data@H@12@V?$boolean_output_functor@V?$polygon_set_data@H@polygon@boost@@V?$vector@HV?$allocator@H@std@@@std@@$02@?$arbitrary_boolean_op@H@12@AEBU?$pair@V?$point_data@H@polygon@boost@@V123@@std@@AEBV?$vector@U?$pair@HH@std@@V?$allocator@U?$pair@HH@std@@@2@@7@3@Z 000000018002fec0     minkowski.obj
 0002:00008ec0       $unwind$??$write_out@V?$polygon_set_data@H@polygon@boost@@V?$boolean_output_functor@V?$polygon_set_data@H@polygon@boost@@V?$vector@HV?$allocator@H@std@@@std@@$0A@@?$arbitrary_boolean_op@H@23@@?$scanline@HHV?$vector@HV?$allocator@H@std@@@std@@@polygon@boost@@QEAAXAEAV?$polygon_set_data@H@12@V?$boolean_output_functor@V?$polygon_set_data@H@polygon@boost@@V?$vector@HV?$allocator@H@std@@@std@@$0A@@?$arbitrary_boolean_op@H@12@AEBU?$pair@V?$point_data@H@polygon@boost@@V123@@std@@AEBV?$vector@U?$pair@HH@std@@V?$allocator@U?$pair@HH@std@@@2@@7@3@Z 000000018002fec0     minkowski.obj
 0002:00008ee4       $unwind$??$_Emplace_reallocate@U?$pair@U?$pair@V?$point_data@H@polygon@boost@@V123@@std@@V?$vector@U?$pair@HH@std@@V?$allocator@U?$pair@HH@std@@@2@@2@@std@@@?$vector@U?$pair@U?$pair@V?$point_data@H@polygon@boost@@V123@@std@@V?$vector@U?$pair@HH@std@@V?$allocator@U?$pair@HH@std@@@2@@2@@std@@V?$allocator@U?$pair@U?$pair@V?$point_data@H@polygon@boost@@V123@@std@@V?$vector@U?$pair@HH@std@@V?$allocator@U?$pair@HH@std@@@2@@2@@std@@@2@@std@@QEAAPEAU?$pair@U?$pair@V?$point_data@H@polygon@boost@@V123@@std@@V?$vector@U?$pair@HH@std@@V?$allocator@U?$pair@HH@std@@@2@@2@@1@QEAU21@$$QEAU21@@Z 000000018002fee4     minkowski.obj
 0002:00008ef8       $chain$1$??$_Emplace_reallocate@U?$pair@U?$pair@V?$point_data@H@polygon@boost@@V123@@std@@V?$vector@U?$pair@HH@std@@V?$allocator@U?$pair@HH@std@@@2@@2@@std@@@?$vector@U?$pair@U?$pair@V?$point_data@H@polygon@boost@@V123@@std@@V?$vector@U?$pair@HH@std@@V?$allocator@U?$pair@HH@std@@@2@@2@@std@@V?$allocator@U?$pair@U?$pair@V?$point_data@H@polygon@boost@@V123@@std@@V?$vector@U?$pair@HH@std@@V?$allocator@U?$pair@HH@std@@@2@@2@@std@@@2@@std@@QEAAPEAU?$pair@U?$pair@V?$point_data@H@polygon@boost@@V123@@std@@V?$vector@U?$pair@HH@std@@V?$allocator@U?$pair@HH@std@@@2@@2@@1@QEAU21@$$QEAU21@@Z 000000018002fef8     minkowski.obj
 0002:00008f10       $chain$2$??$_Emplace_reallocate@U?$pair@U?$pair@V?$point_data@H@polygon@boost@@V123@@std@@V?$vector@U?$pair@HH@std@@V?$allocator@U?$pair@HH@std@@@2@@2@@std@@@?$vector@U?$pair@U?$pair@V?$point_data@H@polygon@boost@@V123@@std@@V?$vector@U?$pair@HH@std@@V?$allocator@U?$pair@HH@std@@@2@@2@@std@@V?$allocator@U?$pair@U?$pair@V?$point_data@H@polygon@boost@@V123@@std@@V?$vector@U?$pair@HH@std@@V?$allocator@U?$pair@HH@std@@@2@@2@@std@@@2@@std@@QEAAPEAU?$pair@U?$pair@V?$point_data@H@polygon@boost@@V123@@std@@V?$vector@U?$pair@HH@std@@V?$allocator@U?$pair@HH@std@@@2@@2@@1@QEAU21@$$QEAU21@@Z 000000018002ff10     minkowski.obj
 0002:00008f20       $unwind$??$_Pop_heap_hole_by_index@PEAV?$point_data@H@polygon@boost@@V123@Vless_point_down_slope@?$line_intersection@H@23@@std@@YAXPEAV?$point_data@H@polygon@boost@@_J1$$QEAV123@Vless_point_down_slope@?$line_intersection@H@23@@Z 000000018002ff20     minkowski.obj
 0002:00008f20       $unwind$??$_Push_heap_by_index@PEAU?$pair@U?$pair@V?$point_data@H@polygon@boost@@V123@@std@@H@std@@U12@U?$less@X@2@@std@@YAXPEAU?$pair@U?$pair@V?$point_data@H@polygon@boost@@V123@@std@@H@0@_J1$$QEAU10@U?$less@X@0@@Z 000000018002ff20     minkowski.obj
 0002:00008f20       $unwind$??$less_slope@H@?$scanline_base@H@polygon@boost@@SA_NHHHH@Z 000000018002ff20     minkowski.obj
 0002:00008f30       $unwind$?_Insert_node@?$_Tree_val@U?$_Tree_simple_types@U?$pair@$$CBHV?$vector@U?$pair@U?$pair@V?$point_data@H@polygon@boost@@V123@@std@@H@std@@V?$allocator@U?$pair@U?$pair@V?$point_data@H@polygon@boost@@V123@@std@@H@std@@@2@@std@@@std@@@std@@@std@@QEAAPEAU?$_Tree_node@U?$pair@$$CBHV?$vector@U?$pair@U?$pair@V?$point_data@H@polygon@boost@@V123@@std@@H@std@@V?$allocator@U?$pair@U?$pair@V?$point_data@H@polygon@boost@@V123@@std@@H@std@@@2@@std@@@std@@PEAX@2@U?$_Tree_id@PEAU?$_Tree_node@U?$pair@$$CBHV?$vector@U?$pair@U?$pair@V?$point_data@H@polygon@boost@@V123@@std@@H@std@@V?$allocator@U?$pair@U?$pair@V?$point_data@H@polygon@boost@@V123@@std@@H@std@@@2@@std@@@std@@PEAX@std@@@2@QEAU32@@Z 000000018002ff30     minkowski.obj
 0002:00008f30       $unwind$?_Insert_node@?$_Tree_val@U?$_Tree_simple_types@U?$pair@$$CBU?$pair@V?$point_data@H@polygon@boost@@V123@@std@@V?$vector@U?$pair@HH@std@@V?$allocator@U?$pair@HH@std@@@2@@2@@std@@@std@@@std@@QEAAPEAU?$_Tree_node@U?$pair@$$CBU?$pair@V?$point_data@H@polygon@boost@@V123@@std@@V?$vector@U?$pair@HH@std@@V?$allocator@U?$pair@HH@std@@@2@@2@@std@@PEAX@2@U?$_Tree_id@PEAU?$_Tree_node@U?$pair@$$CBU?$pair@V?$point_data@H@polygon@boost@@V123@@std@@V?$vector@U?$pair@HH@std@@V?$allocator@U?$pair@HH@std@@@2@@2@@std@@PEAX@std@@@2@QEAU32@@Z 000000018002ff30     minkowski.obj
 0002:00008f30       $unwind$?_Insert_node@?$_Tree_val@U?$_Tree_simple_types@U?$pair@$$CBVvertex_half_edge@?$scanline_base@H@polygon@boost@@PEAVactive_tail_arbitrary@?$polygon_arbitrary_formation@H@34@@std@@@std@@@std@@QEAAPEAU?$_Tree_node@U?$pair@$$CBVvertex_half_edge@?$scanline_base@H@polygon@boost@@PEAVactive_tail_arbitrary@?$polygon_arbitrary_formation@H@34@@std@@PEAX@2@U?$_Tree_id@PEAU?$_Tree_node@U?$pair@$$CBVvertex_half_edge@?$scanline_base@H@polygon@boost@@PEAVactive_tail_arbitrary@?$polygon_arbitrary_formation@H@34@@std@@PEAX@std@@@2@QEAU32@@Z 000000018002ff30     minkowski.obj
 0002:00008f30       $unwind$?_Insert_node@?$_Tree_val@U?$_Tree_simple_types@V?$point_data@H@polygon@boost@@@std@@@std@@QEAAPEAU?$_Tree_node@V?$point_data@H@polygon@boost@@PEAX@2@U?$_Tree_id@PEAU?$_Tree_node@V?$point_data@H@polygon@boost@@PEAX@std@@@2@QEAU32@@Z 000000018002ff30     minkowski.obj
 0002:00008f3c       $unwind$?_Umove_if_noexcept@?$vector@U?$pair@U?$pair@V?$point_data@H@polygon@boost@@V123@@std@@V?$vector@U?$pair@HH@std@@V?$allocator@U?$pair@HH@std@@@2@@2@@std@@V?$allocator@U?$pair@U?$pair@V?$point_data@H@polygon@boost@@V123@@std@@V?$vector@U?$pair@HH@std@@V?$allocator@U?$pair@HH@std@@@2@@2@@std@@@2@@std@@AEAAXPEAU?$pair@U?$pair@V?$point_data@H@polygon@boost@@V123@@std@@V?$vector@U?$pair@HH@std@@V?$allocator@U?$pair@HH@std@@@2@@2@@2@00@Z 000000018002ff3c     minkowski.obj
 0002:00008f48       $chain$1$?_Umove_if_noexcept@?$vector@U?$pair@U?$pair@V?$point_data@H@polygon@boost@@V123@@std@@V?$vector@U?$pair@HH@std@@V?$allocator@U?$pair@HH@std@@@2@@2@@std@@V?$allocator@U?$pair@U?$pair@V?$point_data@H@polygon@boost@@V123@@std@@V?$vector@U?$pair@HH@std@@V?$allocator@U?$pair@HH@std@@@2@@2@@std@@@2@@std@@AEAAXPEAU?$pair@U?$pair@V?$point_data@H@polygon@boost@@V123@@std@@V?$vector@U?$pair@HH@std@@V?$allocator@U?$pair@HH@std@@@2@@2@@2@00@Z 000000018002ff48     minkowski.obj
 0002:00008f60       $chain$2$?_Umove_if_noexcept@?$vector@U?$pair@U?$pair@V?$point_data@H@polygon@boost@@V123@@std@@V?$vector@U?$pair@HH@std@@V?$allocator@U?$pair@HH@std@@@2@@2@@std@@V?$allocator@U?$pair@U?$pair@V?$point_data@H@polygon@boost@@V123@@std@@V?$vector@U?$pair@HH@std@@V?$allocator@U?$pair@HH@std@@@2@@2@@std@@@2@@std@@AEAAXPEAU?$pair@U?$pair@V?$point_data@H@polygon@boost@@V123@@std@@V?$vector@U?$pair@HH@std@@V?$allocator@U?$pair@HH@std@@@2@@2@@2@00@Z 000000018002ff60     minkowski.obj
 0002:00008f70       $chain$0$?_Umove@?$vector@U?$pair@U?$pair@V?$point_data@H@polygon@boost@@V123@@std@@V?$vector@U?$pair@HH@std@@V?$allocator@U?$pair@HH@std@@@2@@2@@std@@V?$allocator@U?$pair@U?$pair@V?$point_data@H@polygon@boost@@V123@@std@@V?$vector@U?$pair@HH@std@@V?$allocator@U?$pair@HH@std@@@2@@2@@std@@@2@@std@@AEAAPEAU?$pair@U?$pair@V?$point_data@H@polygon@boost@@V123@@std@@V?$vector@U?$pair@HH@std@@V?$allocator@U?$pair@HH@std@@@2@@2@@2@PEAU32@00@Z 000000018002ff70     minkowski.obj
 0002:00008f84       $chain$1$?_Umove@?$vector@U?$pair@U?$pair@V?$point_data@H@polygon@boost@@V123@@std@@V?$vector@U?$pair@HH@std@@V?$allocator@U?$pair@HH@std@@@2@@2@@std@@V?$allocator@U?$pair@U?$pair@V?$point_data@H@polygon@boost@@V123@@std@@V?$vector@U?$pair@HH@std@@V?$allocator@U?$pair@HH@std@@@2@@2@@std@@@2@@std@@AEAAPEAU?$pair@U?$pair@V?$point_data@H@polygon@boost@@V123@@std@@V?$vector@U?$pair@HH@std@@V?$allocator@U?$pair@HH@std@@@2@@2@@2@PEAU32@00@Z 000000018002ff84     minkowski.obj
 0002:00008f94       $unwind$??$_Sort_unchecked@PEAU?$pair@U?$pair@V?$point_data@H@polygon@boost@@V123@@std@@U?$pair@HH@2@@std@@V?$less_vertex_data@U?$pair@U?$pair@V?$point_data@H@polygon@boost@@V123@@std@@U?$pair@HH@2@@std@@@?$arbitrary_boolean_op@H@polygon@boost@@@std@@YAXPEAU?$pair@U?$pair@V?$point_data@H@polygon@boost@@V123@@std@@U?$pair@HH@2@@0@0_JV?$less_vertex_data@U?$pair@U?$pair@V?$point_data@H@polygon@boost@@V123@@std@@U?$pair@HH@2@@std@@@?$arbitrary_boolean_op@H@polygon@boost@@@Z 000000018002ff94     minkowski.obj
 0002:00008f94       $unwind$??$_Sort_unchecked@PEAVvertex_half_edge@?$scanline_base@H@polygon@boost@@U?$less@X@std@@@std@@YAXPEAVvertex_half_edge@?$scanline_base@H@polygon@boost@@0_JU?$less@X@0@@Z 000000018002ff94     minkowski.obj
 0002:00008fb0       $unwind$??$compute_histogram_in_y@V?$_Vector_iterator@V?$_Vector_val@U?$_Simple_types@U?$pair@U?$pair@V?$point_data@H@polygon@boost@@V123@@std@@H@std@@@std@@@std@@@std@@@?$line_intersection@H@polygon@boost@@SAXV?$_Vector_iterator@V?$_Vector_val@U?$_Simple_types@U?$pair@U?$pair@V?$point_data@H@polygon@boost@@V123@@std@@H@std@@@std@@@std@@@std@@0_KAEAV?$vector@U?$pair@HU?$pair@_K_K@std@@@std@@V?$allocator@U?$pair@HU?$pair@_K_K@std@@@std@@@2@@4@@Z 000000018002ffb0     minkowski.obj
 0002:00008fc8       $unwind$??$compute_y_cuts@V?$_Vector_iterator@V?$_Vector_val@U?$_Simple_types@U?$pair@HU?$pair@_K_K@std@@@std@@@std@@@std@@@std@@@?$line_intersection@H@polygon@boost@@SAXAEAV?$vector@HV?$allocator@H@std@@@std@@V?$_Vector_iterator@V?$_Vector_val@U?$_Simple_types@U?$pair@HU?$pair@_K_K@std@@@std@@@std@@@std@@@4@1_K@Z 000000018002ffc8     minkowski.obj
 0002:00008fd4       $chain$3$??$compute_y_cuts@V?$_Vector_iterator@V?$_Vector_val@U?$_Simple_types@U?$pair@HU?$pair@_K_K@std@@@std@@@std@@@std@@@std@@@?$line_intersection@H@polygon@boost@@SAXAEAV?$vector@HV?$allocator@H@std@@@std@@V?$_Vector_iterator@V?$_Vector_val@U?$_Simple_types@U?$pair@HU?$pair@_K_K@std@@@std@@@std@@@std@@@4@1_K@Z 000000018002ffd4     minkowski.obj
 0002:00008ff4       $chain$4$??$compute_y_cuts@V?$_Vector_iterator@V?$_Vector_val@U?$_Simple_types@U?$pair@HU?$pair@_K_K@std@@@std@@@std@@@std@@@std@@@?$line_intersection@H@polygon@boost@@SAXAEAV?$vector@HV?$allocator@H@std@@@std@@V?$_Vector_iterator@V?$_Vector_val@U?$_Simple_types@U?$pair@HU?$pair@_K_K@std@@@std@@@std@@@std@@@4@1_K@Z 000000018002fff4     minkowski.obj
 0002:00009004       $unwind$??$validate_scan@V?$_Vector_iterator@V?$_Vector_val@U?$_Simple_types@U?$pair@U?$pair@V?$point_data@H@polygon@boost@@V123@@std@@H@std@@@std@@@std@@@std@@@?$line_intersection@H@polygon@boost@@SAXAEAV?$vector@V?$set@V?$point_data@H@polygon@boost@@U?$less@V?$point_data@H@polygon@boost@@@std@@V?$allocator@V?$point_data@H@polygon@boost@@@5@@std@@V?$allocator@V?$set@V?$point_data@H@polygon@boost@@U?$less@V?$point_data@H@polygon@boost@@@std@@V?$allocator@V?$point_data@H@polygon@boost@@@5@@std@@@2@@std@@V?$_Vector_iterator@V?$_Vector_val@U?$_Simple_types@U?$pair@U?$pair@V?$point_data@H@polygon@boost@@V123@@std@@H@std@@@std@@@std@@@4@1H@Z 0000000180030004     minkowski.obj
 0002:0000902c       $unwind$??$_Emplace_reallocate@V?$polygon_with_holes_data@H@polygon@boost@@@?$vector@V?$polygon_with_holes_data@H@polygon@boost@@V?$allocator@V?$polygon_with_holes_data@H@polygon@boost@@@std@@@std@@QEAAPEAV?$polygon_with_holes_data@H@polygon@boost@@QEAV234@$$QEAV234@@Z 000000018003002c     minkowski.obj
 0002:0000903c       $chain$3$??$_Emplace_reallocate@V?$polygon_with_holes_data@H@polygon@boost@@@?$vector@V?$polygon_with_holes_data@H@polygon@boost@@V?$allocator@V?$polygon_with_holes_data@H@polygon@boost@@@std@@@std@@QEAAPEAV?$polygon_with_holes_data@H@polygon@boost@@QEAV234@$$QEAV234@@Z 000000018003003c     minkowski.obj
 0002:0000905c       $chain$5$??$_Emplace_reallocate@V?$polygon_with_holes_data@H@polygon@boost@@@?$vector@V?$polygon_with_holes_data@H@polygon@boost@@V?$allocator@V?$polygon_with_holes_data@H@polygon@boost@@@std@@@std@@QEAAPEAV?$polygon_with_holes_data@H@polygon@boost@@QEAV234@$$QEAV234@@Z 000000018003005c     minkowski.obj
 0002:0000907c       $chain$6$??$_Emplace_reallocate@V?$polygon_with_holes_data@H@polygon@boost@@@?$vector@V?$polygon_with_holes_data@H@polygon@boost@@V?$allocator@V?$polygon_with_holes_data@H@polygon@boost@@@std@@@std@@QEAAPEAV?$polygon_with_holes_data@H@polygon@boost@@QEAV234@$$QEAV234@@Z 000000018003007c     minkowski.obj
 0002:0000908c       $unwind$?push_back@?$vector@U?$pair@HU?$pair@_K_K@std@@@std@@V?$allocator@U?$pair@HU?$pair@_K_K@std@@@std@@@2@@std@@QEAAX$$QEAU?$pair@HU?$pair@_K_K@std@@@2@@Z 000000018003008c     minkowski.obj
 0002:00009098       $chain$2$?push_back@?$vector@U?$pair@HU?$pair@_K_K@std@@@std@@V?$allocator@U?$pair@HU?$pair@_K_K@std@@@std@@@2@@std@@QEAAX$$QEAU?$pair@HU?$pair@_K_K@std@@@2@@Z 0000000180030098     minkowski.obj
 0002:000090b4       $chain$4$?push_back@?$vector@U?$pair@HU?$pair@_K_K@std@@@std@@V?$allocator@U?$pair@HU?$pair@_K_K@std@@@std@@@2@@std@@QEAAX$$QEAU?$pair@HU?$pair@_K_K@std@@@2@@Z 00000001800300b4     minkowski.obj
 0002:000090cc       $unwind$?intersects_grid@?$scanline_base@H@polygon@boost@@SA_NV?$point_data@H@23@AEBU?$pair@V?$point_data@H@polygon@boost@@V123@@std@@@Z 00000001800300cc     minkowski.obj
 0002:000090f0       $unwind$?compute_exact_intersection@compute_intersection_pack@?$scanline_base@H@polygon@boost@@QEAA_NAEAV?$point_data@H@34@AEBU?$pair@V?$point_data@H@polygon@boost@@V123@@std@@1_N2@Z 00000001800300f0     minkowski.obj
 0002:00009120       $chain$0$?compute_exact_intersection@compute_intersection_pack@?$scanline_base@H@polygon@boost@@QEAA_NAEAV?$point_data@H@34@AEBU?$pair@V?$point_data@H@polygon@boost@@V123@@std@@1_N2@Z 0000000180030120     minkowski.obj
 0002:00009134       $chain$1$?compute_exact_intersection@compute_intersection_pack@?$scanline_base@H@polygon@boost@@QEAA_NAEAV?$point_data@H@34@AEBU?$pair@V?$point_data@H@polygon@boost@@V123@@std@@1_N2@Z 0000000180030134     minkowski.obj
 0002:00009144       $unwind$?compute_lazy_intersection@compute_intersection_pack@?$scanline_base@H@polygon@boost@@SA_NAEAV?$point_data@H@34@AEBU?$pair@V?$point_data@H@polygon@boost@@V123@@std@@1_N2@Z 0000000180030144     minkowski.obj
 0002:0000917c       $chain$0$?compute_lazy_intersection@compute_intersection_pack@?$scanline_base@H@polygon@boost@@SA_NAEAV?$point_data@H@34@AEBU?$pair@V?$point_data@H@polygon@boost@@V123@@std@@1_N2@Z 000000018003017c     minkowski.obj
 0002:00009190       $chain$1$?compute_lazy_intersection@compute_intersection_pack@?$scanline_base@H@polygon@boost@@SA_NAEAV?$point_data@H@34@AEBU?$pair@V?$point_data@H@polygon@boost@@V123@@std@@1_N2@Z 0000000180030190     minkowski.obj
 0002:000091a0       $unwind$?intersects@?$scanline_base@H@polygon@boost@@SA_NAEBU?$pair@V?$point_data@H@polygon@boost@@V123@@std@@0@Z 00000001800301a0     minkowski.obj
 0002:000091b8       $unwind$??$_Insertion_sort_unchecked@PEAVvertex_half_edge@?$scanline_base@H@polygon@boost@@U?$less@X@std@@@std@@YAPEAVvertex_half_edge@?$scanline_base@H@polygon@boost@@QEAV1234@0U?$less@X@0@@Z 00000001800301b8     minkowski.obj
 0002:000091cc       $chain$0$??$_Insertion_sort_unchecked@PEAVvertex_half_edge@?$scanline_base@H@polygon@boost@@U?$less@X@std@@@std@@YAPEAVvertex_half_edge@?$scanline_base@H@polygon@boost@@QEAV1234@0U?$less@X@0@@Z 00000001800301cc     minkowski.obj
 0002:000091e0       $chain$5$??$_Insertion_sort_unchecked@PEAVvertex_half_edge@?$scanline_base@H@polygon@boost@@U?$less@X@std@@@std@@YAPEAVvertex_half_edge@?$scanline_base@H@polygon@boost@@QEAV1234@0U?$less@X@0@@Z 00000001800301e0     minkowski.obj
 0002:00009204       $chain$6$??$_Insertion_sort_unchecked@PEAVvertex_half_edge@?$scanline_base@H@polygon@boost@@U?$less@X@std@@@std@@YAPEAVvertex_half_edge@?$scanline_base@H@polygon@boost@@QEAV1234@0U?$less@X@0@@Z 0000000180030204     minkowski.obj
 0002:00009214       $chain$10$??$_Insertion_sort_unchecked@PEAVvertex_half_edge@?$scanline_base@H@polygon@boost@@U?$less@X@std@@@std@@YAPEAVvertex_half_edge@?$scanline_base@H@polygon@boost@@QEAV1234@0U?$less@X@0@@Z 0000000180030214     minkowski.obj
 0002:00009214       $chain$7$??$_Insertion_sort_unchecked@PEAVvertex_half_edge@?$scanline_base@H@polygon@boost@@U?$less@X@std@@@std@@YAPEAVvertex_half_edge@?$scanline_base@H@polygon@boost@@QEAV1234@0U?$less@X@0@@Z 0000000180030214     minkowski.obj
 0002:00009224       $chain$8$??$_Insertion_sort_unchecked@PEAVvertex_half_edge@?$scanline_base@H@polygon@boost@@U?$less@X@std@@@std@@YAPEAVvertex_half_edge@?$scanline_base@H@polygon@boost@@QEAV1234@0U?$less@X@0@@Z 0000000180030224     minkowski.obj
 0002:0000924c       $chain$9$??$_Insertion_sort_unchecked@PEAVvertex_half_edge@?$scanline_base@H@polygon@boost@@U?$less@X@std@@@std@@YAPEAVvertex_half_edge@?$scanline_base@H@polygon@boost@@QEAV1234@0U?$less@X@0@@Z 000000018003024c     minkowski.obj
 0002:00009260       $unwind$??$_Partition_by_median_guess_unchecked@PEAVvertex_half_edge@?$scanline_base@H@polygon@boost@@U?$less@X@std@@@std@@YA?AU?$pair@PEAVvertex_half_edge@?$scanline_base@H@polygon@boost@@PEAV1234@@0@PEAVvertex_half_edge@?$scanline_base@H@polygon@boost@@0U?$less@X@0@@Z 0000000180030260     minkowski.obj
 0002:00009278       $unwind$??$_Find_hint@Vvertex_half_edge@?$scanline_base@H@polygon@boost@@@?$_Tree@V?$_Tmap_traits@Vvertex_half_edge@?$scanline_base@H@polygon@boost@@PEAVactive_tail_arbitrary@?$polygon_arbitrary_formation@H@34@Vless_vertex_half_edge@234@V?$allocator@U?$pair@$$CBVvertex_half_edge@?$scanline_base@H@polygon@boost@@PEAVactive_tail_arbitrary@?$polygon_arbitrary_formation@H@34@@std@@@std@@$0A@@std@@@std@@IEBA?AU?$_Tree_find_hint_result@PEAU?$_Tree_node@U?$pair@$$CBVvertex_half_edge@?$scanline_base@H@polygon@boost@@PEAVactive_tail_arbitrary@?$polygon_arbitrary_formation@H@34@@std@@PEAX@std@@@1@QEAU?$_Tree_node@U?$pair@$$CBVvertex_half_edge@?$scanline_base@H@polygon@boost@@PEAVactive_tail_arbitrary@?$polygon_arbitrary_formation@H@34@@std@@PEAX@1@AEBVvertex_half_edge@?$scanline_base@H@polygon@boost@@@Z 0000000180030278     minkowski.obj
 0002:00009290       $unwind$??$_Insert_range@V?$_Tree_unchecked_const_iterator@V?$_Tree_val@U?$_Tree_simple_types@V?$point_data@H@polygon@boost@@@std@@@std@@U_Iterator_base0@2@@std@@@?$vector@V?$point_data@H@polygon@boost@@V?$allocator@V?$point_data@H@polygon@boost@@@std@@@std@@AEAAXV?$_Vector_const_iterator@V?$_Vector_val@U?$_Simple_types@V?$point_data@H@polygon@boost@@@std@@@std@@@1@V?$_Tree_unchecked_const_iterator@V?$_Tree_val@U?$_Tree_simple_types@V?$point_data@H@polygon@boost@@@std@@@std@@U_Iterator_base0@2@@1@1Uforward_iterator_tag@1@@Z 0000000180030290     minkowski.obj
 0002:000092a4       $chain$0$??$_Insert_range@V?$_Tree_unchecked_const_iterator@V?$_Tree_val@U?$_Tree_simple_types@V?$point_data@H@polygon@boost@@@std@@@std@@U_Iterator_base0@2@@std@@@?$vector@V?$point_data@H@polygon@boost@@V?$allocator@V?$point_data@H@polygon@boost@@@std@@@std@@AEAAXV?$_Vector_const_iterator@V?$_Vector_val@U?$_Simple_types@V?$point_data@H@polygon@boost@@@std@@@std@@@1@V?$_Tree_unchecked_const_iterator@V?$_Tree_val@U?$_Tree_simple_types@V?$point_data@H@polygon@boost@@@std@@@std@@U_Iterator_base0@2@@1@1Uforward_iterator_tag@1@@Z 00000001800302a4     minkowski.obj
 0002:000092b8       $chain$1$??$_Insert_range@V?$_Tree_unchecked_const_iterator@V?$_Tree_val@U?$_Tree_simple_types@V?$point_data@H@polygon@boost@@@std@@@std@@U_Iterator_base0@2@@std@@@?$vector@V?$point_data@H@polygon@boost@@V?$allocator@V?$point_data@H@polygon@boost@@@std@@@std@@AEAAXV?$_Vector_const_iterator@V?$_Vector_val@U?$_Simple_types@V?$point_data@H@polygon@boost@@@std@@@std@@@1@V?$_Tree_unchecked_const_iterator@V?$_Tree_val@U?$_Tree_simple_types@V?$point_data@H@polygon@boost@@@std@@@std@@U_Iterator_base0@2@@1@1Uforward_iterator_tag@1@@Z 00000001800302b8     minkowski.obj
 0002:000092c8       $chain$2$??$_Insert_range@V?$_Tree_unchecked_const_iterator@V?$_Tree_val@U?$_Tree_simple_types@V?$point_data@H@polygon@boost@@@std@@@std@@U_Iterator_base0@2@@std@@@?$vector@V?$point_data@H@polygon@boost@@V?$allocator@V?$point_data@H@polygon@boost@@@std@@@std@@AEAAXV?$_Vector_const_iterator@V?$_Vector_val@U?$_Simple_types@V?$point_data@H@polygon@boost@@@std@@@std@@@1@V?$_Tree_unchecked_const_iterator@V?$_Tree_val@U?$_Tree_simple_types@V?$point_data@H@polygon@boost@@@std@@@std@@U_Iterator_base0@2@@1@1Uforward_iterator_tag@1@@Z 00000001800302c8     minkowski.obj
 0002:000092dc       $unwind$??$_Insertion_sort_unchecked@PEAU?$pair@U?$pair@V?$point_data@H@polygon@boost@@V123@@std@@U?$pair@HH@2@@std@@V?$less_vertex_data@U?$pair@U?$pair@V?$point_data@H@polygon@boost@@V123@@std@@U?$pair@HH@2@@std@@@?$arbitrary_boolean_op@H@polygon@boost@@@std@@YAPEAU?$pair@U?$pair@V?$point_data@H@polygon@boost@@V123@@std@@U?$pair@HH@2@@0@QEAU10@0V?$less_vertex_data@U?$pair@U?$pair@V?$point_data@H@polygon@boost@@V123@@std@@U?$pair@HH@2@@std@@@?$arbitrary_boolean_op@H@polygon@boost@@@Z 00000001800302dc     minkowski.obj
 0002:000092f4       $chain$0$??$_Insertion_sort_unchecked@PEAU?$pair@U?$pair@V?$point_data@H@polygon@boost@@V123@@std@@U?$pair@HH@2@@std@@V?$less_vertex_data@U?$pair@U?$pair@V?$point_data@H@polygon@boost@@V123@@std@@U?$pair@HH@2@@std@@@?$arbitrary_boolean_op@H@polygon@boost@@@std@@YAPEAU?$pair@U?$pair@V?$point_data@H@polygon@boost@@V123@@std@@U?$pair@HH@2@@0@QEAU10@0V?$less_vertex_data@U?$pair@U?$pair@V?$point_data@H@polygon@boost@@V123@@std@@U?$pair@HH@2@@std@@@?$arbitrary_boolean_op@H@polygon@boost@@@Z 00000001800302f4     minkowski.obj
 0002:00009308       $chain$3$??$_Insertion_sort_unchecked@PEAU?$pair@U?$pair@V?$point_data@H@polygon@boost@@V123@@std@@U?$pair@HH@2@@std@@V?$less_vertex_data@U?$pair@U?$pair@V?$point_data@H@polygon@boost@@V123@@std@@U?$pair@HH@2@@std@@@?$arbitrary_boolean_op@H@polygon@boost@@@std@@YAPEAU?$pair@U?$pair@V?$point_data@H@polygon@boost@@V123@@std@@U?$pair@HH@2@@0@QEAU10@0V?$less_vertex_data@U?$pair@U?$pair@V?$point_data@H@polygon@boost@@V123@@std@@U?$pair@HH@2@@std@@@?$arbitrary_boolean_op@H@polygon@boost@@@Z 0000000180030308     minkowski.obj
 0002:00009324       $chain$4$??$_Insertion_sort_unchecked@PEAU?$pair@U?$pair@V?$point_data@H@polygon@boost@@V123@@std@@U?$pair@HH@2@@std@@V?$less_vertex_data@U?$pair@U?$pair@V?$point_data@H@polygon@boost@@V123@@std@@U?$pair@HH@2@@std@@@?$arbitrary_boolean_op@H@polygon@boost@@@std@@YAPEAU?$pair@U?$pair@V?$point_data@H@polygon@boost@@V123@@std@@U?$pair@HH@2@@0@QEAU10@0V?$less_vertex_data@U?$pair@U?$pair@V?$point_data@H@polygon@boost@@V123@@std@@U?$pair@HH@2@@std@@@?$arbitrary_boolean_op@H@polygon@boost@@@Z 0000000180030324     minkowski.obj
 0002:00009334       $chain$5$??$_Insertion_sort_unchecked@PEAU?$pair@U?$pair@V?$point_data@H@polygon@boost@@V123@@std@@U?$pair@HH@2@@std@@V?$less_vertex_data@U?$pair@U?$pair@V?$point_data@H@polygon@boost@@V123@@std@@U?$pair@HH@2@@std@@@?$arbitrary_boolean_op@H@polygon@boost@@@std@@YAPEAU?$pair@U?$pair@V?$point_data@H@polygon@boost@@V123@@std@@U?$pair@HH@2@@0@QEAU10@0V?$less_vertex_data@U?$pair@U?$pair@V?$point_data@H@polygon@boost@@V123@@std@@U?$pair@HH@2@@std@@@?$arbitrary_boolean_op@H@polygon@boost@@@Z 0000000180030334     minkowski.obj
 0002:00009334       $chain$8$??$_Insertion_sort_unchecked@PEAU?$pair@U?$pair@V?$point_data@H@polygon@boost@@V123@@std@@U?$pair@HH@2@@std@@V?$less_vertex_data@U?$pair@U?$pair@V?$point_data@H@polygon@boost@@V123@@std@@U?$pair@HH@2@@std@@@?$arbitrary_boolean_op@H@polygon@boost@@@std@@YAPEAU?$pair@U?$pair@V?$point_data@H@polygon@boost@@V123@@std@@U?$pair@HH@2@@0@QEAU10@0V?$less_vertex_data@U?$pair@U?$pair@V?$point_data@H@polygon@boost@@V123@@std@@U?$pair@HH@2@@std@@@?$arbitrary_boolean_op@H@polygon@boost@@@Z 0000000180030334     minkowski.obj
 0002:00009344       $chain$6$??$_Insertion_sort_unchecked@PEAU?$pair@U?$pair@V?$point_data@H@polygon@boost@@V123@@std@@U?$pair@HH@2@@std@@V?$less_vertex_data@U?$pair@U?$pair@V?$point_data@H@polygon@boost@@V123@@std@@U?$pair@HH@2@@std@@@?$arbitrary_boolean_op@H@polygon@boost@@@std@@YAPEAU?$pair@U?$pair@V?$point_data@H@polygon@boost@@V123@@std@@U?$pair@HH@2@@0@QEAU10@0V?$less_vertex_data@U?$pair@U?$pair@V?$point_data@H@polygon@boost@@V123@@std@@U?$pair@HH@2@@std@@@?$arbitrary_boolean_op@H@polygon@boost@@@Z 0000000180030344     minkowski.obj
 0002:00009364       $chain$7$??$_Insertion_sort_unchecked@PEAU?$pair@U?$pair@V?$point_data@H@polygon@boost@@V123@@std@@U?$pair@HH@2@@std@@V?$less_vertex_data@U?$pair@U?$pair@V?$point_data@H@polygon@boost@@V123@@std@@U?$pair@HH@2@@std@@@?$arbitrary_boolean_op@H@polygon@boost@@@std@@YAPEAU?$pair@U?$pair@V?$point_data@H@polygon@boost@@V123@@std@@U?$pair@HH@2@@0@QEAU10@0V?$less_vertex_data@U?$pair@U?$pair@V?$point_data@H@polygon@boost@@V123@@std@@U?$pair@HH@2@@std@@@?$arbitrary_boolean_op@H@polygon@boost@@@Z 0000000180030364     minkowski.obj
 0002:00009378       $unwind$??$_Partition_by_median_guess_unchecked@PEAU?$pair@U?$pair@V?$point_data@H@polygon@boost@@V123@@std@@U?$pair@HH@2@@std@@V?$less_vertex_data@U?$pair@U?$pair@V?$point_data@H@polygon@boost@@V123@@std@@U?$pair@HH@2@@std@@@?$arbitrary_boolean_op@H@polygon@boost@@@std@@YA?AU?$pair@PEAU?$pair@U?$pair@V?$point_data@H@polygon@boost@@V123@@std@@U?$pair@HH@2@@std@@PEAU12@@0@PEAU?$pair@U?$pair@V?$point_data@H@polygon@boost@@V123@@std@@U?$pair@HH@2@@0@0V?$less_vertex_data@U?$pair@U?$pair@V?$point_data@H@polygon@boost@@V123@@std@@U?$pair@HH@2@@std@@@?$arbitrary_boolean_op@H@polygon@boost@@@Z 0000000180030378     minkowski.obj
 0002:00009390       $unwind$??$_Sort_unchecked@PEAU?$pair@U?$pair@V?$point_data@H@polygon@boost@@V123@@std@@H@std@@U?$less@X@2@@std@@YAXPEAU?$pair@U?$pair@V?$point_data@H@polygon@boost@@V123@@std@@H@0@0_JU?$less@X@0@@Z 0000000180030390     minkowski.obj
 0002:000093ac       $unwind$??$_Sort_unchecked@PEAU?$pair@U?$pair@U?$pair@V?$point_data@H@polygon@boost@@V123@@std@@H@std@@PEAVactive_tail_arbitrary@?$polygon_arbitrary_formation@H@polygon@boost@@@std@@U?$_Ref_fn@Vless_incoming_count@?$polygon_arbitrary_formation@H@polygon@boost@@@2@@std@@YAXPEAU?$pair@U?$pair@U?$pair@V?$point_data@H@polygon@boost@@V123@@std@@H@std@@PEAVactive_tail_arbitrary@?$polygon_arbitrary_formation@H@polygon@boost@@@0@0_JU?$_Ref_fn@Vless_incoming_count@?$polygon_arbitrary_formation@H@polygon@boost@@@0@@Z 00000001800303ac     minkowski.obj
 0002:000093c8       $unwind$??$_Sort_unchecked@PEAU?$pair@V?$point_data@H@polygon@boost@@H@std@@U?$_Ref_fn@Vless_half_edge_count@?$polygon_arbitrary_formation@H@polygon@boost@@@2@@std@@YAXPEAU?$pair@V?$point_data@H@polygon@boost@@H@0@0_JU?$_Ref_fn@Vless_half_edge_count@?$polygon_arbitrary_formation@H@polygon@boost@@@0@@Z 00000001800303c8     minkowski.obj
 0002:000093e4       $chain$0$??$_Erase_tree@V?$allocator@U?$_Tree_node@U?$pair@$$CBHV?$vector@U?$pair@U?$pair@V?$point_data@H@polygon@boost@@V123@@std@@H@std@@V?$allocator@U?$pair@U?$pair@V?$point_data@H@polygon@boost@@V123@@std@@H@std@@@2@@std@@@std@@PEAX@std@@@std@@@?$_Tree_val@U?$_Tree_simple_types@U?$pair@$$CBHV?$vector@U?$pair@U?$pair@V?$point_data@H@polygon@boost@@V123@@std@@H@std@@V?$allocator@U?$pair@U?$pair@V?$point_data@H@polygon@boost@@V123@@std@@H@std@@@2@@std@@@std@@@std@@@std@@QEAAXAEAV?$allocator@U?$_Tree_node@U?$pair@$$CBHV?$vector@U?$pair@U?$pair@V?$point_data@H@polygon@boost@@V123@@std@@H@std@@V?$allocator@U?$pair@U?$pair@V?$point_data@H@polygon@boost@@V123@@std@@H@std@@@2@@std@@@std@@PEAX@std@@@1@PEAU?$_Tree_node@U?$pair@$$CBHV?$vector@U?$pair@U?$pair@V?$point_data@H@polygon@boost@@V123@@std@@H@std@@V?$allocator@U?$pair@U?$pair@V?$point_data@H@polygon@boost@@V123@@std@@H@std@@@2@@std@@@std@@PEAX@1@@Z 00000001800303e4     minkowski.obj
 0002:000093f8       $chain$1$??$_Erase_tree@V?$allocator@U?$_Tree_node@U?$pair@$$CBHV?$vector@U?$pair@U?$pair@V?$point_data@H@polygon@boost@@V123@@std@@H@std@@V?$allocator@U?$pair@U?$pair@V?$point_data@H@polygon@boost@@V123@@std@@H@std@@@2@@std@@@std@@PEAX@std@@@std@@@?$_Tree_val@U?$_Tree_simple_types@U?$pair@$$CBHV?$vector@U?$pair@U?$pair@V?$point_data@H@polygon@boost@@V123@@std@@H@std@@V?$allocator@U?$pair@U?$pair@V?$point_data@H@polygon@boost@@V123@@std@@H@std@@@2@@std@@@std@@@std@@@std@@QEAAXAEAV?$allocator@U?$_Tree_node@U?$pair@$$CBHV?$vector@U?$pair@U?$pair@V?$point_data@H@polygon@boost@@V123@@std@@H@std@@V?$allocator@U?$pair@U?$pair@V?$point_data@H@polygon@boost@@V123@@std@@H@std@@@2@@std@@@std@@PEAX@std@@@1@PEAU?$_Tree_node@U?$pair@$$CBHV?$vector@U?$pair@U?$pair@V?$point_data@H@polygon@boost@@V123@@std@@H@std@@V?$allocator@U?$pair@U?$pair@V?$point_data@H@polygon@boost@@V123@@std@@H@std@@@2@@std@@@std@@PEAX@1@@Z 00000001800303f8     minkowski.obj
 0002:00009408       $unwind$??$_Pop_heap_hole_by_index@PEAVvertex_half_edge@?$scanline_base@H@polygon@boost@@V1234@U?$less@X@std@@@std@@YAXPEAVvertex_half_edge@?$scanline_base@H@polygon@boost@@_J1$$QEAV1234@U?$less@X@0@@Z 0000000180030408     minkowski.obj
 0002:0000941c       $chain$0$??$_Pop_heap_hole_by_index@PEAVvertex_half_edge@?$scanline_base@H@polygon@boost@@V1234@U?$less@X@std@@@std@@YAXPEAVvertex_half_edge@?$scanline_base@H@polygon@boost@@_J1$$QEAV1234@U?$less@X@0@@Z 000000018003041c     minkowski.obj
 0002:00009430       $chain$1$??$_Pop_heap_hole_by_index@PEAVvertex_half_edge@?$scanline_base@H@polygon@boost@@V1234@U?$less@X@std@@@std@@YAXPEAVvertex_half_edge@?$scanline_base@H@polygon@boost@@_J1$$QEAV1234@U?$less@X@0@@Z 0000000180030430     minkowski.obj
 0002:00009444       $chain$2$??$_Pop_heap_hole_by_index@PEAVvertex_half_edge@?$scanline_base@H@polygon@boost@@V1234@U?$less@X@std@@@std@@YAXPEAVvertex_half_edge@?$scanline_base@H@polygon@boost@@_J1$$QEAV1234@U?$less@X@0@@Z 0000000180030444     minkowski.obj
 0002:00009454       $chain$3$??$_Pop_heap_hole_by_index@PEAVvertex_half_edge@?$scanline_base@H@polygon@boost@@V1234@U?$less@X@std@@@std@@YAXPEAVvertex_half_edge@?$scanline_base@H@polygon@boost@@_J1$$QEAV1234@U?$less@X@0@@Z 0000000180030454     minkowski.obj
 0002:00009464       $unwind$??$_Pop_heap_hole_by_index@PEAU?$pair@U?$pair@V?$point_data@H@polygon@boost@@V123@@std@@U?$pair@HH@2@@std@@U12@V?$less_vertex_data@U?$pair@U?$pair@V?$point_data@H@polygon@boost@@V123@@std@@U?$pair@HH@2@@std@@@?$arbitrary_boolean_op@H@polygon@boost@@@std@@YAXPEAU?$pair@U?$pair@V?$point_data@H@polygon@boost@@V123@@std@@U?$pair@HH@2@@0@_J1$$QEAU10@V?$less_vertex_data@U?$pair@U?$pair@V?$point_data@H@polygon@boost@@V123@@std@@U?$pair@HH@2@@std@@@?$arbitrary_boolean_op@H@polygon@boost@@@Z 0000000180030464     minkowski.obj
 0002:00009478       $chain$0$??$_Pop_heap_hole_by_index@PEAU?$pair@U?$pair@V?$point_data@H@polygon@boost@@V123@@std@@U?$pair@HH@2@@std@@U12@V?$less_vertex_data@U?$pair@U?$pair@V?$point_data@H@polygon@boost@@V123@@std@@U?$pair@HH@2@@std@@@?$arbitrary_boolean_op@H@polygon@boost@@@std@@YAXPEAU?$pair@U?$pair@V?$point_data@H@polygon@boost@@V123@@std@@U?$pair@HH@2@@0@_J1$$QEAU10@V?$less_vertex_data@U?$pair@U?$pair@V?$point_data@H@polygon@boost@@V123@@std@@U?$pair@HH@2@@std@@@?$arbitrary_boolean_op@H@polygon@boost@@@Z 0000000180030478     minkowski.obj
 0002:0000948c       $chain$1$??$_Pop_heap_hole_by_index@PEAU?$pair@U?$pair@V?$point_data@H@polygon@boost@@V123@@std@@U?$pair@HH@2@@std@@U12@V?$less_vertex_data@U?$pair@U?$pair@V?$point_data@H@polygon@boost@@V123@@std@@U?$pair@HH@2@@std@@@?$arbitrary_boolean_op@H@polygon@boost@@@std@@YAXPEAU?$pair@U?$pair@V?$point_data@H@polygon@boost@@V123@@std@@U?$pair@HH@2@@0@_J1$$QEAU10@V?$less_vertex_data@U?$pair@U?$pair@V?$point_data@H@polygon@boost@@V123@@std@@U?$pair@HH@2@@std@@@?$arbitrary_boolean_op@H@polygon@boost@@@Z 000000018003048c     minkowski.obj
 0002:0000949c       $unwind$??$_Insertion_sort_unchecked@PEAU?$pair@U?$pair@V?$point_data@H@polygon@boost@@V123@@std@@H@std@@U?$less@X@2@@std@@YAPEAU?$pair@U?$pair@V?$point_data@H@polygon@boost@@V123@@std@@H@0@QEAU10@0U?$less@X@0@@Z 000000018003049c     minkowski.obj
 0002:000094a4       $chain$5$??$_Insertion_sort_unchecked@PEAU?$pair@U?$pair@V?$point_data@H@polygon@boost@@V123@@std@@H@std@@U?$less@X@2@@std@@YAPEAU?$pair@U?$pair@V?$point_data@H@polygon@boost@@V123@@std@@H@0@QEAU10@0U?$less@X@0@@Z 00000001800304a4     minkowski.obj
 0002:000094cc       $chain$7$??$_Insertion_sort_unchecked@PEAU?$pair@U?$pair@V?$point_data@H@polygon@boost@@V123@@std@@H@std@@U?$less@X@2@@std@@YAPEAU?$pair@U?$pair@V?$point_data@H@polygon@boost@@V123@@std@@H@0@QEAU10@0U?$less@X@0@@Z 00000001800304cc     minkowski.obj
 0002:000094e0       $chain$8$??$_Insertion_sort_unchecked@PEAU?$pair@U?$pair@V?$point_data@H@polygon@boost@@V123@@std@@H@std@@U?$less@X@2@@std@@YAPEAU?$pair@U?$pair@V?$point_data@H@polygon@boost@@V123@@std@@H@0@QEAU10@0U?$less@X@0@@Z 00000001800304e0     minkowski.obj
 0002:000094f0       $unwind$??$_Make_heap_unchecked@PEAU?$pair@U?$pair@V?$point_data@H@polygon@boost@@V123@@std@@H@std@@U?$less@X@2@@std@@YAXPEAU?$pair@U?$pair@V?$point_data@H@polygon@boost@@V123@@std@@H@0@0U?$less@X@0@@Z 00000001800304f0     minkowski.obj
 0002:000094fc       $chain$3$??$_Make_heap_unchecked@PEAU?$pair@U?$pair@V?$point_data@H@polygon@boost@@V123@@std@@H@std@@U?$less@X@2@@std@@YAXPEAU?$pair@U?$pair@V?$point_data@H@polygon@boost@@V123@@std@@H@0@0U?$less@X@0@@Z 00000001800304fc     minkowski.obj
 0002:0000951c       $chain$4$??$_Make_heap_unchecked@PEAU?$pair@U?$pair@V?$point_data@H@polygon@boost@@V123@@std@@H@std@@U?$less@X@2@@std@@YAXPEAU?$pair@U?$pair@V?$point_data@H@polygon@boost@@V123@@std@@H@0@0U?$less@X@0@@Z 000000018003051c     minkowski.obj
 0002:0000952c       $unwind$??$_Partition_by_median_guess_unchecked@PEAU?$pair@U?$pair@V?$point_data@H@polygon@boost@@V123@@std@@H@std@@U?$less@X@2@@std@@YA?AU?$pair@PEAU?$pair@U?$pair@V?$point_data@H@polygon@boost@@V123@@std@@H@std@@PEAU12@@0@PEAU?$pair@U?$pair@V?$point_data@H@polygon@boost@@V123@@std@@H@0@0U?$less@X@0@@Z 000000018003052c     minkowski.obj
 0002:00009548       $unwind$??$_Insertion_sort_unchecked@PEAU?$pair@U?$pair@U?$pair@V?$point_data@H@polygon@boost@@V123@@std@@H@std@@PEAVactive_tail_arbitrary@?$polygon_arbitrary_formation@H@polygon@boost@@@std@@U?$_Ref_fn@Vless_incoming_count@?$polygon_arbitrary_formation@H@polygon@boost@@@2@@std@@YAPEAU?$pair@U?$pair@U?$pair@V?$point_data@H@polygon@boost@@V123@@std@@H@std@@PEAVactive_tail_arbitrary@?$polygon_arbitrary_formation@H@polygon@boost@@@0@QEAU10@0U?$_Ref_fn@Vless_incoming_count@?$polygon_arbitrary_formation@H@polygon@boost@@@0@@Z 0000000180030548     minkowski.obj
 0002:00009554       $chain$5$??$_Insertion_sort_unchecked@PEAU?$pair@U?$pair@U?$pair@V?$point_data@H@polygon@boost@@V123@@std@@H@std@@PEAVactive_tail_arbitrary@?$polygon_arbitrary_formation@H@polygon@boost@@@std@@U?$_Ref_fn@Vless_incoming_count@?$polygon_arbitrary_formation@H@polygon@boost@@@2@@std@@YAPEAU?$pair@U?$pair@U?$pair@V?$point_data@H@polygon@boost@@V123@@std@@H@std@@PEAVactive_tail_arbitrary@?$polygon_arbitrary_formation@H@polygon@boost@@@0@QEAU10@0U?$_Ref_fn@Vless_incoming_count@?$polygon_arbitrary_formation@H@polygon@boost@@@0@@Z 0000000180030554     minkowski.obj
 0002:0000957c       $chain$7$??$_Insertion_sort_unchecked@PEAU?$pair@U?$pair@U?$pair@V?$point_data@H@polygon@boost@@V123@@std@@H@std@@PEAVactive_tail_arbitrary@?$polygon_arbitrary_formation@H@polygon@boost@@@std@@U?$_Ref_fn@Vless_incoming_count@?$polygon_arbitrary_formation@H@polygon@boost@@@2@@std@@YAPEAU?$pair@U?$pair@U?$pair@V?$point_data@H@polygon@boost@@V123@@std@@H@std@@PEAVactive_tail_arbitrary@?$polygon_arbitrary_formation@H@polygon@boost@@@0@QEAU10@0U?$_Ref_fn@Vless_incoming_count@?$polygon_arbitrary_formation@H@polygon@boost@@@0@@Z 000000018003057c     minkowski.obj
 0002:00009590       $chain$8$??$_Insertion_sort_unchecked@PEAU?$pair@U?$pair@U?$pair@V?$point_data@H@polygon@boost@@V123@@std@@H@std@@PEAVactive_tail_arbitrary@?$polygon_arbitrary_formation@H@polygon@boost@@@std@@U?$_Ref_fn@Vless_incoming_count@?$polygon_arbitrary_formation@H@polygon@boost@@@2@@std@@YAPEAU?$pair@U?$pair@U?$pair@V?$point_data@H@polygon@boost@@V123@@std@@H@std@@PEAVactive_tail_arbitrary@?$polygon_arbitrary_formation@H@polygon@boost@@@0@QEAU10@0U?$_Ref_fn@Vless_incoming_count@?$polygon_arbitrary_formation@H@polygon@boost@@@0@@Z 0000000180030590     minkowski.obj
 0002:000095a0       $unwind$??$_Make_heap_unchecked@PEAU?$pair@U?$pair@U?$pair@V?$point_data@H@polygon@boost@@V123@@std@@H@std@@PEAVactive_tail_arbitrary@?$polygon_arbitrary_formation@H@polygon@boost@@@std@@U?$_Ref_fn@Vless_incoming_count@?$polygon_arbitrary_formation@H@polygon@boost@@@2@@std@@YAXPEAU?$pair@U?$pair@U?$pair@V?$point_data@H@polygon@boost@@V123@@std@@H@std@@PEAVactive_tail_arbitrary@?$polygon_arbitrary_formation@H@polygon@boost@@@0@0U?$_Ref_fn@Vless_incoming_count@?$polygon_arbitrary_formation@H@polygon@boost@@@0@@Z 00000001800305a0     minkowski.obj
 0002:000095ac       $chain$5$??$_Make_heap_unchecked@PEAU?$pair@U?$pair@U?$pair@V?$point_data@H@polygon@boost@@V123@@std@@H@std@@PEAVactive_tail_arbitrary@?$polygon_arbitrary_formation@H@polygon@boost@@@std@@U?$_Ref_fn@Vless_incoming_count@?$polygon_arbitrary_formation@H@polygon@boost@@@2@@std@@YAXPEAU?$pair@U?$pair@U?$pair@V?$point_data@H@polygon@boost@@V123@@std@@H@std@@PEAVactive_tail_arbitrary@?$polygon_arbitrary_formation@H@polygon@boost@@@0@0U?$_Ref_fn@Vless_incoming_count@?$polygon_arbitrary_formation@H@polygon@boost@@@0@@Z 00000001800305ac     minkowski.obj
 0002:000095d4       $chain$6$??$_Make_heap_unchecked@PEAU?$pair@U?$pair@U?$pair@V?$point_data@H@polygon@boost@@V123@@std@@H@std@@PEAVactive_tail_arbitrary@?$polygon_arbitrary_formation@H@polygon@boost@@@std@@U?$_Ref_fn@Vless_incoming_count@?$polygon_arbitrary_formation@H@polygon@boost@@@2@@std@@YAXPEAU?$pair@U?$pair@U?$pair@V?$point_data@H@polygon@boost@@V123@@std@@H@std@@PEAVactive_tail_arbitrary@?$polygon_arbitrary_formation@H@polygon@boost@@@0@0U?$_Ref_fn@Vless_incoming_count@?$polygon_arbitrary_formation@H@polygon@boost@@@0@@Z 00000001800305d4     minkowski.obj
 0002:000095e4       $unwind$??$_Partition_by_median_guess_unchecked@PEAU?$pair@U?$pair@U?$pair@V?$point_data@H@polygon@boost@@V123@@std@@H@std@@PEAVactive_tail_arbitrary@?$polygon_arbitrary_formation@H@polygon@boost@@@std@@U?$_Ref_fn@Vless_incoming_count@?$polygon_arbitrary_formation@H@polygon@boost@@@2@@std@@YA?AU?$pair@PEAU?$pair@U?$pair@U?$pair@V?$point_data@H@polygon@boost@@V123@@std@@H@std@@PEAVactive_tail_arbitrary@?$polygon_arbitrary_formation@H@polygon@boost@@@std@@PEAU12@@0@PEAU?$pair@U?$pair@U?$pair@V?$point_data@H@polygon@boost@@V123@@std@@H@std@@PEAVactive_tail_arbitrary@?$polygon_arbitrary_formation@H@polygon@boost@@@0@0U?$_Ref_fn@Vless_incoming_count@?$polygon_arbitrary_formation@H@polygon@boost@@@0@@Z 00000001800305e4     minkowski.obj
 0002:000095fc       $unwind$??$_Insertion_sort_unchecked@PEAU?$pair@V?$point_data@H@polygon@boost@@H@std@@U?$_Ref_fn@Vless_half_edge_count@?$polygon_arbitrary_formation@H@polygon@boost@@@2@@std@@YAPEAU?$pair@V?$point_data@H@polygon@boost@@H@0@QEAU10@0U?$_Ref_fn@Vless_half_edge_count@?$polygon_arbitrary_formation@H@polygon@boost@@@0@@Z 00000001800305fc     minkowski.obj
 0002:00009608       $chain$5$??$_Insertion_sort_unchecked@PEAU?$pair@V?$point_data@H@polygon@boost@@H@std@@U?$_Ref_fn@Vless_half_edge_count@?$polygon_arbitrary_formation@H@polygon@boost@@@2@@std@@YAPEAU?$pair@V?$point_data@H@polygon@boost@@H@0@QEAU10@0U?$_Ref_fn@Vless_half_edge_count@?$polygon_arbitrary_formation@H@polygon@boost@@@0@@Z 0000000180030608     minkowski.obj
 0002:00009630       $chain$7$??$_Insertion_sort_unchecked@PEAU?$pair@V?$point_data@H@polygon@boost@@H@std@@U?$_Ref_fn@Vless_half_edge_count@?$polygon_arbitrary_formation@H@polygon@boost@@@2@@std@@YAPEAU?$pair@V?$point_data@H@polygon@boost@@H@0@QEAU10@0U?$_Ref_fn@Vless_half_edge_count@?$polygon_arbitrary_formation@H@polygon@boost@@@0@@Z 0000000180030630     minkowski.obj
 0002:00009644       $chain$8$??$_Insertion_sort_unchecked@PEAU?$pair@V?$point_data@H@polygon@boost@@H@std@@U?$_Ref_fn@Vless_half_edge_count@?$polygon_arbitrary_formation@H@polygon@boost@@@2@@std@@YAPEAU?$pair@V?$point_data@H@polygon@boost@@H@0@QEAU10@0U?$_Ref_fn@Vless_half_edge_count@?$polygon_arbitrary_formation@H@polygon@boost@@@0@@Z 0000000180030644     minkowski.obj
 0002:00009654       $unwind$??$?RAEAU?$pair@V?$point_data@H@polygon@boost@@H@std@@AEAU01@@?$_Ref_fn@Vless_half_edge_count@?$polygon_arbitrary_formation@H@polygon@boost@@@std@@QEAA?A_TAEAU?$pair@V?$point_data@H@polygon@boost@@H@1@0@Z 0000000180030654     minkowski.obj
 0002:0000966c       $unwind$??$_Make_heap_unchecked@PEAU?$pair@V?$point_data@H@polygon@boost@@H@std@@U?$_Ref_fn@Vless_half_edge_count@?$polygon_arbitrary_formation@H@polygon@boost@@@2@@std@@YAXPEAU?$pair@V?$point_data@H@polygon@boost@@H@0@0U?$_Ref_fn@Vless_half_edge_count@?$polygon_arbitrary_formation@H@polygon@boost@@@0@@Z 000000018003066c     minkowski.obj
 0002:00009684       $chain$4$??$_Make_heap_unchecked@PEAU?$pair@V?$point_data@H@polygon@boost@@H@std@@U?$_Ref_fn@Vless_half_edge_count@?$polygon_arbitrary_formation@H@polygon@boost@@@2@@std@@YAXPEAU?$pair@V?$point_data@H@polygon@boost@@H@0@0U?$_Ref_fn@Vless_half_edge_count@?$polygon_arbitrary_formation@H@polygon@boost@@@0@@Z 0000000180030684     minkowski.obj
 0002:000096a8       $chain$5$??$_Make_heap_unchecked@PEAU?$pair@V?$point_data@H@polygon@boost@@H@std@@U?$_Ref_fn@Vless_half_edge_count@?$polygon_arbitrary_formation@H@polygon@boost@@@2@@std@@YAXPEAU?$pair@V?$point_data@H@polygon@boost@@H@0@0U?$_Ref_fn@Vless_half_edge_count@?$polygon_arbitrary_formation@H@polygon@boost@@@0@@Z 00000001800306a8     minkowski.obj
 0002:000096b8       $unwind$??$_Partition_by_median_guess_unchecked@PEAU?$pair@V?$point_data@H@polygon@boost@@H@std@@U?$_Ref_fn@Vless_half_edge_count@?$polygon_arbitrary_formation@H@polygon@boost@@@2@@std@@YA?AU?$pair@PEAU?$pair@V?$point_data@H@polygon@boost@@H@std@@PEAU12@@0@PEAU?$pair@V?$point_data@H@polygon@boost@@H@0@0U?$_Ref_fn@Vless_half_edge_count@?$polygon_arbitrary_formation@H@polygon@boost@@@0@@Z 00000001800306b8     minkowski.obj
 0002:000096d0       $unwind$??$_Med3_unchecked@PEAVvertex_half_edge@?$scanline_base@H@polygon@boost@@U?$less@X@std@@@std@@YAXPEAVvertex_half_edge@?$scanline_base@H@polygon@boost@@00U?$less@X@0@@Z 00000001800306d0     minkowski.obj
 0002:000096e0       $unwind$??$_Sort_unchecked@PEAV?$point_data@H@polygon@boost@@Vless_point_down_slope@?$line_intersection@H@23@@std@@YAXPEAV?$point_data@H@polygon@boost@@0_JVless_point_down_slope@?$line_intersection@H@23@@Z 00000001800306e0     minkowski.obj
 0002:000096fc       $unwind$??$_Med3_unchecked@PEAU?$pair@U?$pair@V?$point_data@H@polygon@boost@@V123@@std@@U?$pair@HH@2@@std@@V?$less_vertex_data@U?$pair@U?$pair@V?$point_data@H@polygon@boost@@V123@@std@@U?$pair@HH@2@@std@@@?$arbitrary_boolean_op@H@polygon@boost@@@std@@YAXPEAU?$pair@U?$pair@V?$point_data@H@polygon@boost@@V123@@std@@U?$pair@HH@2@@0@00V?$less_vertex_data@U?$pair@U?$pair@V?$point_data@H@polygon@boost@@V123@@std@@U?$pair@HH@2@@std@@@?$arbitrary_boolean_op@H@polygon@boost@@@Z 00000001800306fc     minkowski.obj
 0002:00009710       $unwind$??$_Pop_heap_hole_by_index@PEAU?$pair@U?$pair@V?$point_data@H@polygon@boost@@V123@@std@@H@std@@U12@U?$less@X@2@@std@@YAXPEAU?$pair@U?$pair@V?$point_data@H@polygon@boost@@V123@@std@@H@0@_J1$$QEAU10@U?$less@X@0@@Z 0000000180030710     minkowski.obj
 0002:00009728       $unwind$??$_Pop_heap_hole_by_index@PEAU?$pair@U?$pair@U?$pair@V?$point_data@H@polygon@boost@@V123@@std@@H@std@@PEAVactive_tail_arbitrary@?$polygon_arbitrary_formation@H@polygon@boost@@@std@@U12@U?$_Ref_fn@Vless_incoming_count@?$polygon_arbitrary_formation@H@polygon@boost@@@2@@std@@YAXPEAU?$pair@U?$pair@U?$pair@V?$point_data@H@polygon@boost@@V123@@std@@H@std@@PEAVactive_tail_arbitrary@?$polygon_arbitrary_formation@H@polygon@boost@@@0@_J1$$QEAU10@U?$_Ref_fn@Vless_incoming_count@?$polygon_arbitrary_formation@H@polygon@boost@@@0@@Z 0000000180030728     minkowski.obj
 0002:00009740       $chain$0$??$_Pop_heap_hole_by_index@PEAU?$pair@U?$pair@U?$pair@V?$point_data@H@polygon@boost@@V123@@std@@H@std@@PEAVactive_tail_arbitrary@?$polygon_arbitrary_formation@H@polygon@boost@@@std@@U12@U?$_Ref_fn@Vless_incoming_count@?$polygon_arbitrary_formation@H@polygon@boost@@@2@@std@@YAXPEAU?$pair@U?$pair@U?$pair@V?$point_data@H@polygon@boost@@V123@@std@@H@std@@PEAVactive_tail_arbitrary@?$polygon_arbitrary_formation@H@polygon@boost@@@0@_J1$$QEAU10@U?$_Ref_fn@Vless_incoming_count@?$polygon_arbitrary_formation@H@polygon@boost@@@0@@Z 0000000180030740     minkowski.obj
 0002:00009754       $chain$1$??$_Pop_heap_hole_by_index@PEAU?$pair@U?$pair@U?$pair@V?$point_data@H@polygon@boost@@V123@@std@@H@std@@PEAVactive_tail_arbitrary@?$polygon_arbitrary_formation@H@polygon@boost@@@std@@U12@U?$_Ref_fn@Vless_incoming_count@?$polygon_arbitrary_formation@H@polygon@boost@@@2@@std@@YAXPEAU?$pair@U?$pair@U?$pair@V?$point_data@H@polygon@boost@@V123@@std@@H@std@@PEAVactive_tail_arbitrary@?$polygon_arbitrary_formation@H@polygon@boost@@@0@_J1$$QEAU10@U?$_Ref_fn@Vless_incoming_count@?$polygon_arbitrary_formation@H@polygon@boost@@@0@@Z 0000000180030754     minkowski.obj
 0002:00009764       $unwind$??$_Pop_heap_hole_by_index@PEAU?$pair@V?$point_data@H@polygon@boost@@H@std@@U12@U?$_Ref_fn@Vless_half_edge_count@?$polygon_arbitrary_formation@H@polygon@boost@@@2@@std@@YAXPEAU?$pair@V?$point_data@H@polygon@boost@@H@0@_J1$$QEAU10@U?$_Ref_fn@Vless_half_edge_count@?$polygon_arbitrary_formation@H@polygon@boost@@@0@@Z 0000000180030764     minkowski.obj
 0002:00009770       $chain$0$??$_Pop_heap_hole_by_index@PEAU?$pair@V?$point_data@H@polygon@boost@@H@std@@U12@U?$_Ref_fn@Vless_half_edge_count@?$polygon_arbitrary_formation@H@polygon@boost@@@2@@std@@YAXPEAU?$pair@V?$point_data@H@polygon@boost@@H@0@_J1$$QEAU10@U?$_Ref_fn@Vless_half_edge_count@?$polygon_arbitrary_formation@H@polygon@boost@@@0@@Z 0000000180030770     minkowski.obj
 0002:00009784       $chain$4$??$_Pop_heap_hole_by_index@PEAU?$pair@V?$point_data@H@polygon@boost@@H@std@@U12@U?$_Ref_fn@Vless_half_edge_count@?$polygon_arbitrary_formation@H@polygon@boost@@@2@@std@@YAXPEAU?$pair@V?$point_data@H@polygon@boost@@H@0@_J1$$QEAU10@U?$_Ref_fn@Vless_half_edge_count@?$polygon_arbitrary_formation@H@polygon@boost@@@0@@Z 0000000180030784     minkowski.obj
 0002:000097a4       $chain$5$??$_Pop_heap_hole_by_index@PEAU?$pair@V?$point_data@H@polygon@boost@@H@std@@U12@U?$_Ref_fn@Vless_half_edge_count@?$polygon_arbitrary_formation@H@polygon@boost@@@2@@std@@YAXPEAU?$pair@V?$point_data@H@polygon@boost@@H@0@_J1$$QEAU10@U?$_Ref_fn@Vless_half_edge_count@?$polygon_arbitrary_formation@H@polygon@boost@@@0@@Z 00000001800307a4     minkowski.obj
 0002:000097b4       $chain$6$??$_Pop_heap_hole_by_index@PEAU?$pair@V?$point_data@H@polygon@boost@@H@std@@U12@U?$_Ref_fn@Vless_half_edge_count@?$polygon_arbitrary_formation@H@polygon@boost@@@2@@std@@YAXPEAU?$pair@V?$point_data@H@polygon@boost@@H@0@_J1$$QEAU10@U?$_Ref_fn@Vless_half_edge_count@?$polygon_arbitrary_formation@H@polygon@boost@@@0@@Z 00000001800307b4     minkowski.obj
 0002:000097c4       $unwind$??$_Make_heap_unchecked@PEAV?$point_data@H@polygon@boost@@Vless_point_down_slope@?$line_intersection@H@23@@std@@YAXPEAV?$point_data@H@polygon@boost@@0Vless_point_down_slope@?$line_intersection@H@23@@Z 00000001800307c4     minkowski.obj
 0002:000097cc       $chain$2$??$_Make_heap_unchecked@PEAV?$point_data@H@polygon@boost@@Vless_point_down_slope@?$line_intersection@H@23@@std@@YAXPEAV?$point_data@H@polygon@boost@@0Vless_point_down_slope@?$line_intersection@H@23@@Z 00000001800307cc     minkowski.obj
 0002:000097e8       $chain$3$??$_Make_heap_unchecked@PEAV?$point_data@H@polygon@boost@@Vless_point_down_slope@?$line_intersection@H@23@@std@@YAXPEAV?$point_data@H@polygon@boost@@0Vless_point_down_slope@?$line_intersection@H@23@@Z 00000001800307e8     minkowski.obj
 0002:000097f8       $unwind$??$_Partition_by_median_guess_unchecked@PEAV?$point_data@H@polygon@boost@@Vless_point_down_slope@?$line_intersection@H@23@@std@@YA?AU?$pair@PEAV?$point_data@H@polygon@boost@@PEAV123@@0@PEAV?$point_data@H@polygon@boost@@0Vless_point_down_slope@?$line_intersection@H@34@@Z 00000001800307f8     minkowski.obj
 0002:00009808       $chain$0$??$_Partition_by_median_guess_unchecked@PEAV?$point_data@H@polygon@boost@@Vless_point_down_slope@?$line_intersection@H@23@@std@@YA?AU?$pair@PEAV?$point_data@H@polygon@boost@@PEAV123@@0@PEAV?$point_data@H@polygon@boost@@0Vless_point_down_slope@?$line_intersection@H@34@@Z 0000000180030808     minkowski.obj
 0002:0000981c       $chain$2$??$_Partition_by_median_guess_unchecked@PEAV?$point_data@H@polygon@boost@@Vless_point_down_slope@?$line_intersection@H@23@@std@@YA?AU?$pair@PEAV?$point_data@H@polygon@boost@@PEAV123@@0@PEAV?$point_data@H@polygon@boost@@0Vless_point_down_slope@?$line_intersection@H@34@@Z 000000018003081c     minkowski.obj
 0002:00009834       $chain$3$??$_Partition_by_median_guess_unchecked@PEAV?$point_data@H@polygon@boost@@Vless_point_down_slope@?$line_intersection@H@23@@std@@YA?AU?$pair@PEAV?$point_data@H@polygon@boost@@PEAV123@@0@PEAV?$point_data@H@polygon@boost@@0Vless_point_down_slope@?$line_intersection@H@34@@Z 0000000180030834     minkowski.obj
 0002:00009844       $chain$4$??$_Partition_by_median_guess_unchecked@PEAV?$point_data@H@polygon@boost@@Vless_point_down_slope@?$line_intersection@H@23@@std@@YA?AU?$pair@PEAV?$point_data@H@polygon@boost@@PEAV123@@0@PEAV?$point_data@H@polygon@boost@@0Vless_point_down_slope@?$line_intersection@H@34@@Z 0000000180030844     minkowski.obj
 0002:00009854       $unwind$??$_Med3_unchecked@PEAU?$pair@U?$pair@U?$pair@V?$point_data@H@polygon@boost@@V123@@std@@H@std@@PEAVactive_tail_arbitrary@?$polygon_arbitrary_formation@H@polygon@boost@@@std@@U?$_Ref_fn@Vless_incoming_count@?$polygon_arbitrary_formation@H@polygon@boost@@@2@@std@@YAXPEAU?$pair@U?$pair@U?$pair@V?$point_data@H@polygon@boost@@V123@@std@@H@std@@PEAVactive_tail_arbitrary@?$polygon_arbitrary_formation@H@polygon@boost@@@0@00U?$_Ref_fn@Vless_incoming_count@?$polygon_arbitrary_formation@H@polygon@boost@@@0@@Z 0000000180030854     minkowski.obj
 0002:0000986c       $unwind$??$_Push_heap_by_index@PEAU?$pair@V?$point_data@H@polygon@boost@@H@std@@U12@U?$_Ref_fn@Vless_half_edge_count@?$polygon_arbitrary_formation@H@polygon@boost@@@2@@std@@YAXPEAU?$pair@V?$point_data@H@polygon@boost@@H@0@_J1$$QEAU10@U?$_Ref_fn@Vless_half_edge_count@?$polygon_arbitrary_formation@H@polygon@boost@@@0@@Z 000000018003086c     minkowski.obj
 0002:00009878       $chain$4$??$_Push_heap_by_index@PEAU?$pair@V?$point_data@H@polygon@boost@@H@std@@U12@U?$_Ref_fn@Vless_half_edge_count@?$polygon_arbitrary_formation@H@polygon@boost@@@2@@std@@YAXPEAU?$pair@V?$point_data@H@polygon@boost@@H@0@_J1$$QEAU10@U?$_Ref_fn@Vless_half_edge_count@?$polygon_arbitrary_formation@H@polygon@boost@@@0@@Z 0000000180030878     minkowski.obj
 0002:0000989c       $chain$5$??$_Push_heap_by_index@PEAU?$pair@V?$point_data@H@polygon@boost@@H@std@@U12@U?$_Ref_fn@Vless_half_edge_count@?$polygon_arbitrary_formation@H@polygon@boost@@@2@@std@@YAXPEAU?$pair@V?$point_data@H@polygon@boost@@H@0@_J1$$QEAU10@U?$_Ref_fn@Vless_half_edge_count@?$polygon_arbitrary_formation@H@polygon@boost@@@0@@Z 000000018003089c     minkowski.obj
 0002:000098ac       $unwind$??$_Med3_unchecked@PEAU?$pair@V?$point_data@H@polygon@boost@@H@std@@U?$_Ref_fn@Vless_half_edge_count@?$polygon_arbitrary_formation@H@polygon@boost@@@2@@std@@YAXPEAU?$pair@V?$point_data@H@polygon@boost@@H@0@00U?$_Ref_fn@Vless_half_edge_count@?$polygon_arbitrary_formation@H@polygon@boost@@@0@@Z 00000001800308ac     minkowski.obj
 0002:000098ac       $unwind$__acrt_lowio_destroy_handle_array 00000001800308ac     libucrt:osfinfo.obj
 0002:000098bc       $unwind$??$_Insert_range@V?$_List_unchecked_const_iterator@V?$_List_val@U?$_List_simple_types@V?$point_data@H@polygon@boost@@@std@@@std@@U_Iterator_base0@2@@std@@@?$vector@V?$point_data@H@polygon@boost@@V?$allocator@V?$point_data@H@polygon@boost@@@std@@@std@@AEAAXV?$_Vector_const_iterator@V?$_Vector_val@U?$_Simple_types@V?$point_data@H@polygon@boost@@@std@@@std@@@1@V?$_List_unchecked_const_iterator@V?$_List_val@U?$_List_simple_types@V?$point_data@H@polygon@boost@@@std@@@std@@U_Iterator_base0@2@@1@1Uforward_iterator_tag@1@@Z 00000001800308bc     minkowski.obj
 0002:000098d4       $unwind$??$_Sort_unchecked@PEAU?$pair@HH@std@@U?$less@X@2@@std@@YAXPEAU?$pair@HH@0@0_JU?$less@X@0@@Z 00000001800308d4     minkowski.obj
 0002:000098ec       $unwind$??$_Sort_unchecked@PEAV?$point_data@H@polygon@boost@@U?$less@X@std@@@std@@YAXPEAV?$point_data@H@polygon@boost@@0_JU?$less@X@0@@Z 00000001800308ec     minkowski.obj
 0002:000098ec       $unwind$??$create_environment@D@@YAQEAPEADQEAD@Z 00000001800308ec     libucrt:environment_initialization.obj
 0002:00009904       $unwind$??$_Sort_heap_unchecked@PEAU?$pair@HH@std@@U?$less@X@2@@std@@YAXPEAU?$pair@HH@0@0U?$less@X@0@@Z 0000000180030904     minkowski.obj
 0002:0000990c       $chain$3$??$_Sort_heap_unchecked@PEAU?$pair@HH@std@@U?$less@X@2@@std@@YAXPEAU?$pair@HH@0@0U?$less@X@0@@Z 000000018003090c     minkowski.obj
 0002:0000992c       $chain$4$??$_Sort_heap_unchecked@PEAU?$pair@HH@std@@U?$less@X@2@@std@@YAXPEAU?$pair@HH@0@0U?$less@X@0@@Z 000000018003092c     minkowski.obj
 0002:0000993c       $unwind$??$_Partition_by_median_guess_unchecked@PEAU?$pair@HH@std@@U?$less@X@2@@std@@YA?AU?$pair@PEAU?$pair@HH@std@@PEAU12@@0@PEAU?$pair@HH@0@0U?$less@X@0@@Z 000000018003093c     minkowski.obj
 0002:0000994c       $chain$0$??$_Partition_by_median_guess_unchecked@PEAU?$pair@HH@std@@U?$less@X@2@@std@@YA?AU?$pair@PEAU?$pair@HH@std@@PEAU12@@0@PEAU?$pair@HH@0@0U?$less@X@0@@Z 000000018003094c     minkowski.obj
 0002:00009960       $chain$2$??$_Partition_by_median_guess_unchecked@PEAU?$pair@HH@std@@U?$less@X@2@@std@@YA?AU?$pair@PEAU?$pair@HH@std@@PEAU12@@0@PEAU?$pair@HH@0@0U?$less@X@0@@Z 0000000180030960     minkowski.obj
 0002:00009978       $chain$3$??$_Partition_by_median_guess_unchecked@PEAU?$pair@HH@std@@U?$less@X@2@@std@@YA?AU?$pair@PEAU?$pair@HH@std@@PEAU12@@0@PEAU?$pair@HH@0@0U?$less@X@0@@Z 0000000180030978     minkowski.obj
 0002:00009988       $chain$4$??$_Partition_by_median_guess_unchecked@PEAU?$pair@HH@std@@U?$less@X@2@@std@@YA?AU?$pair@PEAU?$pair@HH@std@@PEAU12@@0@PEAU?$pair@HH@0@0U?$less@X@0@@Z 0000000180030988     minkowski.obj
 0002:00009998       $unwind$??$_Make_heap_unchecked@PEAV?$point_data@H@polygon@boost@@U?$less@X@std@@@std@@YAXPEAV?$point_data@H@polygon@boost@@0U?$less@X@0@@Z 0000000180030998     minkowski.obj
 0002:000099a0       $chain$2$??$_Make_heap_unchecked@PEAV?$point_data@H@polygon@boost@@U?$less@X@std@@@std@@YAXPEAV?$point_data@H@polygon@boost@@0U?$less@X@0@@Z 00000001800309a0     minkowski.obj
 0002:000099bc       $chain$3$??$_Make_heap_unchecked@PEAV?$point_data@H@polygon@boost@@U?$less@X@std@@@std@@YAXPEAV?$point_data@H@polygon@boost@@0U?$less@X@0@@Z 00000001800309bc     minkowski.obj
 0002:000099cc       $chain$5$??$_Sort_heap_unchecked@PEAV?$point_data@H@polygon@boost@@U?$less@X@std@@@std@@YAXPEAV?$point_data@H@polygon@boost@@0U?$less@X@0@@Z 00000001800309cc     minkowski.obj
 0002:000099f4       $chain$6$??$_Sort_heap_unchecked@PEAV?$point_data@H@polygon@boost@@U?$less@X@std@@@std@@YAXPEAV?$point_data@H@polygon@boost@@0U?$less@X@0@@Z 00000001800309f4     minkowski.obj
 0002:00009a04       $unwind$??$_Partition_by_median_guess_unchecked@PEAV?$point_data@H@polygon@boost@@U?$less@X@std@@@std@@YA?AU?$pair@PEAV?$point_data@H@polygon@boost@@PEAV123@@0@PEAV?$point_data@H@polygon@boost@@0U?$less@X@0@@Z 0000000180030a04     minkowski.obj
 0002:00009a18       $chain$0$??$_Partition_by_median_guess_unchecked@PEAV?$point_data@H@polygon@boost@@U?$less@X@std@@@std@@YA?AU?$pair@PEAV?$point_data@H@polygon@boost@@PEAV123@@0@PEAV?$point_data@H@polygon@boost@@0U?$less@X@0@@Z 0000000180030a18     minkowski.obj
 0002:00009a2c       $chain$1$??$_Partition_by_median_guess_unchecked@PEAV?$point_data@H@polygon@boost@@U?$less@X@std@@@std@@YA?AU?$pair@PEAV?$point_data@H@polygon@boost@@PEAV123@@0@PEAV?$point_data@H@polygon@boost@@0U?$less@X@0@@Z 0000000180030a2c     minkowski.obj
 0002:00009a40       $chain$2$??$_Partition_by_median_guess_unchecked@PEAV?$point_data@H@polygon@boost@@U?$less@X@std@@@std@@YA?AU?$pair@PEAV?$point_data@H@polygon@boost@@PEAV123@@0@PEAV?$point_data@H@polygon@boost@@0U?$less@X@0@@Z 0000000180030a40     minkowski.obj
 0002:00009a50       $chain$3$??$_Partition_by_median_guess_unchecked@PEAV?$point_data@H@polygon@boost@@U?$less@X@std@@@std@@YA?AU?$pair@PEAV?$point_data@H@polygon@boost@@PEAV123@@0@PEAV?$point_data@H@polygon@boost@@0U?$less@X@0@@Z 0000000180030a50     minkowski.obj
 0002:00009a60       $unwind$?__scrt_throw_std_bad_alloc@@YAXXZ 0000000180030a60     LIBCMT:throw_bad_alloc.obj
 0002:00009a60       $unwind$?__scrt_throw_std_bad_array_new_length@@YAXXZ 0000000180030a60     LIBCMT:throw_bad_alloc.obj
 0002:00009a60       $unwind$?_Xlength_error@std@@YAXPEBD@Z 0000000180030a60     libcpmt:xthrow.obj
 0002:00009a60       $unwind$_raise_exc         0000000180030a60     libucrt:fpexcept.obj
 0002:00009a68       $xdatasym                  0000000180030a68     LIBCMT:amdsecgs.obj
 0002:00009a6c       $unwind$?dllmain_crt_process_attach@@YAHQEAUHINSTANCE__@@QEAX@Z 0000000180030a6c     LIBCMT:dll_dllmain.obj
 0002:00009aa8       $unwind$?fin$0@?0??dllmain_crt_process_attach@@YAHQEAUHINSTANCE__@@QEAX@Z@4HA 0000000180030aa8     LIBCMT:dll_dllmain.obj
 0002:00009aa8       $unwind$?fin$0@?0??dllmain_crt_process_detach@@YAH_N@Z@4HA 0000000180030aa8     LIBCMT:dll_dllmain.obj
 0002:00009aa8       $unwind$?fin$1@?0??dllmain_crt_process_detach@@YAH_N@Z@4HA 0000000180030aa8     LIBCMT:dll_dllmain.obj
 0002:00009aa8       $unwind$_IsNonwritableInCurrentImage$filt$0 0000000180030aa8     LIBCMT:pesect.obj
 0002:00009aa8       $unwind$_query_new_handler$fin$0 0000000180030aa8     libucrt:new_handler.obj
 0002:00009aa8       $unwind$?fin$0@?0???$?RV<lambda_0ae27a3a962d80f24befdcbee591983d>@@AEAV<lambda_8d0ee55de4b1038c4002e0adecdf1839>@@V<lambda_dc504788e8f1664fe9b84e20bfb512f2>@@@?$__crt_seh_guarded_call@X@@QEAAX$$QEAV<lambda_0ae27a3a962d80f24befdcbee591983d>@@AEAV<lambda_8d0ee55de4b1038c4002e0adecdf1839>@@$$QEAV<lambda_dc504788e8f1664fe9b84e20bfb512f2>@@@Z@4HA 0000000180030aa8     libucrt:per_thread_data.obj
 0002:00009aa8       $unwind$?fin$0@?0???$?RV<lambda_2d41944a1d46af3157314b8a01080d33>@@AEAV<lambda_8f455de75cd7d7f24b4096f044d8b9e6>@@V<lambda_aa500f224e6afead328df44964fe2772>@@@?$__crt_seh_guarded_call@X@@QEAAX$$QEAV<lambda_2d41944a1d46af3157314b8a01080d33>@@AEAV<lambda_8f455de75cd7d7f24b4096f044d8b9e6>@@$$QEAV<lambda_aa500f224e6afead328df44964fe2772>@@@Z@4HA 0000000180030aa8     libucrt:per_thread_data.obj
 0002:00009aa8       $unwind$?fin$0@?0???$?RV<lambda_aa87e3671a710a21b5dc78c0bdf72e11>@@AEAV<lambda_92619d2358a28f41a33ba319515a20b9>@@V<lambda_6992ecaafeb10aed2b74cb1fae11a551>@@@?$__crt_seh_guarded_call@X@@QEAAX$$QEAV<lambda_aa87e3671a710a21b5dc78c0bdf72e11>@@AEAV<lambda_92619d2358a28f41a33ba319515a20b9>@@$$QEAV<lambda_6992ecaafeb10aed2b74cb1fae11a551>@@@Z@4HA 0000000180030aa8     libucrt:per_thread_data.obj
 0002:00009aa8       $unwind$?fin$0@?0???$?RV<lambda_f2e299630e499de9f9a165e60fcd3db5>@@AEAV<lambda_2ae9d31cdba2644fcbeaf08da7c24588>@@V<lambda_40d01ff24d0e7b3814fdbdcee8eab3c7>@@@?$__crt_seh_guarded_call@X@@QEAAX$$QEAV<lambda_f2e299630e499de9f9a165e60fcd3db5>@@AEAV<lambda_2ae9d31cdba2644fcbeaf08da7c24588>@@$$QEAV<lambda_40d01ff24d0e7b3814fdbdcee8eab3c7>@@@Z@4HA 0000000180030aa8     libucrt:per_thread_data.obj
 0002:00009aa8       $unwind$__acrt_update_thread_locale_data$fin$0 0000000180030aa8     libucrt:locale_refcounting.obj
 0002:00009aa8       $unwind$?fin$0@?0???$?RV<lambda_410d79af7f07d98d83a3f525b3859a53>@@AEAV<lambda_3e16ef9562a7dcce91392c22ab16ea36>@@V<lambda_38119f0e861e05405d8a144b9b982f0a>@@@?$__crt_seh_guarded_call@X@@QEAAX$$QEAV<lambda_410d79af7f07d98d83a3f525b3859a53>@@AEAV<lambda_3e16ef9562a7dcce91392c22ab16ea36>@@$$QEAV<lambda_38119f0e861e05405d8a144b9b982f0a>@@@Z@4HA 0000000180030aa8     libucrt:wsetlocale.obj
 0002:00009aa8       $unwind$?fin$0@?0???$?RV<lambda_751a882b2c74d4b022dec766aa51a29a>@@AEAV<lambda_628dfdc04ba53c8bfc02c9951375f3f5>@@V<lambda_f6c7be5f7998530c34de24c7437d6b54>@@@?$__crt_seh_guarded_call@H@@QEAAH$$QEAV<lambda_751a882b2c74d4b022dec766aa51a29a>@@AEAV<lambda_628dfdc04ba53c8bfc02c9951375f3f5>@@$$QEAV<lambda_f6c7be5f7998530c34de24c7437d6b54>@@@Z@4HA 0000000180030aa8     libucrt:close.obj
 0002:00009aa8       $unwind$?fin$0@?0???$?RV<lambda_a37b2b86f63e897a80ea819b0eb08c01>@@AEAV<lambda_38ce7e780aa69e748d6df282ebc68efe>@@V<lambda_99fb1378e971ab6e7edea83e3a7a83a2>@@@?$__crt_seh_guarded_call@H@@QEAAH$$QEAV<lambda_a37b2b86f63e897a80ea819b0eb08c01>@@AEAV<lambda_38ce7e780aa69e748d6df282ebc68efe>@@$$QEAV<lambda_99fb1378e971ab6e7edea83e3a7a83a2>@@@Z@4HA 0000000180030aa8     libucrt:commit.obj
 0002:00009aa8       $unwind$__acrt_initialize_lowio$fin$0 0000000180030aa8     libucrt:ioinit.obj
 0002:00009aa8       $unwind$__acrt_lowio_ensure_fh_exists$fin$0 0000000180030aa8     libucrt:osfinfo.obj
 0002:00009aa8       $unwind$_write$fin$0       0000000180030aa8     libucrt:write.obj
 0002:00009aa8       $unwind$?fin$0@?0???$?RV<lambda_efdfa57d1f175319df784efa44bb7b81>@@AEAV<lambda_5f0a4c1567f8adc6734073e5d1e1b35c>@@V<lambda_2e8a7d3640ea6ccb4c2413664c2db6fd>@@@?$__crt_seh_guarded_call@X@@QEAAX$$QEAV<lambda_efdfa57d1f175319df784efa44bb7b81>@@AEAV<lambda_5f0a4c1567f8adc6734073e5d1e1b35c>@@$$QEAV<lambda_2e8a7d3640ea6ccb4c2413664c2db6fd>@@@Z@4HA 0000000180030aa8     libucrt:mbctype.obj
 0002:00009aa8       $unwind$?fin$0@?0??update_thread_multibyte_data_internal@@YAPEAU__crt_multibyte_data@@QEAU__acrt_ptd@@QEAPEAU1@@Z@4HA 0000000180030aa8     libucrt:mbctype.obj
 0002:00009aa8       $unwind$?fin$0@?0???$?RV<lambda_450d765d439847d4c735a33c368b5fc0>@@AEAV<lambda_44731a7d0e6d81c3e6aa82d741081786>@@V<lambda_601a2a7da3b7a96e9554ac7215c4b07c>@@@?$__crt_seh_guarded_call@P6AXH@Z@@QEAAP6AXH@Z$$QEAV<lambda_450d765d439847d4c735a33c368b5fc0>@@AEAV<lambda_44731a7d0e6d81c3e6aa82d741081786>@@$$QEAV<lambda_601a2a7da3b7a96e9554ac7215c4b07c>@@@Z@4HA 0000000180030aa8     libucrt:signal.obj
 0002:00009aa8       $unwind$raise$fin$0        0000000180030aa8     libucrt:signal.obj
 0002:00009aa8       $unwind$?filt$0@?0???R<lambda_6e4b09c48022b2350581041d5f6b0c4c>@@QEBA@XZ@4HA 0000000180030aa8     libucrt:exit.obj
 0002:00009aa8       $unwind$?fin$0@?0???$?RV<lambda_d80eeec6fff315bfe5c115232f3240e3>@@AEAV<lambda_6e4b09c48022b2350581041d5f6b0c4c>@@V<lambda_2358e3775559c9db80273638284d5e45>@@@?$__crt_seh_guarded_call@X@@QEAAX$$QEAV<lambda_d80eeec6fff315bfe5c115232f3240e3>@@AEAV<lambda_6e4b09c48022b2350581041d5f6b0c4c>@@$$QEAV<lambda_2358e3775559c9db80273638284d5e45>@@@Z@4HA 0000000180030aa8     libucrt:exit.obj
 0002:00009aa8       $unwind$?fin$0@?0???$?RV<lambda_7777bce6b2f8c936911f934f8298dc43>@@AEAV<lambda_f03950bc5685219e0bcd2087efbe011e>@@V<lambda_3883c3dff614d5e0c5f61bb1ac94921c>@@@?$__crt_seh_guarded_call@H@@QEAAH$$QEAV<lambda_7777bce6b2f8c936911f934f8298dc43>@@AEAV<lambda_f03950bc5685219e0bcd2087efbe011e>@@$$QEAV<lambda_3883c3dff614d5e0c5f61bb1ac94921c>@@@Z@4HA 0000000180030aa8     libucrt:onexit.obj
 0002:00009aa8       $unwind$_fcloseall$fin$0   0000000180030aa8     libucrt:closeall.obj
 0002:00009aa8       $unwind$fclose$fin$0       0000000180030aa8     libucrt:fclose.obj
 0002:00009aa8       $unwind$?fin$0@?0???$?RV<lambda_842d9ff0dc9ef11c61343bbaebe7f885>@@AEAV<lambda_c5860995281e5c4ce005b3de8f5874ee>@@V<lambda_d90129c13df834fdcbf8d2b88dafcf2d>@@@?$__crt_seh_guarded_call@X@@QEAAX$$QEAV<lambda_842d9ff0dc9ef11c61343bbaebe7f885>@@AEAV<lambda_c5860995281e5c4ce005b3de8f5874ee>@@$$QEAV<lambda_d90129c13df834fdcbf8d2b88dafcf2d>@@@Z@4HA 0000000180030aa8     libucrt:fflush.obj
 0002:00009aa8       $unwind$?fin$0@?0???$?RV<lambda_886d6c58226a84441f68b9f2b8217b83>@@AEAV<lambda_ab61a845afdef5b7c387490eaf3616ee>@@V<lambda_f7f22ab5edc0698d5f6905b0d3f44752>@@@?$__crt_seh_guarded_call@X@@QEAAX$$QEAV<lambda_886d6c58226a84441f68b9f2b8217b83>@@AEAV<lambda_ab61a845afdef5b7c387490eaf3616ee>@@$$QEAV<lambda_f7f22ab5edc0698d5f6905b0d3f44752>@@@Z@4HA 0000000180030aa8     libucrt:fflush.obj
 0002:00009aa8       $unwind$_ctrlfp$filt$0     0000000180030aa8     libucrt:fpctrl.obj
 0002:00009ab0       $unwind$?dllmain_crt_process_detach@@YAH_N@Z 0000000180030ab0     LIBCMT:dll_dllmain.obj
 0002:00009b04       $unwind$?dllmain_dispatch@@YAHQEAUHINSTANCE__@@KQEAX@Z 0000000180030b04     LIBCMT:dll_dllmain.obj
 0002:00009b2c       $unwind$?filt$0@?0??dllmain_dispatch@@YAHQEAUHINSTANCE__@@KQEAX@Z@4HA 0000000180030b2c     LIBCMT:dll_dllmain.obj
 0002:00009b34       $unwind$__report_securityfailure 0000000180030b34     LIBCMT:gs_report.obj
 0002:00009b3c       $unwind$__report_gsfailure 0000000180030b3c     LIBCMT:gs_report.obj
 0002:00009b44       $unwind$capture_current_context 0000000180030b44     LIBCMT:gs_report.obj
 0002:00009b50       $unwind$capture_previous_context 0000000180030b50     LIBCMT:gs_report.obj
 0002:00009b5c       $unwind$__security_init_cookie 0000000180030b5c     LIBCMT:gs_support.obj
 0002:00009b68       $unwind$__scrt_is_nonwritable_in_current_image 0000000180030b68     LIBCMT:utility.obj
 0002:00009b88       $unwind$__scrt_is_nonwritable_in_current_image$filt$0 0000000180030b88     LIBCMT:utility.obj
 0002:00009b90       $unwind$__scrt_fastfail    0000000180030b90     LIBCMT:utility_desktop.obj
 0002:00009ba0       $unwind$__isa_available_init 0000000180030ba0     LIBCMT:cpu_disp.obj
 0002:00009bb0       $xdatasym                  0000000180030bb0     LIBCMT:guard_dispatch.obj
 0002:00009bb8       $xdatasym                  0000000180030bb8     LIBCMT:guard_xfg_dispatch.obj
 0002:00009bbc       $unwind$_CxxThrowException 0000000180030bbc     libvcruntime:throw.obj
 0002:00009bcc       $unwind$__C_specific_handler 0000000180030bcc     libvcruntime:riscchandler.obj
 0002:00009be8       $unwind$__DestructExceptionObject 0000000180030be8     libvcruntime:ehhelpers.obj
 0002:00009c08       $unwind$__DestructExceptionObject$filt$0 0000000180030c08     libvcruntime:ehhelpers.obj
 0002:00009c18       $xdatasym                  0000000180030c18     libvcruntime:memset.obj
 0002:00009c28       $xdatasym                  0000000180030c28     libvcruntime:notify.obj
 0002:00009c38       $xdatasym                  0000000180030c38     libvcruntime:memcpy.obj
 0002:00009c48       $xdatasym                  0000000180030c48     libvcruntime:handlers.obj
 0002:00009c68       $unwind$__acrt_call_reportfault 0000000180030c68     libucrt:invalid_parameter.obj
 0002:00009c88       $unwind$_invalid_parameter 0000000180030c88     libucrt:invalid_parameter.obj
 0002:00009c9c       $unwind$_query_new_handler 0000000180030c9c     libucrt:new_handler.obj
 0002:00009cbc       $unwind$?common_exit@@YAXHW4_crt_exit_cleanup_mode@@W4_crt_exit_return_mode@@@Z 0000000180030cbc     libucrt:exit.obj
 0002:00009cc8       $unwind$??R<lambda_6e4b09c48022b2350581041d5f6b0c4c>@@QEBA@XZ 0000000180030cc8     libucrt:exit.obj
 0002:00009ce8       $unwind$??$?RV<lambda_d80eeec6fff315bfe5c115232f3240e3>@@AEAV<lambda_6e4b09c48022b2350581041d5f6b0c4c>@@V<lambda_2358e3775559c9db80273638284d5e45>@@@?$__crt_seh_guarded_call@X@@QEAAX$$QEAV<lambda_d80eeec6fff315bfe5c115232f3240e3>@@AEAV<lambda_6e4b09c48022b2350581041d5f6b0c4c>@@$$QEAV<lambda_2358e3775559c9db80273638284d5e45>@@@Z 0000000180030ce8     libucrt:exit.obj
 0002:00009d0c       $unwind$_configure_narrow_argv 0000000180030d0c     libucrt:argv_parsing.obj
 0002:00009d20       $unwind$??$parse_command_line@D@@YAXPEADPEAPEAD0PEA_K2@Z 0000000180030d20     libucrt:argv_parsing.obj
 0002:00009d3c       $unwind$??$free_environment@D@@YAXQEAPEAD@Z 0000000180030d3c     libucrt:environment_initialization.obj
 0002:00009d3c       $unwind$??$free_environment@_W@@YAXQEAPEA_W@Z 0000000180030d3c     libucrt:environment_initialization.obj
 0002:00009d48       $unwind$_execute_onexit_table 0000000180030d48     libucrt:onexit.obj
 0002:00009d50       $unwind$??$?RV<lambda_7777bce6b2f8c936911f934f8298dc43>@@AEAV<lambda_f03950bc5685219e0bcd2087efbe011e>@@V<lambda_3883c3dff614d5e0c5f61bb1ac94921c>@@@?$__crt_seh_guarded_call@H@@QEAAH$$QEAV<lambda_7777bce6b2f8c936911f934f8298dc43>@@AEAV<lambda_f03950bc5685219e0bcd2087efbe011e>@@$$QEAV<lambda_3883c3dff614d5e0c5f61bb1ac94921c>@@@Z 0000000180030d50     libucrt:onexit.obj
 0002:00009d74       $unwind$terminate          0000000180030d74     libucrt:terminate.obj
 0002:00009d98       $xdatasym                  0000000180030d98     libucrt:strncmp.obj
 0002:00009d9c       $unwind$_free_base         0000000180030d9c     libucrt:free_base.obj
 0002:00009d9c       $unwind$?destroy_fls@@YAXPEAX@Z 0000000180030d9c     libucrt:per_thread_data.obj
 0002:00009d9c       $unwind$__acrt_locale_free_numeric 0000000180030d9c     libucrt:initnum.obj
 0002:00009d9c       $unwind$__acrt_locale_free_lc_time_if_unreferenced 0000000180030d9c     libucrt:locale_refcounting.obj
 0002:00009da4       $unwind$?construct_ptd_array@@YAXQEAU__acrt_ptd@@@Z 0000000180030da4     libucrt:per_thread_data.obj
 0002:00009dac       $unwind$?destroy_ptd_array@@YAXQEAU__acrt_ptd@@@Z 0000000180030dac     libucrt:per_thread_data.obj
 0002:00009db4       $unwind$??$?RV<lambda_0ae27a3a962d80f24befdcbee591983d>@@AEAV<lambda_8d0ee55de4b1038c4002e0adecdf1839>@@V<lambda_dc504788e8f1664fe9b84e20bfb512f2>@@@?$__crt_seh_guarded_call@X@@QEAAX$$QEAV<lambda_0ae27a3a962d80f24befdcbee591983d>@@AEAV<lambda_8d0ee55de4b1038c4002e0adecdf1839>@@$$QEAV<lambda_dc504788e8f1664fe9b84e20bfb512f2>@@@Z 0000000180030db4     libucrt:per_thread_data.obj
 0002:00009dd8       $unwind$??$?RV<lambda_aa87e3671a710a21b5dc78c0bdf72e11>@@AEAV<lambda_92619d2358a28f41a33ba319515a20b9>@@V<lambda_6992ecaafeb10aed2b74cb1fae11a551>@@@?$__crt_seh_guarded_call@X@@QEAAX$$QEAV<lambda_aa87e3671a710a21b5dc78c0bdf72e11>@@AEAV<lambda_92619d2358a28f41a33ba319515a20b9>@@$$QEAV<lambda_6992ecaafeb10aed2b74cb1fae11a551>@@@Z 0000000180030dd8     libucrt:per_thread_data.obj
 0002:00009dfc       $unwind$??$?RV<lambda_f2e299630e499de9f9a165e60fcd3db5>@@AEAV<lambda_2ae9d31cdba2644fcbeaf08da7c24588>@@V<lambda_40d01ff24d0e7b3814fdbdcee8eab3c7>@@@?$__crt_seh_guarded_call@X@@QEAAX$$QEAV<lambda_f2e299630e499de9f9a165e60fcd3db5>@@AEAV<lambda_2ae9d31cdba2644fcbeaf08da7c24588>@@$$QEAV<lambda_40d01ff24d0e7b3814fdbdcee8eab3c7>@@@Z 0000000180030dfc     libucrt:per_thread_data.obj
 0002:00009e20       $unwind$??$?RV<lambda_2d41944a1d46af3157314b8a01080d33>@@AEAV<lambda_8f455de75cd7d7f24b4096f044d8b9e6>@@V<lambda_aa500f224e6afead328df44964fe2772>@@@?$__crt_seh_guarded_call@X@@QEAAX$$QEAV<lambda_2d41944a1d46af3157314b8a01080d33>@@AEAV<lambda_8f455de75cd7d7f24b4096f044d8b9e6>@@$$QEAV<lambda_aa500f224e6afead328df44964fe2772>@@@Z 0000000180030e20     libucrt:per_thread_data.obj
 0002:00009e44       $unwind$__acrt_uninitialize_locale 0000000180030e44     libucrt:wsetlocale.obj
 0002:00009e44       $unwind$__acrt_get_sigabrt_handler 0000000180030e44     libucrt:signal.obj
 0002:00009e4c       $unwind$??$?RV<lambda_410d79af7f07d98d83a3f525b3859a53>@@AEAV<lambda_3e16ef9562a7dcce91392c22ab16ea36>@@V<lambda_38119f0e861e05405d8a144b9b982f0a>@@@?$__crt_seh_guarded_call@X@@QEAAX$$QEAV<lambda_410d79af7f07d98d83a3f525b3859a53>@@AEAV<lambda_3e16ef9562a7dcce91392c22ab16ea36>@@$$QEAV<lambda_38119f0e861e05405d8a144b9b982f0a>@@@Z 0000000180030e4c     libucrt:wsetlocale.obj
 0002:00009e74       $unwind$??$__acrt_mbs_to_wcs_cp@U__crt_win32_buffer_internal_dynamic_resizing@@@@YAHQEBDAEAV?$__crt_win32_buffer@_WU__crt_win32_buffer_internal_dynamic_resizing@@@@I@Z 0000000180030e74     libucrt:argv_wildcards.obj
 0002:00009e8c       $unwind$__dcrt_get_narrow_environment_from_os 0000000180030e8c     libucrt:get_environment_from_os.obj
 0002:00009e8c       $unwind$??$__acrt_wcs_to_mbs_cp@U__crt_win32_buffer_internal_dynamic_resizing@@@@YAHQEB_WAEAV?$__crt_win32_buffer@DU__crt_win32_buffer_internal_dynamic_resizing@@@@I@Z 0000000180030e8c     libucrt:argv_wildcards.obj
 0002:00009ea4       $unwind$??$common_expand_argv_wildcards@D@@YAHQEAPEADQEAPEAPEAD@Z 0000000180030ea4     libucrt:argv_wildcards.obj
 0002:00009ebc       $unwind$??$copy_and_add_argument_to_buffer@D@@YAHQEBD0_KAEAV?$argument_list@D@?A0x5f5c8891@@@Z 0000000180030ebc     libucrt:argv_wildcards.obj
 0002:00009ed8       $unwind$??$expand_argument_wildcards@D@@YAHQEAD0AEAV?$argument_list@D@?A0x5f5c8891@@@Z 0000000180030ed8     libucrt:argv_wildcards.obj
 0002:00009efc       $unwind$__acrt_GetModuleFileNameA 0000000180030efc     libucrt:getmodulefilenamea.obj
 0002:00009f18       $unwind$__dcrt_write_console 0000000180030f18     libucrt:initcon.obj
 0002:00009f18       $unwind$??$__acrt_wcs_to_mbs_cp@U__crt_win32_buffer_no_resizing@@@@YAHQEB_WAEAV?$__crt_win32_buffer@DU__crt_win32_buffer_no_resizing@@@@I@Z 0000000180030f18     libucrt:getmodulefilenamea.obj
 0002:00009f2c       $unwind$_setmbcp_nolock    0000000180030f2c     libucrt:mbctype.obj
 0002:00009f4c       $unwind$__dcrt_lowio_ensure_console_output_initialized 0000000180030f4c     libucrt:initcon.obj
 0002:00009f4c       $unwind$_isleadbyte_l      0000000180030f4c     libucrt:_wctype.obj
 0002:00009f4c       $unwind$?getSystemCP@@YAHH@Z 0000000180030f4c     libucrt:mbctype.obj
 0002:00009f54       $unwind$?update_thread_multibyte_data_internal@@YAPEAU__crt_multibyte_data@@QEAU__acrt_ptd@@QEAPEAU1@@Z 0000000180030f54     libucrt:mbctype.obj
 0002:00009f7c       $unwind$?setmbcp_internal@@YAHH_NQEAU__acrt_ptd@@QEAPEAU__crt_multibyte_data@@@Z 0000000180030f7c     libucrt:mbctype.obj
 0002:00009f8c       $unwind$?setSBUpLow@@YAXPEAU__crt_multibyte_data@@@Z 0000000180030f8c     libucrt:mbctype.obj
 0002:00009fa8       $unwind$??$?RV<lambda_efdfa57d1f175319df784efa44bb7b81>@@AEAV<lambda_5f0a4c1567f8adc6734073e5d1e1b35c>@@V<lambda_2e8a7d3640ea6ccb4c2413664c2db6fd>@@@?$__crt_seh_guarded_call@X@@QEAAX$$QEAV<lambda_efdfa57d1f175319df784efa44bb7b81>@@AEAV<lambda_5f0a4c1567f8adc6734073e5d1e1b35c>@@$$QEAV<lambda_2e8a7d3640ea6ccb4c2413664c2db6fd>@@@Z 0000000180030fa8     libucrt:mbctype.obj
 0002:00009fcc       $unwind$?x_ismbbtype_l@@YAHPEAU__crt_locale_pointers@@IHH@Z 0000000180030fcc     libucrt:ismbbyte.obj
 0002:00009fdc       $unwind$__acrt_WideCharToMultiByte 0000000180030fdc     libucrt:widechartomultibyte.obj
 0002:00009fe8       $unwind$__acrt_initialize_winapi_thunks 0000000180030fe8     libucrt:winapi_thunks.obj
 0002:00009ff0       $unwind$_mbtowc_l          0000000180030ff0     libucrt:mbtowc.obj
 0002:00009ff0       $unwind$__acrt_LCMapStringEx 0000000180030ff0     libucrt:winapi_thunks.obj
 0002:0000a004       $unwind$__acrt_initialize_lowio 0000000180031004     libucrt:ioinit.obj
 0002:0000a024       $unwind$?initialize_inherited_file_handles_nolock@@YAXXZ 0000000180031024     libucrt:ioinit.obj
 0002:0000a040       $unwind$?initialize_stdio_handles_nolock@@YAXXZ 0000000180031040     libucrt:ioinit.obj
 0002:0000a040       $unwind$__acrt_initialize_stdio 0000000180031040     libucrt:_file.obj
 0002:0000a058       $unwind$raise              0000000180031058     libucrt:signal.obj
 0002:0000a094       $unwind$??$?RV<lambda_450d765d439847d4c735a33c368b5fc0>@@AEAV<lambda_44731a7d0e6d81c3e6aa82d741081786>@@V<lambda_601a2a7da3b7a96e9554ac7215c4b07c>@@@?$__crt_seh_guarded_call@P6AXH@Z@@QEAAP6AXH@Z$$QEAV<lambda_450d765d439847d4c735a33c368b5fc0>@@AEAV<lambda_44731a7d0e6d81c3e6aa82d741081786>@@$$QEAV<lambda_601a2a7da3b7a96e9554ac7215c4b07c>@@@Z 0000000180031094     libucrt:signal.obj
 0002:0000a0b8       $unwind$?common_flush_all@@YAH_N@Z 00000001800310b8     libucrt:fflush.obj
 0002:0000a0c0       $unwind$??$?RV<lambda_842d9ff0dc9ef11c61343bbaebe7f885>@@AEAV<lambda_c5860995281e5c4ce005b3de8f5874ee>@@V<lambda_d90129c13df834fdcbf8d2b88dafcf2d>@@@?$__crt_seh_guarded_call@X@@QEAAX$$QEAV<lambda_842d9ff0dc9ef11c61343bbaebe7f885>@@AEAV<lambda_c5860995281e5c4ce005b3de8f5874ee>@@$$QEAV<lambda_d90129c13df834fdcbf8d2b88dafcf2d>@@@Z 00000001800310c0     libucrt:fflush.obj
 0002:0000a0e4       $unwind$??$?RV<lambda_886d6c58226a84441f68b9f2b8217b83>@@AEAV<lambda_ab61a845afdef5b7c387490eaf3616ee>@@V<lambda_f7f22ab5edc0698d5f6905b0d3f44752>@@@?$__crt_seh_guarded_call@X@@QEAAX$$QEAV<lambda_886d6c58226a84441f68b9f2b8217b83>@@AEAV<lambda_ab61a845afdef5b7c387490eaf3616ee>@@$$QEAV<lambda_f7f22ab5edc0698d5f6905b0d3f44752>@@@Z 00000001800310e4     libucrt:fflush.obj
 0002:0000a10c       $unwind$__acrt_update_thread_locale_data 000000018003110c     libucrt:locale_refcounting.obj
 0002:0000a130       $unwind$__acrt_locale_free_monetary 0000000180031130     libucrt:initmon.obj
 0002:0000a138       $unwind$__acrt_locale_free_time 0000000180031138     libucrt:inittime.obj
 0002:0000a148       $unwind$__acrt_GetStringTypeA 0000000180031148     libucrt:getstringtypea.obj
 0002:0000a170       $unwind$qsort              0000000180031170     libucrt:qsort.obj
 0002:0000a188       $chain$4$qsort             0000000180031188     libucrt:qsort.obj
 0002:0000a1ac       $chain$5$qsort             00000001800311ac     libucrt:qsort.obj
 0002:0000a1bc       $unwind$strpbrk            00000001800311bc     libucrt:strpbrk.obj
 0002:0000a1cc       $unwind$fallbackMethod     00000001800311cc     libucrt:strpbrk.obj
 0002:0000a1dc       $unwind$_mbsdec_l          00000001800311dc     libucrt:mbsdec.obj
 0002:0000a1e8       $unwind$__acrt_LCMapStringA 00000001800311e8     libucrt:lcmapstringa.obj
 0002:0000a1f8       $unwind$?__acrt_LCMapStringA_stat@@YAHPEAU__crt_locale_pointers@@PEB_WKPEBDHPEADHHH@Z 00000001800311f8     libucrt:lcmapstringa.obj
 0002:0000a220       $unwind$__acrt_lowio_ensure_fh_exists 0000000180031220     libucrt:osfinfo.obj
 0002:0000a24c       $unwind$_close             000000018003124c     libucrt:close.obj
 0002:0000a24c       $unwind$_commit            000000018003124c     libucrt:commit.obj
 0002:0000a254       $unwind$??$?RV<lambda_a37b2b86f63e897a80ea819b0eb08c01>@@AEAV<lambda_38ce7e780aa69e748d6df282ebc68efe>@@V<lambda_99fb1378e971ab6e7edea83e3a7a83a2>@@@?$__crt_seh_guarded_call@H@@QEAAH$$QEAV<lambda_a37b2b86f63e897a80ea819b0eb08c01>@@AEAV<lambda_38ce7e780aa69e748d6df282ebc68efe>@@$$QEAV<lambda_99fb1378e971ab6e7edea83e3a7a83a2>@@@Z 0000000180031254     libucrt:commit.obj
 0002:0000a278       $unwind$_write             0000000180031278     libucrt:write.obj
 0002:0000a2a8       $unwind$_write_nolock      00000001800312a8     libucrt:write.obj
 0002:0000a2c0       $unwind$?write_double_translated_ansi_nolock@@YA?AUwrite_result@?A0x17268360@@HQEBDI@Z 00000001800312c0     libucrt:write.obj
 0002:0000a2e4       $unwind$?write_text_ansi_nolock@@YA?AUwrite_result@?A0x17268360@@HQEBDI@Z 00000001800312e4     libucrt:write.obj
 0002:0000a2e4       $unwind$?write_text_utf16le_nolock@@YA?AUwrite_result@?A0x17268360@@HQEBDI@Z 00000001800312e4     libucrt:write.obj
 0002:0000a304       $unwind$?write_text_utf8_nolock@@YA?AUwrite_result@?A0x17268360@@HQEBDI@Z 0000000180031304     libucrt:write.obj
 0002:0000a328       $unwind$_fcloseall         0000000180031328     libucrt:closeall.obj
 0002:0000a34c       $unwind$?__mbsrtowcs_utf8@__crt_mbstring@@YA_KPEA_WPEAPEBD_KPEAU_Mbstatet@@@Z 000000018003134c     libucrt:mbrtowc.obj
 0002:0000a364       $unwind$_putwch_nolock     0000000180031364     libucrt:putwch.obj
 0002:0000a36c       $unwind$fclose             000000018003136c     libucrt:fclose.obj
 0002:0000a390       $unwind$?__mbrtoc32_utf8@__crt_mbstring@@YA_KPEA_UPEBD_KPEAU_Mbstatet@@@Z 0000000180031390     libucrt:mbrtoc32.obj
 0002:0000a3b0       $xdatasym                  00000001800313b0     libucrt:log10.obj
 0002:0000a3bc       $unwind$??$?RV<lambda_751a882b2c74d4b022dec766aa51a29a>@@AEAV<lambda_628dfdc04ba53c8bfc02c9951375f3f5>@@V<lambda_f6c7be5f7998530c34de24c7437d6b54>@@@?$__crt_seh_guarded_call@H@@QEAAH$$QEAV<lambda_751a882b2c74d4b022dec766aa51a29a>@@AEAV<lambda_628dfdc04ba53c8bfc02c9951375f3f5>@@$$QEAV<lambda_f6c7be5f7998530c34de24c7437d6b54>@@@Z 00000001800313bc     libucrt:close.obj
 0002:0000a3e0       $unwind$_call_matherr      00000001800313e0     libucrt:libm_error.obj
 0002:0000a3e8       $unwind$_handle_error      00000001800313e8     libucrt:libm_error.obj
 0002:0000a408       $unwind$__acrt_initialize_fma3 0000000180031408     libucrt:fma3_available.obj
 0002:0000a410       $unwind$_log_special_common 0000000180031410     libucrt:log_special.obj
 0002:0000a420       $xdatasym                  0000000180031420     libucrt:fpsr.obj
 0002:0000a428       $unwind$_raise_exc_ex      0000000180031428     libucrt:fpexcept.obj
 0002:0000a43c       $unwind$_ctrlfp            000000018003143c     libucrt:fpctrl.obj
 0002:0000a464       $unwind$_IsNonwritableInCurrentImage 0000000180031464     LIBCMT:pesect.obj
 0002:0000a488       $unwind$__GSHandlerCheckCommon 0000000180031488     LIBCMT:gshandler.obj
 0002:0000a490       $xdatasym                  0000000180031490     LIBCMT:chkstk.obj
 0002:0000a498       $xdatasym                  0000000180031498     libvcruntime:memcmp.obj
 0002:0000a620       .edata                     0000000180031620     addon.exp
 0002:0000a648       rgpv                       0000000180031648     addon.exp
 0002:0000a64c       rgszName                   000000018003164c     addon.exp
 0002:0000a650       rgwOrd                     0000000180031650     addon.exp
 0002:0000a652       szName                     0000000180031652     addon.exp
 0002:0000a65d       $N00001                    000000018003165d     addon.exp
 0002:0000a9c8       .idata$6                   00000001800319c8     kernel32:KERNEL32.dll
 0002:0000b1b2       .idata$6                   00000001800321b2     iojs:node.dll
 0003:00000030       ?__vcrt_flsindex@@3KA      0000000180033030     libvcruntime:per_thread_data.obj
 0003:00000050       ?__acrt_flsindex@@3KA      0000000180033050     libucrt:per_thread_data.obj
 0003:00000054       ?errno_no_memory@@3HA      0000000180033054     libucrt:errno.obj
 0003:00000058       ?doserrno_no_memory@@3KA   0000000180033058     libucrt:errno.obj
 0003:00000400       _mbctypes                  0000000180033400     libucrt:mbctype.obj
 0003:00000510       _mbcasemaps                0000000180033510     libucrt:mbctype.obj
 0003:00000610       ?__rgctypeflag@@3PADA      0000000180033610     libucrt:mbctype.obj
 0003:00000620       ?__rgcode_page_info@@3PAUcode_page_info@@A 0000000180033620     libucrt:mbctype.obj
 0003:000009c0       ?__dcrt_lowio_console_output_handle@@3PEAXEA 00000001800339c0     libucrt:initcon.obj
 0003:000009d0       ?dazSupported@?1??_ctrlfp@@9@9 00000001800339d0     libucrt:fpctrl.obj
 0003:000009e0       _module                    00000001800339e0     addon.obj
 0003:00000b18       ?__proc_attached@@3HA      0000000180033b18     LIBCMT:dll_dllmain.obj
 0003:00000b20       GS_ExceptionRecord         0000000180033b20     LIBCMT:gs_report.obj
 0003:00000bc0       GS_ContextRecord           0000000180033bc0     LIBCMT:gs_report.obj
 0003:000010c0       ?is_initialized_as_dll@@3_NA 00000001800340c0     LIBCMT:utility.obj
 0003:000010c1       ?module_local_atexit_table_initialized@@3_NA 00000001800340c1     LIBCMT:utility.obj
 0003:000010c8       ?module_local_atexit_table@@3U_onexit_table_t@@A 00000001800340c8     LIBCMT:utility.obj
 0003:000010e0       ?module_local_at_quick_exit_table@@3U_onexit_table_t@@A 00000001800340e0     LIBCMT:utility.obj
 0003:00001158       ?heap@@3V_HeapManager@@A   0000000180034158     libvcruntime:undname.obj
 0003:00001180       ?__vcrt_startup_thread_ptd@@3U__vcrt_ptd@@A 0000000180034180     libvcruntime:per_thread_data.obj
 0003:00001200       __vcrt_lock_table          0000000180034200     libvcruntime:locks.obj
 0003:00001228       __vcrt_locks_initialized   0000000180034228     libvcruntime:locks.obj
 0003:00001230       ?module_handles@@3PAPEAUHINSTANCE__@@A 0000000180034230     libvcruntime:winapi_downlevel.obj
 0003:00001248       ?function_pointers@@3PAPEAXA 0000000180034248     libvcruntime:winapi_downlevel.obj
 0003:00001278       ?__acrt_invalid_parameter_handler@@3V?$dual_state_global@P6AXPEB_W00I_K@Z@__crt_state_management@@A 0000000180034278     libucrt:invalid_parameter.obj
 0003:00001280       ?__acrt_new_handler@@3V?$dual_state_global@P6AH_K@Z@__crt_state_management@@A 0000000180034280     libucrt:new_handler.obj
 0003:00001288       ?c_termination_complete@@3JA 0000000180034288     libucrt:exit.obj
 0003:00001290       ?thread_local_exit_callback_func@@3P6AXPEAXK0@ZEA 0000000180034290     libucrt:exit.obj
 0003:000012a0       ?program_name@?1???$common_configure_argv@D@@YAHW4_crt_argv_mode@@@Z@4PADA 00000001800342a0     libucrt:argv_parsing.obj
 0003:00001410       ?__acrt_lock_table@@3PAU_RTL_CRITICAL_SECTION@@A 0000000180034410     libucrt:locks.obj
 0003:00001640       ?__acrt_locks_initialized@@3IA 0000000180034640     libucrt:locks.obj
 0003:00001660       ?fSystemSet@@3HA           0000000180034660     libucrt:mbctype.obj
 0003:00001664       ?initialized@?1??__acrt_initialize_multibyte@@9@4_NA 0000000180034664     libucrt:mbctype.obj
 0003:000016a0       ?module_handles@@3PAPEAUHINSTANCE__@@A 00000001800346a0     libucrt:winapi_thunks.obj
 0003:00001740       ?encoded_function_pointers@@3PAPEAXA 0000000180034740     libucrt:winapi_thunks.obj
 0003:00001c68       ?ctrlc_action@@3V?$dual_state_global@P6AXH@Z@__crt_state_management@@A 0000000180034c68     libucrt:signal.obj
 0003:00001c70       ?ctrlbreak_action@@3V?$dual_state_global@P6AXH@Z@__crt_state_management@@A 0000000180034c70     libucrt:signal.obj
 0003:00001c78       ?abort_action@@3V?$dual_state_global@P6AXH@Z@__crt_state_management@@A 0000000180034c78     libucrt:signal.obj
 0003:00001c80       ?term_action@@3V?$dual_state_global@P6AXH@Z@__crt_state_management@@A 0000000180034c80     libucrt:signal.obj
 0003:00001c88       ?user_matherr@@3V?$dual_state_global@P6AHPEAU_exception@@@Z@__crt_state_management@@A 0000000180034c88     libucrt:matherr.obj
 0003:00001cb0       ?internal_state@?1??_mbtowc_l@@9@4U_Mbstatet@@A 0000000180034cb0     libucrt:mbtowc.obj
 0003:00001cc0       ?__acrt_global_new_mode@@3V?$dual_state_global@J@__crt_state_management@@A 0000000180034cc0     libucrt:new_mode.obj
 0003:00001cc4       ?__acrt_app_type@@3W4_crt_app_type@@A 0000000180034cc4     libucrt:report_runtime_error.obj
 0003:00001cc8       ?internal_pst@?1??__mbrtoc32_utf8@__crt_mbstring@@YA_KPEA_UPEBD_KPEAU_Mbstatet@@@Z@4U3@A 0000000180034cc8     libucrt:mbrtoc32.obj
 0005:00000000       MsetTab                    0000000180037000     libvcruntime:memset.obj
 0005:00000050       MoveSmall                  0000000180037050     libvcruntime:memcpy.obj
 0005:00000090       MoveSmallYmm               0000000180037090     libvcruntime:memcpy.obj
 0005:000000b4       MoveSmallYmmNT             00000001800370b4     libvcruntime:memcpy.obj
 0005:000000d8       MoveSmallXmm               00000001800370d8     libvcruntime:memcpy.obj
 0006:00000060       $R000000                   0000000180038060     * linker generated manifest res *

 Exports

  ordinal    name

        1    _register_addon_
