 addon

 Timestamp is 615d9c3a (Wed Oct  6 15:53:14 2021)

 Preferred load address is 0000000180000000

 Start         Length     Name                   Class
 0001:00000000 00024a10H .text$mn                CODE
 0001:00024a10 00000020H .text$mn$00             CODE
 0001:00024a30 00000250H .text$x                 CODE
 0002:00000000 00000318H .idata$5                DATA
 0002:00000318 00000010H .00cfg                  DATA
 0002:00000328 00000008H .CRT$XCA                DATA
 0002:00000330 00000008H .CRT$XCU                DATA
 0002:00000338 00000008H .CRT$XCZ                DATA
 0002:00000340 00000008H .CRT$XIA                DATA
 0002:00000348 00000018H .CRT$XIC                DATA
 0002:00000360 00000008H .CRT$XIZ                DATA
 0002:00000368 00000008H .CRT$XPA                DATA
 0002:00000370 00000010H .CRT$XPX                DATA
 0002:00000380 00000008H .CRT$XPXA               DATA
 0002:00000388 00000008H .CRT$XPZ                DATA
 0002:00000390 00000008H .CRT$XTA                DATA
 0002:00000398 00000008H .CRT$XTZ                DATA
 0002:000003a0 00000000H .gfids$y                DATA
 0002:000003a0 00007330H .rdata                  DATA
 0002:000076d0 000002fcH .rdata$r                DATA
 0002:000079cc 00000324H .rdata$zzzdbg           DATA
 0002:00007cf0 00000008H .rtc$IAA                DATA
 0002:00007cf8 00000008H .rtc$IZZ                DATA
 0002:00007d00 00000008H .rtc$TAA                DATA
 0002:00007d08 00000008H .rtc$TZZ                DATA
 0002:00007d10 000027b0H .xdata                  DATA
 0002:0000a4c0 00000180H .xdata$x                DATA
 0002:0000a640 00000050H .edata                  DATA
 0002:0000a690 00000028H .idata$2                DATA
 0002:0000a6b8 00000018H .idata$3                DATA
 0002:0000a6d0 00000318H .idata$4                DATA
 0002:0000a9e8 00000cdcH .idata$6                DATA
 0003:00000000 00000a20H .data                   DATA
 0003:00000a20 000000f0H .data$r                 DATA
 0003:00000b10 000011e0H .bss                    DATA
 0004:00000000 0000216cH .pdata                  DATA
 0005:00000000 00000060H .rsrc$01                DATA
 0005:00000060 00000180H .rsrc$02                DATA

  Address         Publics by Value              Rva+Base               Lib:Object

 0000:00000000       __volatile_metadata        0000000000000000     <absolute>
 0000:00000000       __hybrid_code_map          0000000000000000     <absolute>
 0000:00000000       __hybrid_code_map_count    0000000000000000     <absolute>
 0000:00000000       __guard_fids_count         0000000000000000     <absolute>
 0000:00000000       __guard_longjmp_count      0000000000000000     <absolute>
 0000:00000000       __guard_longjmp_table      0000000000000000     <absolute>
 0000:00000000       __guard_iat_count          0000000000000000     <absolute>
 0000:00000000       __guard_iat_table          0000000000000000     <absolute>
 0000:00000000       ___safe_se_handler_count   0000000000000000     <absolute>
 0000:00000000       __enclave_config           0000000000000000     <absolute>
 0000:00000000       ___safe_se_handler_table   0000000000000000     <absolute>
 0000:00000000       __guard_fids_table         0000000000000000     <absolute>
 0000:00000000       __hybrid_auxiliary_iat     0000000000000000     <absolute>
 0000:00000000       __dynamic_value_reloc_table 0000000000000000     <absolute>
 0000:00000100       __guard_flags              0000000000000100     <absolute>
 0000:00000000       __ImageBase                0000000180000000     <linker-defined>
 0001:000000d0       ?InitAll@@YAXV?$Local@VObject@v8@@@v8@@@Z 00000001800010d0 f   addon.obj
 0001:000002e0       ?convolve_two_polygon_sets@@YAXAEAV?$polygon_set_data@H@polygon@boost@@AEBV123@1@Z 00000001800012e0 f   minkowski.obj
 0001:00000750       ??1?$polygon_with_holes_data@H@polygon@boost@@QEAA@XZ 0000000180001750 f i minkowski.obj
 0001:000007d0       ?calculateNFP@@YAXAEBV?$FunctionCallbackInfo@VValue@v8@@@Nan@@@Z 00000001800017d0 f   minkowski.obj
 0001:000016d0       ??0?$polygon_with_holes_data@H@polygon@boost@@QEAA@AEBV012@@Z 00000001800026d0 f i minkowski.obj
 0001:00001790       ?_Tidy@?$vector@V?$point_data@H@polygon@boost@@V?$allocator@V?$point_data@H@polygon@boost@@@std@@@std@@AEAAXXZ 0000000180002790 f i minkowski.obj
 0001:00001790       ?_Tidy@?$vector@U?$pair@HH@std@@V?$allocator@U?$pair@HH@std@@@2@@std@@AEAAXXZ 0000000180002790 f i minkowski.obj
 0001:000017f0       ?clear@?$list@V?$polygon_data@H@polygon@boost@@V?$allocator@V?$polygon_data@H@polygon@boost@@@std@@@std@@QEAAXXZ 00000001800027f0 f i minkowski.obj
 0001:000018a0       ?_Tidy@?$vector@U?$pair@U?$pair@V?$point_data@H@polygon@boost@@V123@@std@@H@std@@V?$allocator@U?$pair@U?$pair@V?$point_data@H@polygon@boost@@V123@@std@@H@std@@@2@@std@@AEAAXXZ 00000001800028a0 f i minkowski.obj
 0001:00001920       ?_Buy@?$vector@V?$point_data@H@polygon@boost@@V?$allocator@V?$point_data@H@polygon@boost@@@std@@@std@@AEAA_N_K@Z 0000000180002920 f i minkowski.obj
 0001:00001920       ?_Buy@?$vector@U?$pair@HH@std@@V?$allocator@U?$pair@HH@std@@@2@@std@@AEAA_N_K@Z 0000000180002920 f i minkowski.obj
 0001:000019d0       ?_Xlength@?$vector@PEAVactive_tail_arbitrary@?$polygon_arbitrary_formation@H@polygon@boost@@V?$allocator@PEAVactive_tail_arbitrary@?$polygon_arbitrary_formation@H@polygon@boost@@@std@@@std@@CAXXZ 00000001800029d0 f i minkowski.obj
 0001:000019d0       ?_Xlength@?$vector@U?$pair@U?$pair@V?$point_data@H@polygon@boost@@V123@@std@@U?$pair@HH@2@@std@@V?$allocator@U?$pair@U?$pair@V?$point_data@H@polygon@boost@@V123@@std@@U?$pair@HH@2@@std@@@2@@std@@CAXXZ 00000001800029d0 f i minkowski.obj
 0001:000019d0       ?_Xlength@?$vector@V?$polygon_data@H@polygon@boost@@V?$allocator@V?$polygon_data@H@polygon@boost@@@std@@@std@@CAXXZ 00000001800029d0 f i minkowski.obj
 0001:000019d0       ?_Xlength@?$vector@U?$pair@U?$pair@U?$pair@V?$point_data@H@polygon@boost@@V123@@std@@H@std@@PEAVactive_tail_arbitrary@?$polygon_arbitrary_formation@H@polygon@boost@@@std@@V?$allocator@U?$pair@U?$pair@U?$pair@V?$point_data@H@polygon@boost@@V123@@std@@H@std@@PEAVactive_tail_arbitrary@?$polygon_arbitrary_formation@H@polygon@boost@@@std@@@2@@std@@CAXXZ 00000001800029d0 f i minkowski.obj
 0001:000019d0       ?_Xlength@?$vector@U?$pair@Vvertex_half_edge@?$scanline_base@H@polygon@boost@@PEAVactive_tail_arbitrary@?$polygon_arbitrary_formation@H@34@@std@@V?$allocator@U?$pair@Vvertex_half_edge@?$scanline_base@H@polygon@boost@@PEAVactive_tail_arbitrary@?$polygon_arbitrary_formation@H@34@@std@@@2@@std@@CAXXZ 00000001800029d0 f i minkowski.obj
 0001:000019d0       ?_Xlength@?$vector@HV?$allocator@H@std@@@std@@CAXXZ 00000001800029d0 f i minkowski.obj
 0001:000019d0       ?_Xlength@?$vector@V?$_Tree_iterator@V?$_Tree_val@U?$_Tree_simple_types@U?$pair@$$CBVvertex_half_edge@?$scanline_base@H@polygon@boost@@PEAVactive_tail_arbitrary@?$polygon_arbitrary_formation@H@34@@std@@@std@@@std@@@std@@V?$allocator@V?$_Tree_iterator@V?$_Tree_val@U?$_Tree_simple_types@U?$pair@$$CBVvertex_half_edge@?$scanline_base@H@polygon@boost@@PEAVactive_tail_arbitrary@?$polygon_arbitrary_formation@H@34@@std@@@std@@@std@@@std@@@2@@std@@CAXXZ 00000001800029d0 f i minkowski.obj
 0001:000019d0       ?_Xlength@?$vector@V?$set@V?$point_data@H@polygon@boost@@U?$less@V?$point_data@H@polygon@boost@@@std@@V?$allocator@V?$point_data@H@polygon@boost@@@5@@std@@V?$allocator@V?$set@V?$point_data@H@polygon@boost@@U?$less@V?$point_data@H@polygon@boost@@@std@@V?$allocator@V?$point_data@H@polygon@boost@@@5@@std@@@2@@std@@CAXXZ 00000001800029d0 f i minkowski.obj
 0001:000019d0       ?_Xlength@?$vector@U?$pair@V?$point_data@H@polygon@boost@@H@std@@V?$allocator@U?$pair@V?$point_data@H@polygon@boost@@H@std@@@2@@std@@CAXXZ 00000001800029d0 f i minkowski.obj
 0001:000019d0       ?_Xlength@?$vector@V?$_Tree_iterator@V?$_Tree_val@U?$_Tree_simple_types@U?$pair@$$CBU?$pair@V?$point_data@H@polygon@boost@@V123@@std@@V?$vector@U?$pair@HH@std@@V?$allocator@U?$pair@HH@std@@@2@@2@@std@@@std@@@std@@@std@@V?$allocator@V?$_Tree_iterator@V?$_Tree_val@U?$_Tree_simple_types@U?$pair@$$CBU?$pair@V?$point_data@H@polygon@boost@@V123@@std@@V?$vector@U?$pair@HH@std@@V?$allocator@U?$pair@HH@std@@@2@@2@@std@@@std@@@std@@@std@@@2@@std@@CAXXZ 00000001800029d0 f i minkowski.obj
 0001:000019d0       ?_Xlength@?$vector@V?$polygon_with_holes_data@H@polygon@boost@@V?$allocator@V?$polygon_with_holes_data@H@polygon@boost@@@std@@@std@@CAXXZ 00000001800029d0 f i minkowski.obj
 0001:000019d0       ?_Xlength@?$vector@U?$pair@U?$pair@V?$point_data@H@polygon@boost@@V123@@std@@H@std@@V?$allocator@U?$pair@U?$pair@V?$point_data@H@polygon@boost@@V123@@std@@H@std@@@2@@std@@CAXXZ 00000001800029d0 f i minkowski.obj
 0001:000019d0       ?_Xlength@?$vector@U?$pair@HU?$pair@_K_K@std@@@std@@V?$allocator@U?$pair@HU?$pair@_K_K@std@@@std@@@2@@std@@CAXXZ 00000001800029d0 f i minkowski.obj
 0001:000019d0       ?_Xlength@?$vector@U?$pair@U?$pair@V?$point_data@H@polygon@boost@@V123@@std@@V?$vector@U?$pair@HH@std@@V?$allocator@U?$pair@HH@std@@@2@@2@@std@@V?$allocator@U?$pair@U?$pair@V?$point_data@H@polygon@boost@@V123@@std@@V?$vector@U?$pair@HH@std@@V?$allocator@U?$pair@HH@std@@@2@@2@@std@@@2@@std@@CAXXZ 00000001800029d0 f i minkowski.obj
 0001:000019d0       ?_Xlength@?$vector@Vvertex_half_edge@?$scanline_base@H@polygon@boost@@V?$allocator@Vvertex_half_edge@?$scanline_base@H@polygon@boost@@@std@@@std@@CAXXZ 00000001800029d0 f i minkowski.obj
 0001:000019d0       ?_Xlength@?$vector@V?$point_data@H@polygon@boost@@V?$allocator@V?$point_data@H@polygon@boost@@@std@@@std@@CAXXZ 00000001800029d0 f i minkowski.obj
 0001:000019d0       ?_Xlength@?$vector@U?$pair@HH@std@@V?$allocator@U?$pair@HH@std@@@2@@std@@CAXXZ 00000001800029d0 f i minkowski.obj
 0001:000019f0       ??$convolve_point_sequence_with_polygons@V?$_Vector_const_iterator@V?$_Vector_val@U?$_Simple_types@V?$point_data@H@polygon@boost@@@std@@@std@@@std@@@@YAXAEAV?$polygon_set_data@H@polygon@boost@@V?$_Vector_const_iterator@V?$_Vector_val@U?$_Simple_types@V?$point_data@H@polygon@boost@@@std@@@std@@@std@@1AEBV?$vector@V?$polygon_with_holes_data@H@polygon@boost@@V?$allocator@V?$polygon_with_holes_data@H@polygon@boost@@@std@@@4@@Z 00000001800029f0 f i minkowski.obj
 0001:00001af0       ??$convolve@V?$polygon_with_holes_data@H@polygon@boost@@V?$point_data@H@23@@polygon@boost@@YAAEAV?$polygon_with_holes_data@H@01@AEAV201@AEBV?$point_data@H@01@@Z 0000000180002af0 f i minkowski.obj
 0001:00001de0       ??$_Emplace_reallocate@AEBV?$point_data@H@polygon@boost@@@?$vector@V?$point_data@H@polygon@boost@@V?$allocator@V?$point_data@H@polygon@boost@@@std@@@std@@QEAAPEAV?$point_data@H@polygon@boost@@QEAV234@AEBV234@@Z 0000000180002de0 f i minkowski.obj
 0001:00001de0       ??$_Emplace_reallocate@V?$point_data@H@polygon@boost@@@?$vector@V?$point_data@H@polygon@boost@@V?$allocator@V?$point_data@H@polygon@boost@@@std@@@std@@QEAAPEAV?$point_data@H@polygon@boost@@QEAV234@$$QEAV234@@Z 0000000180002de0 f i minkowski.obj
 0001:00001f90       ??$assign@V?$_List_const_iterator@V?$_List_val@U?$_List_simple_types@V?$polygon_data@H@polygon@boost@@@std@@@std@@@std@@X@?$list@V?$polygon_data@H@polygon@boost@@V?$allocator@V?$polygon_data@H@polygon@boost@@@std@@@std@@QEAAXV?$_List_const_iterator@V?$_List_val@U?$_List_simple_types@V?$polygon_data@H@polygon@boost@@@std@@@std@@@1@0@Z 0000000180002f90 f i minkowski.obj
 0001:00002160       ??$_Allocate@$0BA@U_Default_allocate_traits@std@@$0A@@std@@YAPEAX_K@Z 0000000180003160 f i minkowski.obj
 0001:000021c0       ??$_Ucopy@PEAV?$point_data@H@polygon@boost@@@?$vector@V?$point_data@H@polygon@boost@@V?$allocator@V?$point_data@H@polygon@boost@@@std@@@std@@AEAAPEAV?$point_data@H@polygon@boost@@PEAV234@00@Z 00000001800031c0 f i minkowski.obj
 0001:000021c0       ??$_Ucopy@PEBV?$point_data@H@polygon@boost@@@?$vector@V?$point_data@H@polygon@boost@@V?$allocator@V?$point_data@H@polygon@boost@@@std@@@std@@AEAAPEAV?$point_data@H@polygon@boost@@PEBV234@0PEAV234@@Z 00000001800031c0 f i minkowski.obj
 0001:000021c0       ?_Umove@?$vector@V?$point_data@H@polygon@boost@@V?$allocator@V?$point_data@H@polygon@boost@@@std@@@std@@AEAAPEAV?$point_data@H@polygon@boost@@PEAV345@00@Z 00000001800031c0 f i minkowski.obj
 0001:00002210       ?_Change_array@?$vector@V?$point_data@H@polygon@boost@@V?$allocator@V?$point_data@H@polygon@boost@@@std@@@std@@AEAAXQEAV?$point_data@H@polygon@boost@@_K1@Z 0000000180003210 f i minkowski.obj
 0001:00002210       ?_Change_array@?$vector@PEAVactive_tail_arbitrary@?$polygon_arbitrary_formation@H@polygon@boost@@V?$allocator@PEAVactive_tail_arbitrary@?$polygon_arbitrary_formation@H@polygon@boost@@@std@@@std@@AEAAXQEAPEAVactive_tail_arbitrary@?$polygon_arbitrary_formation@H@polygon@boost@@_K1@Z 0000000180003210 f i minkowski.obj
 0001:00002210       ?_Change_array@?$vector@U?$pair@HH@std@@V?$allocator@U?$pair@HH@std@@@2@@std@@AEAAXQEAU?$pair@HH@2@_K1@Z 0000000180003210 f i minkowski.obj
 0001:000022a0       ?_Change_array@?$vector@V?$polygon_data@H@polygon@boost@@V?$allocator@V?$polygon_data@H@polygon@boost@@@std@@@std@@AEAAXQEAV?$polygon_data@H@polygon@boost@@_K1@Z 00000001800032a0 f i minkowski.obj
 0001:00002360       ?_Umove_if_noexcept@?$vector@V?$polygon_data@H@polygon@boost@@V?$allocator@V?$polygon_data@H@polygon@boost@@@std@@@std@@AEAAXPEAV?$polygon_data@H@polygon@boost@@00@Z 0000000180003360 f i minkowski.obj
 0001:00002430       ?deallocate@?$allocator@U?$pair@HU?$pair@_K_K@std@@@std@@@std@@QEAAXQEAU?$pair@HU?$pair@_K_K@std@@@2@_K@Z 0000000180003430 f i minkowski.obj
 0001:00002430       ?deallocate@?$allocator@V?$polygon_data@H@polygon@boost@@@std@@QEAAXQEAV?$polygon_data@H@polygon@boost@@_K@Z 0000000180003430 f i minkowski.obj
 0001:00002480       ??$convolve_two_point_sequences@V?$_Vector_const_iterator@V?$_Vector_val@U?$_Simple_types@V?$point_data@H@polygon@boost@@@std@@@std@@@std@@V12@@@YAXAEAV?$polygon_set_data@H@polygon@boost@@V?$_Vector_const_iterator@V?$_Vector_val@U?$_Simple_types@V?$point_data@H@polygon@boost@@@std@@@std@@@std@@111@Z 0000000180003480 f i minkowski.obj
 0001:00002820       ??$convolve@V?$polygon_data@H@polygon@boost@@V?$point_data@H@23@@polygon@boost@@YAAEAV?$polygon_data@H@01@AEAV201@AEBV?$point_data@H@01@@Z 0000000180003820 f i minkowski.obj
 0001:00002950       ??$_Insert_range@V?$_List_const_iterator@V?$_List_val@U?$_List_simple_types@V?$polygon_data@H@polygon@boost@@@std@@@std@@@std@@@?$list@V?$polygon_data@H@polygon@boost@@V?$allocator@V?$polygon_data@H@polygon@boost@@@std@@@std@@QEAAXV?$_List_unchecked_const_iterator@V?$_List_val@U?$_List_simple_types@V?$polygon_data@H@polygon@boost@@@std@@@std@@U_Iterator_base0@2@@1@V?$_List_const_iterator@V?$_List_val@U?$_List_simple_types@V?$polygon_data@H@polygon@boost@@@std@@@std@@@1@1Uforward_iterator_tag@1@@Z 0000000180003950 f i minkowski.obj
 0001:00002a10       ??$_Assign_range@PEAV?$point_data@H@polygon@boost@@@?$vector@V?$point_data@H@polygon@boost@@V?$allocator@V?$point_data@H@polygon@boost@@@std@@@std@@AEAAXPEAV?$point_data@H@polygon@boost@@0Uforward_iterator_tag@1@@Z 0000000180003a10 f i minkowski.obj
 0001:00002bb0       ??$construct@V?$polygon_data@H@polygon@boost@@AEBV123@@?$_Default_allocator_traits@V?$allocator@U?$_List_node@V?$polygon_data@H@polygon@boost@@PEAX@std@@@std@@@std@@SAXAEAV?$allocator@U?$_List_node@V?$polygon_data@H@polygon@boost@@PEAX@std@@@1@QEAV?$polygon_data@H@polygon@boost@@AEBV345@@Z 0000000180003bb0 f i minkowski.obj
 0001:00002bb0       ??$construct@V?$polygon_data@H@polygon@boost@@AEBV123@@?$_Default_allocator_traits@V?$allocator@V?$polygon_data@H@polygon@boost@@@std@@@std@@SAXAEAV?$allocator@V?$polygon_data@H@polygon@boost@@@1@QEAV?$polygon_data@H@polygon@boost@@AEBV345@@Z 0000000180003bb0 f i minkowski.obj
 0001:00002c30       ??$_Emplace_reallocate@AEBV?$polygon_data@H@polygon@boost@@@?$vector@V?$polygon_data@H@polygon@boost@@V?$allocator@V?$polygon_data@H@polygon@boost@@@std@@@std@@QEAAPEAV?$polygon_data@H@polygon@boost@@QEAV234@AEBV234@@Z 0000000180003c30 f i minkowski.obj
 0001:00002de0       ??$_Destroy_range@V?$allocator@V?$polygon_data@H@polygon@boost@@@std@@@std@@YAXPEAV?$polygon_data@H@polygon@boost@@0AEAV?$allocator@V?$polygon_data@H@polygon@boost@@@0@@Z 0000000180003de0 f i minkowski.obj
 0001:00002e70       ?_Umove@?$vector@V?$polygon_data@H@polygon@boost@@V?$allocator@V?$polygon_data@H@polygon@boost@@@std@@@std@@AEAAPEAV?$polygon_data@H@polygon@boost@@PEAV345@00@Z 0000000180003e70 f i minkowski.obj
 0001:00002f40       ?reserve@?$vector@V?$point_data@H@polygon@boost@@V?$allocator@V?$point_data@H@polygon@boost@@@std@@@std@@QEAAX_K@Z 0000000180003f40 f i minkowski.obj
 0001:00003020       ??$get_fracture@V?$vector@V?$polygon_with_holes_data@H@polygon@boost@@V?$allocator@V?$polygon_with_holes_data@H@polygon@boost@@@std@@@std@@Upolygon_with_holes_concept@polygon@boost@@@?$polygon_set_data@H@polygon@boost@@AEBAXAEAV?$vector@V?$polygon_with_holes_data@H@polygon@boost@@V?$allocator@V?$polygon_with_holes_data@H@polygon@boost@@@std@@@std@@_NUpolygon_with_holes_concept@12@@Z 0000000180004020 f i minkowski.obj
 0001:00003330       ??$execute_boolean_op@V?$polygon_set_data@H@polygon@boost@@V123@V?$polygon_with_holes_data@H@23@$0A@@polygon@boost@@YAXAEAV?$polygon_set_data@H@01@AEBV201@AEBV?$polygon_with_holes_data@H@01@@Z 0000000180004330 f i minkowski.obj
 0001:00003530       ??$execute_boolean_op@V?$polygon_set_data@H@polygon@boost@@V123@V?$polygon_with_holes_data@H@23@$02@polygon@boost@@YAXAEAV?$polygon_set_data@H@01@AEBV201@AEBV?$polygon_with_holes_data@H@01@@Z 0000000180004530 f i minkowski.obj
 0001:00003740       ??$_Emplace_reallocate@U?$pair@HH@std@@@?$vector@U?$pair@HH@std@@V?$allocator@U?$pair@HH@std@@@2@@std@@QEAAPEAU?$pair@HH@1@QEAU21@$$QEAU21@@Z 0000000180004740 f i minkowski.obj
 0001:00003740       ??$_Emplace_reallocate@AEBU?$pair@HH@std@@@?$vector@U?$pair@HH@std@@V?$allocator@U?$pair@HH@std@@@2@@std@@QEAAPEAU?$pair@HH@1@QEAU21@AEBU21@@Z 0000000180004740 f i minkowski.obj
 0001:00003930       ??1?$polygon_45_set_data@H@polygon@boost@@QEAA@XZ 0000000180004930 f i minkowski.obj
 0001:00003a30       ?reserve@?$vector@U?$pair@HH@std@@V?$allocator@U?$pair@HH@std@@@2@@std@@QEAAX_K@Z 0000000180004a30 f i minkowski.obj
 0001:00003b30       ?clear@?$_Tree@V?$_Tmap_traits@Vvertex_half_edge@?$scanline_base@H@polygon@boost@@PEAVactive_tail_arbitrary@?$polygon_arbitrary_formation@H@34@Vless_vertex_half_edge@234@V?$allocator@U?$pair@$$CBVvertex_half_edge@?$scanline_base@H@polygon@boost@@PEAVactive_tail_arbitrary@?$polygon_arbitrary_formation@H@34@@std@@@std@@$0A@@std@@@std@@QEAAXXZ 0000000180004b30 f i minkowski.obj
 0001:00003bc0       ?erase@?$_Tree@V?$_Tmap_traits@Vvertex_half_edge@?$scanline_base@H@polygon@boost@@PEAVactive_tail_arbitrary@?$polygon_arbitrary_formation@H@34@Vless_vertex_half_edge@234@V?$allocator@U?$pair@$$CBVvertex_half_edge@?$scanline_base@H@polygon@boost@@PEAVactive_tail_arbitrary@?$polygon_arbitrary_formation@H@34@@std@@@std@@$0A@@std@@@std@@QEAA?AV?$_Tree_iterator@V?$_Tree_val@U?$_Tree_simple_types@U?$pair@$$CBVvertex_half_edge@?$scanline_base@H@polygon@boost@@PEAVactive_tail_arbitrary@?$polygon_arbitrary_formation@H@34@@std@@@std@@@std@@@2@V?$_Tree_const_iterator@V?$_Tree_val@U?$_Tree_simple_types@U?$pair@$$CBVvertex_half_edge@?$scanline_base@H@polygon@boost@@PEAVactive_tail_arbitrary@?$polygon_arbitrary_formation@H@34@@std@@@std@@@std@@@2@@Z 0000000180004bc0 f i minkowski.obj
 0001:00003c50       ?_Extract@?$_Tree_val@U?$_Tree_simple_types@V?$point_data@H@polygon@boost@@@std@@@std@@QEAAPEAU?$_Tree_node@V?$point_data@H@polygon@boost@@PEAX@2@V?$_Tree_const_iterator@V?$_Tree_val@U?$_Tree_simple_types@V?$point_data@H@polygon@boost@@@std@@@std@@@2@@Z 0000000180004c50 f i minkowski.obj
 0001:00003c50       ?_Extract@?$_Tree_val@U?$_Tree_simple_types@U?$pair@$$CBHV?$vector@U?$pair@U?$pair@V?$point_data@H@polygon@boost@@V123@@std@@H@std@@V?$allocator@U?$pair@U?$pair@V?$point_data@H@polygon@boost@@V123@@std@@H@std@@@2@@std@@@std@@@std@@@std@@QEAAPEAU?$_Tree_node@U?$pair@$$CBHV?$vector@U?$pair@U?$pair@V?$point_data@H@polygon@boost@@V123@@std@@H@std@@V?$allocator@U?$pair@U?$pair@V?$point_data@H@polygon@boost@@V123@@std@@H@std@@@2@@std@@@std@@PEAX@2@V?$_Tree_const_iterator@V?$_Tree_val@U?$_Tree_simple_types@U?$pair@$$CBHV?$vector@U?$pair@U?$pair@V?$point_data@H@polygon@boost@@V123@@std@@H@std@@V?$allocator@U?$pair@U?$pair@V?$point_data@H@polygon@boost@@V123@@std@@H@std@@@2@@std@@@std@@@std@@@std@@@2@@Z 0000000180004c50 f i minkowski.obj
 0001:00003c50       ?_Extract@?$_Tree_val@U?$_Tree_simple_types@U?$pair@$$CBU?$pair@V?$point_data@H@polygon@boost@@V123@@std@@V?$vector@U?$pair@HH@std@@V?$allocator@U?$pair@HH@std@@@2@@2@@std@@@std@@@std@@QEAAPEAU?$_Tree_node@U?$pair@$$CBU?$pair@V?$point_data@H@polygon@boost@@V123@@std@@V?$vector@U?$pair@HH@std@@V?$allocator@U?$pair@HH@std@@@2@@2@@std@@PEAX@2@V?$_Tree_const_iterator@V?$_Tree_val@U?$_Tree_simple_types@U?$pair@$$CBU?$pair@V?$point_data@H@polygon@boost@@V123@@std@@V?$vector@U?$pair@HH@std@@V?$allocator@U?$pair@HH@std@@@2@@2@@std@@@std@@@std@@@2@@Z 0000000180004c50 f i minkowski.obj
 0001:00003c50       ?_Extract@?$_Tree_val@U?$_Tree_simple_types@U?$pair@$$CBVvertex_half_edge@?$scanline_base@H@polygon@boost@@PEAVactive_tail_arbitrary@?$polygon_arbitrary_formation@H@34@@std@@@std@@@std@@QEAAPEAU?$_Tree_node@U?$pair@$$CBVvertex_half_edge@?$scanline_base@H@polygon@boost@@PEAVactive_tail_arbitrary@?$polygon_arbitrary_formation@H@34@@std@@PEAX@2@V?$_Tree_const_iterator@V?$_Tree_val@U?$_Tree_simple_types@U?$pair@$$CBVvertex_half_edge@?$scanline_base@H@polygon@boost@@PEAVactive_tail_arbitrary@?$polygon_arbitrary_formation@H@34@@std@@@std@@@std@@@2@@Z 0000000180004c50 f i minkowski.obj
 0001:00003fd0       ?_Erase@?$_Tree@V?$_Tmap_traits@Vvertex_half_edge@?$scanline_base@H@polygon@boost@@PEAVactive_tail_arbitrary@?$polygon_arbitrary_formation@H@34@Vless_vertex_half_edge@234@V?$allocator@U?$pair@$$CBVvertex_half_edge@?$scanline_base@H@polygon@boost@@PEAVactive_tail_arbitrary@?$polygon_arbitrary_formation@H@34@@std@@@std@@$0A@@std@@@std@@IEAAXPEAU?$_Tree_node@U?$pair@$$CBVvertex_half_edge@?$scanline_base@H@polygon@boost@@PEAVactive_tail_arbitrary@?$polygon_arbitrary_formation@H@34@@std@@PEAX@2@@Z 0000000180004fd0 f i minkowski.obj
 0001:00004030       ?_Rrotate@?$_Tree_val@U?$_Tree_simple_types@V?$point_data@H@polygon@boost@@@std@@@std@@QEAAXPEAU?$_Tree_node@V?$point_data@H@polygon@boost@@PEAX@2@@Z 0000000180005030 f i minkowski.obj
 0001:00004030       ?_Rrotate@?$_Tree_val@U?$_Tree_simple_types@U?$pair@$$CBHV?$vector@U?$pair@U?$pair@V?$point_data@H@polygon@boost@@V123@@std@@H@std@@V?$allocator@U?$pair@U?$pair@V?$point_data@H@polygon@boost@@V123@@std@@H@std@@@2@@std@@@std@@@std@@@std@@QEAAXPEAU?$_Tree_node@U?$pair@$$CBHV?$vector@U?$pair@U?$pair@V?$point_data@H@polygon@boost@@V123@@std@@H@std@@V?$allocator@U?$pair@U?$pair@V?$point_data@H@polygon@boost@@V123@@std@@H@std@@@2@@std@@@std@@PEAX@2@@Z 0000000180005030 f i minkowski.obj
 0001:00004030       ?_Rrotate@?$_Tree_val@U?$_Tree_simple_types@U?$pair@$$CBVvertex_half_edge@?$scanline_base@H@polygon@boost@@PEAVactive_tail_arbitrary@?$polygon_arbitrary_formation@H@34@@std@@@std@@@std@@QEAAXPEAU?$_Tree_node@U?$pair@$$CBVvertex_half_edge@?$scanline_base@H@polygon@boost@@PEAVactive_tail_arbitrary@?$polygon_arbitrary_formation@H@34@@std@@PEAX@2@@Z 0000000180005030 f i minkowski.obj
 0001:00004030       ?_Rrotate@?$_Tree_val@U?$_Tree_simple_types@U?$pair@$$CBU?$pair@V?$point_data@H@polygon@boost@@V123@@std@@V?$vector@U?$pair@HH@std@@V?$allocator@U?$pair@HH@std@@@2@@2@@std@@@std@@@std@@QEAAXPEAU?$_Tree_node@U?$pair@$$CBU?$pair@V?$point_data@H@polygon@boost@@V123@@std@@V?$vector@U?$pair@HH@std@@V?$allocator@U?$pair@HH@std@@@2@@2@@std@@PEAX@2@@Z 0000000180005030 f i minkowski.obj
 0001:00004090       ?_Lrotate@?$_Tree_val@U?$_Tree_simple_types@U?$pair@$$CBU?$pair@V?$point_data@H@polygon@boost@@V123@@std@@V?$vector@U?$pair@HH@std@@V?$allocator@U?$pair@HH@std@@@2@@2@@std@@@std@@@std@@QEAAXPEAU?$_Tree_node@U?$pair@$$CBU?$pair@V?$point_data@H@polygon@boost@@V123@@std@@V?$vector@U?$pair@HH@std@@V?$allocator@U?$pair@HH@std@@@2@@2@@std@@PEAX@2@@Z 0000000180005090 f i minkowski.obj
 0001:00004090       ?_Lrotate@?$_Tree_val@U?$_Tree_simple_types@U?$pair@$$CBVvertex_half_edge@?$scanline_base@H@polygon@boost@@PEAVactive_tail_arbitrary@?$polygon_arbitrary_formation@H@34@@std@@@std@@@std@@QEAAXPEAU?$_Tree_node@U?$pair@$$CBVvertex_half_edge@?$scanline_base@H@polygon@boost@@PEAVactive_tail_arbitrary@?$polygon_arbitrary_formation@H@34@@std@@PEAX@2@@Z 0000000180005090 f i minkowski.obj
 0001:00004090       ?_Lrotate@?$_Tree_val@U?$_Tree_simple_types@V?$point_data@H@polygon@boost@@@std@@@std@@QEAAXPEAU?$_Tree_node@V?$point_data@H@polygon@boost@@PEAX@2@@Z 0000000180005090 f i minkowski.obj
 0001:00004090       ?_Lrotate@?$_Tree_val@U?$_Tree_simple_types@U?$pair@$$CBHV?$vector@U?$pair@U?$pair@V?$point_data@H@polygon@boost@@V123@@std@@H@std@@V?$allocator@U?$pair@U?$pair@V?$point_data@H@polygon@boost@@V123@@std@@H@std@@@2@@std@@@std@@@std@@@std@@QEAAXPEAU?$_Tree_node@U?$pair@$$CBHV?$vector@U?$pair@U?$pair@V?$point_data@H@polygon@boost@@V123@@std@@H@std@@V?$allocator@U?$pair@U?$pair@V?$point_data@H@polygon@boost@@V123@@std@@H@std@@@2@@std@@@std@@PEAX@2@@Z 0000000180005090 f i minkowski.obj
 0001:000040f0       ?clean@?$polygon_set_data@H@polygon@boost@@QEBAXXZ 00000001800050f0 f i minkowski.obj
 0001:00004290       ??$insert_vertex_sequence@V?$_Vector_const_iterator@V?$_Vector_val@U?$_Simple_types@V?$point_data@H@polygon@boost@@@std@@@std@@@std@@@?$polygon_set_data@H@polygon@boost@@QEAAXV?$_Vector_const_iterator@V?$_Vector_val@U?$_Simple_types@V?$point_data@H@polygon@boost@@@std@@@std@@@std@@0Vdirection_1d@12@_N@Z 0000000180005290 f i minkowski.obj
 0001:00004470       ??$insert_into_view_arg@V?$polygon_set_data@H@polygon@boost@@V?$polygon_with_holes_data@H@23@@polygon@boost@@YAXAEAV?$polygon_set_data@H@01@AEBV?$polygon_with_holes_data@H@01@@Z 0000000180005470 f i minkowski.obj
 0001:00004550       ??$execute@V?$polygon_set_data@H@polygon@boost@@V?$_Vector_const_iterator@V?$_Vector_val@U?$_Simple_types@U?$pair@U?$pair@V?$point_data@H@polygon@boost@@V123@@std@@H@std@@@std@@@std@@@std@@V45@@?$arbitrary_boolean_op@H@polygon@boost@@QEAAXAEAV?$polygon_set_data@H@12@V?$_Vector_const_iterator@V?$_Vector_val@U?$_Simple_types@U?$pair@U?$pair@V?$point_data@H@polygon@boost@@V123@@std@@H@std@@@std@@@std@@@std@@111H@Z 0000000180005550 f i minkowski.obj
 0001:00004850       ??$set@V?$_Vector_const_iterator@V?$_Vector_val@U?$_Simple_types@U?$pair@U?$pair@V?$point_data@H@polygon@boost@@V123@@std@@H@std@@@std@@@std@@@std@@@?$polygon_set_data@H@polygon@boost@@QEAAXV?$_Vector_const_iterator@V?$_Vector_val@U?$_Simple_types@U?$pair@U?$pair@V?$point_data@H@polygon@boost@@V123@@std@@H@std@@@std@@@std@@@std@@0@Z 0000000180005850 f i minkowski.obj
 0001:00004a10       ??$_Emplace_reallocate@Vvertex_half_edge@?$scanline_base@H@polygon@boost@@@?$vector@Vvertex_half_edge@?$scanline_base@H@polygon@boost@@V?$allocator@Vvertex_half_edge@?$scanline_base@H@polygon@boost@@@std@@@std@@QEAAPEAVvertex_half_edge@?$scanline_base@H@polygon@boost@@QEAV2345@$$QEAV2345@@Z 0000000180005a10 f i minkowski.obj
 0001:00004c60       ??0?$scanline@HHV?$vector@HV?$allocator@H@std@@@std@@@polygon@boost@@QEAA@XZ 0000000180005c60 f i minkowski.obj
 0001:00004e00       ?_Umove@?$vector@Vvertex_half_edge@?$scanline_base@H@polygon@boost@@V?$allocator@Vvertex_half_edge@?$scanline_base@H@polygon@boost@@@std@@@std@@AEAAPEAVvertex_half_edge@?$scanline_base@H@polygon@boost@@PEAV3456@00@Z 0000000180005e00 f i minkowski.obj
 0001:00004e00       ?_Umove@?$vector@U?$pair@U?$pair@V?$point_data@H@polygon@boost@@V123@@std@@H@std@@V?$allocator@U?$pair@U?$pair@V?$point_data@H@polygon@boost@@V123@@std@@H@std@@@2@@std@@AEAAPEAU?$pair@U?$pair@V?$point_data@H@polygon@boost@@V123@@std@@H@2@PEAU32@00@Z 0000000180005e00 f i minkowski.obj
 0001:00004e50       ?insert_clean@?$polygon_set_data@H@polygon@boost@@QEAAXAEBU?$pair@U?$pair@V?$point_data@H@polygon@boost@@V123@@std@@H@std@@_N@Z 0000000180005e50 f i minkowski.obj
 0001:00004f30       ??0?$vector@U?$pair@HH@std@@V?$allocator@U?$pair@HH@std@@@2@@std@@QEAA@AEBV01@@Z 0000000180005f30 f i minkowski.obj
 0001:00004fc0       ?erase@?$_Tree@V?$_Tset_traits@V?$point_data@H@polygon@boost@@Vless_point@?$scanline_base@H@23@V?$allocator@V?$point_data@H@polygon@boost@@@std@@$0A@@std@@@std@@QEAA?AV?$_Tree_const_iterator@V?$_Tree_val@U?$_Tree_simple_types@V?$point_data@H@polygon@boost@@@std@@@std@@@2@V32@0@Z 0000000180005fc0 f i minkowski.obj
 0001:00005140       ?deallocate@?$allocator@U?$pair@U?$pair@V?$point_data@H@polygon@boost@@V123@@std@@V?$vector@U?$pair@HH@std@@V?$allocator@U?$pair@HH@std@@@2@@2@@std@@@std@@QEAAXQEAU?$pair@U?$pair@V?$point_data@H@polygon@boost@@V123@@std@@V?$vector@U?$pair@HH@std@@V?$allocator@U?$pair@HH@std@@@2@@2@@2@_K@Z 0000000180006140 f i minkowski.obj
 0001:00005190       ?erase@?$_Tree@V?$_Tmap_traits@U?$pair@V?$point_data@H@polygon@boost@@V123@@std@@V?$vector@U?$pair@HH@std@@V?$allocator@U?$pair@HH@std@@@2@@2@Vless_half_edge@?$scanline_base@H@polygon@boost@@V?$allocator@U?$pair@$$CBU?$pair@V?$point_data@H@polygon@boost@@V123@@std@@V?$vector@U?$pair@HH@std@@V?$allocator@U?$pair@HH@std@@@2@@2@@std@@@2@$0A@@std@@@std@@QEAA?AV?$_Tree_iterator@V?$_Tree_val@U?$_Tree_simple_types@U?$pair@$$CBU?$pair@V?$point_data@H@polygon@boost@@V123@@std@@V?$vector@U?$pair@HH@std@@V?$allocator@U?$pair@HH@std@@@2@@2@@std@@@std@@@std@@@2@V?$_Tree_const_iterator@V?$_Tree_val@U?$_Tree_simple_types@U?$pair@$$CBU?$pair@V?$point_data@H@polygon@boost@@V123@@std@@V?$vector@U?$pair@HH@std@@V?$allocator@U?$pair@HH@std@@@2@@2@@std@@@std@@@std@@@2@0@Z 0000000180006190 f i minkowski.obj
 0001:00005330       ?deallocate@?$allocator@H@std@@QEAAXQEAH_K@Z 0000000180006330 f i minkowski.obj
 0001:00005380       ?erase@?$_Tree@V?$_Tmap_traits@U?$pair@V?$point_data@H@polygon@boost@@V123@@std@@V?$vector@U?$pair@HH@std@@V?$allocator@U?$pair@HH@std@@@2@@2@Vless_half_edge@?$scanline_base@H@polygon@boost@@V?$allocator@U?$pair@$$CBU?$pair@V?$point_data@H@polygon@boost@@V123@@std@@V?$vector@U?$pair@HH@std@@V?$allocator@U?$pair@HH@std@@@2@@2@@std@@@2@$0A@@std@@@std@@QEAA?AV?$_Tree_iterator@V?$_Tree_val@U?$_Tree_simple_types@U?$pair@$$CBU?$pair@V?$point_data@H@polygon@boost@@V123@@std@@V?$vector@U?$pair@HH@std@@V?$allocator@U?$pair@HH@std@@@2@@2@@std@@@std@@@std@@@2@V?$_Tree_const_iterator@V?$_Tree_val@U?$_Tree_simple_types@U?$pair@$$CBU?$pair@V?$point_data@H@polygon@boost@@V123@@std@@V?$vector@U?$pair@HH@std@@V?$allocator@U?$pair@HH@std@@@2@@2@@std@@@std@@@std@@@2@@Z 0000000180006380 f i minkowski.obj
 0001:00005460       ?_Change_array@?$vector@U?$pair@U?$pair@V?$point_data@H@polygon@boost@@V123@@std@@H@std@@V?$allocator@U?$pair@U?$pair@V?$point_data@H@polygon@boost@@V123@@std@@H@std@@@2@@std@@AEAAXQEAU?$pair@U?$pair@V?$point_data@H@polygon@boost@@V123@@std@@H@2@_K1@Z 0000000180006460 f i minkowski.obj
 0001:00005510       ?_Erase@?$_Tree@V?$_Tset_traits@V?$point_data@H@polygon@boost@@U?$less@V?$point_data@H@polygon@boost@@@std@@V?$allocator@V?$point_data@H@polygon@boost@@@5@$0A@@std@@@std@@IEAAXPEAU?$_Tree_node@V?$point_data@H@polygon@boost@@PEAX@2@@Z 0000000180006510 f i minkowski.obj
 0001:00005510       ?_Erase@?$_Tree@V?$_Tset_traits@V?$point_data@H@polygon@boost@@Vless_point@?$scanline_base@H@23@V?$allocator@V?$point_data@H@polygon@boost@@@std@@$0A@@std@@@std@@IEAAXPEAU?$_Tree_node@V?$point_data@H@polygon@boost@@PEAX@2@@Z 0000000180006510 f i minkowski.obj
 0001:00005570       ?_Erase@?$_Tree@V?$_Tmap_traits@U?$pair@V?$point_data@H@polygon@boost@@V123@@std@@V?$vector@U?$pair@HH@std@@V?$allocator@U?$pair@HH@std@@@2@@2@Vless_half_edge@?$scanline_base@H@polygon@boost@@V?$allocator@U?$pair@$$CBU?$pair@V?$point_data@H@polygon@boost@@V123@@std@@V?$vector@U?$pair@HH@std@@V?$allocator@U?$pair@HH@std@@@2@@2@@std@@@2@$0A@@std@@@std@@IEAAXPEAU?$_Tree_node@U?$pair@$$CBU?$pair@V?$point_data@H@polygon@boost@@V123@@std@@V?$vector@U?$pair@HH@std@@V?$allocator@U?$pair@HH@std@@@2@@2@@std@@PEAX@2@@Z 0000000180006570 f i minkowski.obj
 0001:00005720       ??$processEvent_@V?$vector@V?$polygon_with_holes_data@H@polygon@boost@@V?$allocator@V?$polygon_with_holes_data@H@polygon@boost@@@std@@@std@@V?$_Vector_iterator@V?$_Vector_val@U?$_Simple_types@Vvertex_half_edge@?$scanline_base@H@polygon@boost@@@std@@@std@@@2@@?$polygon_arbitrary_formation@H@polygon@boost@@IEAA?AV?$_Vector_iterator@V?$_Vector_val@U?$_Simple_types@Vvertex_half_edge@?$scanline_base@H@polygon@boost@@@std@@@std@@@std@@AEAV?$vector@V?$polygon_with_holes_data@H@polygon@boost@@V?$allocator@V?$polygon_with_holes_data@H@polygon@boost@@@std@@@4@V34@1@Z 0000000180006720 f i minkowski.obj
 0001:00006150       ??$insert@V?$_Vector_const_iterator@V?$_Vector_val@U?$_Simple_types@U?$pair@U?$pair@V?$point_data@H@polygon@boost@@V123@@std@@H@std@@@std@@@std@@@std@@@?$arbitrary_boolean_op@H@polygon@boost@@AEAAXV?$_Vector_const_iterator@V?$_Vector_val@U?$_Simple_types@U?$pair@U?$pair@V?$point_data@H@polygon@boost@@V123@@std@@H@std@@@std@@@std@@@std@@0H@Z 0000000180007150 f i minkowski.obj
 0001:00006200       ??$validate_scan@V?$_Vector_iterator@V?$_Vector_val@U?$_Simple_types@U?$pair@U?$pair@V?$point_data@H@polygon@boost@@V123@@std@@U?$pair@HH@2@@std@@@std@@@std@@@std@@H@?$line_intersection@H@polygon@boost@@SAXAEAV?$vector@U?$pair@U?$pair@V?$point_data@H@polygon@boost@@V123@@std@@U?$pair@HH@2@@std@@V?$allocator@U?$pair@U?$pair@V?$point_data@H@polygon@boost@@V123@@std@@U?$pair@HH@2@@std@@@2@@std@@V?$_Vector_iterator@V?$_Vector_val@U?$_Simple_types@U?$pair@U?$pair@V?$point_data@H@polygon@boost@@V123@@std@@U?$pair@HH@2@@std@@@std@@@std@@@4@1@Z 0000000180007200 f i minkowski.obj
 0001:00006590       ??$scan@V?$polygon_set_data@H@polygon@boost@@V?$boolean_output_functor@V?$polygon_set_data@H@polygon@boost@@V?$vector@HV?$allocator@H@std@@@std@@$0A@@?$arbitrary_boolean_op@H@23@V?$_Vector_iterator@V?$_Vector_val@U?$_Simple_types@U?$pair@U?$pair@V?$point_data@H@polygon@boost@@V123@@std@@U?$pair@HH@2@@std@@@std@@@std@@@std@@@?$scanline@HHV?$vector@HV?$allocator@H@std@@@std@@@polygon@boost@@QEAAXAEAV?$polygon_set_data@H@12@V?$boolean_output_functor@V?$polygon_set_data@H@polygon@boost@@V?$vector@HV?$allocator@H@std@@@std@@$0A@@?$arbitrary_boolean_op@H@12@V?$_Vector_iterator@V?$_Vector_val@U?$_Simple_types@U?$pair@U?$pair@V?$point_data@H@polygon@boost@@V123@@std@@U?$pair@HH@2@@std@@@std@@@std@@@std@@2@Z 0000000180007590 f i minkowski.obj
 0001:00006790       ??$scan@V?$polygon_set_data@H@polygon@boost@@V?$boolean_output_functor@V?$polygon_set_data@H@polygon@boost@@V?$vector@HV?$allocator@H@std@@@std@@$02@?$arbitrary_boolean_op@H@23@V?$_Vector_iterator@V?$_Vector_val@U?$_Simple_types@U?$pair@U?$pair@V?$point_data@H@polygon@boost@@V123@@std@@U?$pair@HH@2@@std@@@std@@@std@@@std@@@?$scanline@HHV?$vector@HV?$allocator@H@std@@@std@@@polygon@boost@@QEAAXAEAV?$polygon_set_data@H@12@V?$boolean_output_functor@V?$polygon_set_data@H@polygon@boost@@V?$vector@HV?$allocator@H@std@@@std@@$02@?$arbitrary_boolean_op@H@12@V?$_Vector_iterator@V?$_Vector_val@U?$_Simple_types@U?$pair@U?$pair@V?$point_data@H@polygon@boost@@V123@@std@@U?$pair@HH@2@@std@@@std@@@std@@@std@@2@Z 0000000180007790 f i minkowski.obj
 0001:00006990       ??$_Assign_range@PEAU?$pair@HH@std@@@?$vector@U?$pair@HH@std@@V?$allocator@U?$pair@HH@std@@@2@@std@@AEAAXPEAU?$pair@HH@1@0Uforward_iterator_tag@1@@Z 0000000180007990 f i minkowski.obj
 0001:00006b50       ??$_Emplace_reallocate@AEBU?$pair@U?$pair@V?$point_data@H@polygon@boost@@V123@@std@@H@std@@@?$vector@U?$pair@U?$pair@V?$point_data@H@polygon@boost@@V123@@std@@H@std@@V?$allocator@U?$pair@U?$pair@V?$point_data@H@polygon@boost@@V123@@std@@H@std@@@2@@std@@QEAAPEAU?$pair@U?$pair@V?$point_data@H@polygon@boost@@V123@@std@@H@1@QEAU21@AEBU21@@Z 0000000180007b50 f i minkowski.obj
 0001:00006b50       ??$_Emplace_reallocate@U?$pair@U?$pair@V?$point_data@H@polygon@boost@@V123@@std@@H@std@@@?$vector@U?$pair@U?$pair@V?$point_data@H@polygon@boost@@V123@@std@@H@std@@V?$allocator@U?$pair@U?$pair@V?$point_data@H@polygon@boost@@V123@@std@@H@std@@@2@@std@@QEAAPEAU?$pair@U?$pair@V?$point_data@H@polygon@boost@@V123@@std@@H@1@QEAU21@$$QEAU21@@Z 0000000180007b50 f i minkowski.obj
 0001:00006d50       ??$_Destroy_range@V?$allocator@U?$pair@U?$pair@V?$point_data@H@polygon@boost@@V123@@std@@V?$vector@U?$pair@HH@std@@V?$allocator@U?$pair@HH@std@@@2@@2@@std@@@std@@@std@@YAXPEAU?$pair@U?$pair@V?$point_data@H@polygon@boost@@V123@@std@@V?$vector@U?$pair@HH@std@@V?$allocator@U?$pair@HH@std@@@2@@2@@0@0AEAV?$allocator@U?$pair@U?$pair@V?$point_data@H@polygon@boost@@V123@@std@@V?$vector@U?$pair@HH@std@@V?$allocator@U?$pair@HH@std@@@2@@2@@std@@@0@@Z 0000000180007d50 f i minkowski.obj
 0001:00006de0       ??_Gactive_tail_arbitrary@?$polygon_arbitrary_formation@H@polygon@boost@@QEAAPEAXI@Z 0000000180007de0 f i minkowski.obj
 0001:00006f30       ?remove_retired_edges_from_scanline@?$scanline@HHV?$vector@HV?$allocator@H@std@@@std@@@polygon@boost@@QEAAXXZ 0000000180007f30 f i minkowski.obj
 0001:000071e0       ?pushPoint@active_tail_arbitrary@?$polygon_arbitrary_formation@H@polygon@boost@@QEAAXV?$point_data@H@34@@Z 00000001800081e0 f i minkowski.obj
 0001:00007260       ?addHole@active_tail_arbitrary@?$polygon_arbitrary_formation@H@polygon@boost@@QEAAPEAV1234@PEAV1234@@Z 0000000180008260 f i minkowski.obj
 0001:00007300       ?join@active_tail_arbitrary@?$polygon_arbitrary_formation@H@polygon@boost@@QEAA_NPEAV1234@@Z 0000000180008300 f i minkowski.obj
 0001:000074b0       ?on_above_or_below@?$scanline_base@H@polygon@boost@@SAHV?$point_data@H@23@AEBU?$pair@V?$point_data@H@polygon@boost@@V123@@std@@@Z 00000001800084b0 f i minkowski.obj
 0001:00007640       ??_Gpoly_line_arbitrary@?$polygon_arbitrary_formation@H@polygon@boost@@QEAAPEAXI@Z 0000000180008640 f i minkowski.obj
 0001:000076b0       ?copyHoles@active_tail_arbitrary@?$polygon_arbitrary_formation@H@polygon@boost@@QEAAXAEAV1234@@Z 00000001800086b0 f i minkowski.obj
 0001:00007740       ?less_slope@?$scanline_base@H@polygon@boost@@SA_NAEBH0AEBV?$point_data@H@23@1@Z 0000000180008740 f i minkowski.obj
 0001:00007870       ?between@?$scanline_base@H@polygon@boost@@SA_NV?$point_data@H@23@00@Z 0000000180008870 f i minkowski.obj
 0001:000078e0       ?deallocate@?$allocator@U?$pair@Vvertex_half_edge@?$scanline_base@H@polygon@boost@@PEAVactive_tail_arbitrary@?$polygon_arbitrary_formation@H@34@@std@@@std@@QEAAXQEAU?$pair@Vvertex_half_edge@?$scanline_base@H@polygon@boost@@PEAVactive_tail_arbitrary@?$polygon_arbitrary_formation@H@34@@2@_K@Z 00000001800088e0 f i minkowski.obj
 0001:00007930       ?deallocate@?$allocator@PEAVactive_tail_arbitrary@?$polygon_arbitrary_formation@H@polygon@boost@@@std@@QEAAXQEAPEAVactive_tail_arbitrary@?$polygon_arbitrary_formation@H@polygon@boost@@_K@Z 0000000180008930 f i minkowski.obj
 0001:00007930       ?deallocate@?$allocator@V?$_Tree_iterator@V?$_Tree_val@U?$_Tree_simple_types@U?$pair@$$CBVvertex_half_edge@?$scanline_base@H@polygon@boost@@PEAVactive_tail_arbitrary@?$polygon_arbitrary_formation@H@34@@std@@@std@@@std@@@std@@@std@@QEAAXQEAV?$_Tree_iterator@V?$_Tree_val@U?$_Tree_simple_types@U?$pair@$$CBVvertex_half_edge@?$scanline_base@H@polygon@boost@@PEAVactive_tail_arbitrary@?$polygon_arbitrary_formation@H@34@@std@@@std@@@std@@@2@_K@Z 0000000180008930 f i minkowski.obj
 0001:00007980       ?_Change_array@?$vector@U?$pair@V?$point_data@H@polygon@boost@@H@std@@V?$allocator@U?$pair@V?$point_data@H@polygon@boost@@H@std@@@2@@std@@AEAAXQEAU?$pair@V?$point_data@H@polygon@boost@@H@2@_K1@Z 0000000180008980 f i minkowski.obj
 0001:00007a30       ?deallocate@?$allocator@U?$pair@V?$point_data@H@polygon@boost@@H@std@@@std@@QEAAXQEAU?$pair@V?$point_data@H@polygon@boost@@H@2@_K@Z 0000000180008a30 f i minkowski.obj
 0001:00007a80       ??$processPoint_@V?$vector@V?$polygon_with_holes_data@H@polygon@boost@@V?$allocator@V?$polygon_with_holes_data@H@polygon@boost@@@std@@@std@@V?$vector@U?$pair@Vvertex_half_edge@?$scanline_base@H@polygon@boost@@PEAVactive_tail_arbitrary@?$polygon_arbitrary_formation@H@34@@std@@V?$allocator@U?$pair@Vvertex_half_edge@?$scanline_base@H@polygon@boost@@PEAVactive_tail_arbitrary@?$polygon_arbitrary_formation@H@34@@std@@@2@@2@@?$polygon_arbitrary_formation@H@polygon@boost@@IEAA?AU?$pair@U?$pair@V?$point_data@H@polygon@boost@@H@std@@PEAVactive_tail_arbitrary@?$polygon_arbitrary_formation@H@polygon@boost@@@std@@AEAV?$vector@V?$polygon_with_holes_data@H@polygon@boost@@V?$allocator@V?$polygon_with_holes_data@H@polygon@boost@@@std@@@4@AEAV?$vector@U?$pair@Vvertex_half_edge@?$scanline_base@H@polygon@boost@@PEAVactive_tail_arbitrary@?$polygon_arbitrary_formation@H@34@@std@@V?$allocator@U?$pair@Vvertex_half_edge@?$scanline_base@H@polygon@boost@@PEAVactive_tail_arbitrary@?$polygon_arbitrary_formation@H@34@@std@@@2@@4@V?$point_data@H@12@AEAV?$vector@U?$pair@U?$pair@U?$pair@V?$point_data@H@polygon@boost@@V123@@std@@H@std@@PEAVactive_tail_arbitrary@?$polygon_arbitrary_formation@H@polygon@boost@@@std@@V?$allocator@U?$pair@U?$pair@U?$pair@V?$point_data@H@polygon@boost@@V123@@std@@H@std@@PEAVactive_tail_arbitrary@?$polygon_arbitrary_formation@H@polygon@boost@@@std@@@2@@4@AEAV?$vector@U?$pair@V?$point_data@H@polygon@boost@@H@std@@V?$allocator@U?$pair@V?$point_data@H@polygon@boost@@H@std@@@2@@4@@Z 0000000180008a80 f i minkowski.obj
 0001:00008820       ??$_Insert_range@PEBV?$point_data@H@polygon@boost@@@?$vector@V?$point_data@H@polygon@boost@@V?$allocator@V?$point_data@H@polygon@boost@@@std@@@std@@AEAAXV?$_Vector_const_iterator@V?$_Vector_val@U?$_Simple_types@V?$point_data@H@polygon@boost@@@std@@@std@@@1@PEBV?$point_data@H@polygon@boost@@1Uforward_iterator_tag@1@@Z 0000000180009820 f i minkowski.obj
 0001:00008820       ??$_Insert_range@PEAV?$point_data@H@polygon@boost@@@?$vector@V?$point_data@H@polygon@boost@@V?$allocator@V?$point_data@H@polygon@boost@@@std@@@std@@AEAAXV?$_Vector_const_iterator@V?$_Vector_val@U?$_Simple_types@V?$point_data@H@polygon@boost@@@std@@@std@@@1@PEAV?$point_data@H@polygon@boost@@1Uforward_iterator_tag@1@@Z 0000000180009820 f i minkowski.obj
 0001:00008ad0       ??$validate_scan@V?$_Vector_iterator@V?$_Vector_val@U?$_Simple_types@U?$pair@U?$pair@V?$point_data@H@polygon@boost@@V123@@std@@H@std@@@std@@@std@@@std@@@?$line_intersection@H@polygon@boost@@SAXAEAV?$vector@U?$pair@U?$pair@V?$point_data@H@polygon@boost@@V123@@std@@H@std@@V?$allocator@U?$pair@U?$pair@V?$point_data@H@polygon@boost@@V123@@std@@H@std@@@2@@std@@V?$_Vector_iterator@V?$_Vector_val@U?$_Simple_types@U?$pair@U?$pair@V?$point_data@H@polygon@boost@@V123@@std@@H@std@@@std@@@std@@@4@1@Z 0000000180009ad0 f i minkowski.obj
 0001:00008c90       ??$handle_input_events@V?$polygon_set_data@H@polygon@boost@@V?$boolean_output_functor@V?$polygon_set_data@H@polygon@boost@@V?$vector@HV?$allocator@H@std@@@std@@$0A@@?$arbitrary_boolean_op@H@23@V?$_Vector_iterator@V?$_Vector_val@U?$_Simple_types@U?$pair@U?$pair@V?$point_data@H@polygon@boost@@V123@@std@@U?$pair@HH@2@@std@@@std@@@std@@@std@@@?$scanline@HHV?$vector@HV?$allocator@H@std@@@std@@@polygon@boost@@QEAA?AV?$_Vector_iterator@V?$_Vector_val@U?$_Simple_types@U?$pair@U?$pair@V?$point_data@H@polygon@boost@@V123@@std@@U?$pair@HH@2@@std@@@std@@@std@@@std@@AEAV?$polygon_set_data@H@12@V?$boolean_output_functor@V?$polygon_set_data@H@polygon@boost@@V?$vector@HV?$allocator@H@std@@@std@@$0A@@?$arbitrary_boolean_op@H@12@V34@2@Z 0000000180009c90 f i minkowski.obj
 0001:00009a20       ??$handle_input_events@V?$polygon_set_data@H@polygon@boost@@V?$boolean_output_functor@V?$polygon_set_data@H@polygon@boost@@V?$vector@HV?$allocator@H@std@@@std@@$02@?$arbitrary_boolean_op@H@23@V?$_Vector_iterator@V?$_Vector_val@U?$_Simple_types@U?$pair@U?$pair@V?$point_data@H@polygon@boost@@V123@@std@@U?$pair@HH@2@@std@@@std@@@std@@@std@@@?$scanline@HHV?$vector@HV?$allocator@H@std@@@std@@@polygon@boost@@QEAA?AV?$_Vector_iterator@V?$_Vector_val@U?$_Simple_types@U?$pair@U?$pair@V?$point_data@H@polygon@boost@@V123@@std@@U?$pair@HH@2@@std@@@std@@@std@@@std@@AEAV?$polygon_set_data@H@12@V?$boolean_output_functor@V?$polygon_set_data@H@polygon@boost@@V?$vector@HV?$allocator@H@std@@@std@@$02@?$arbitrary_boolean_op@H@12@V34@2@Z 000000018000aa20 f i minkowski.obj
 0001:0000a7c0       ??$_Emplace_reallocate@AEBH@?$vector@HV?$allocator@H@std@@@std@@QEAAPEAHQEAHAEBH@Z 000000018000b7c0 f i minkowski.obj
 0001:0000a920       ??$_Emplace_reallocate@AEBV?$_Tree_iterator@V?$_Tree_val@U?$_Tree_simple_types@U?$pair@$$CBU?$pair@V?$point_data@H@polygon@boost@@V123@@std@@V?$vector@U?$pair@HH@std@@V?$allocator@U?$pair@HH@std@@@2@@2@@std@@@std@@@std@@@std@@@?$vector@V?$_Tree_iterator@V?$_Tree_val@U?$_Tree_simple_types@U?$pair@$$CBU?$pair@V?$point_data@H@polygon@boost@@V123@@std@@V?$vector@U?$pair@HH@std@@V?$allocator@U?$pair@HH@std@@@2@@2@@std@@@std@@@std@@@std@@V?$allocator@V?$_Tree_iterator@V?$_Tree_val@U?$_Tree_simple_types@U?$pair@$$CBU?$pair@V?$point_data@H@polygon@boost@@V123@@std@@V?$vector@U?$pair@HH@std@@V?$allocator@U?$pair@HH@std@@@2@@2@@std@@@std@@@std@@@std@@@2@@std@@QEAAPEAV?$_Tree_iterator@V?$_Tree_val@U?$_Tree_simple_types@U?$pair@$$CBU?$pair@V?$point_data@H@polygon@boost@@V123@@std@@V?$vector@U?$pair@HH@std@@V?$allocator@U?$pair@HH@std@@@2@@2@@std@@@std@@@std@@@1@QEAV21@AEBV21@@Z 000000018000b920 f i minkowski.obj
 0001:0000a920       ??$_Emplace_reallocate@AEBV?$_Tree_iterator@V?$_Tree_val@U?$_Tree_simple_types@U?$pair@$$CBVvertex_half_edge@?$scanline_base@H@polygon@boost@@PEAVactive_tail_arbitrary@?$polygon_arbitrary_formation@H@34@@std@@@std@@@std@@@std@@@?$vector@V?$_Tree_iterator@V?$_Tree_val@U?$_Tree_simple_types@U?$pair@$$CBVvertex_half_edge@?$scanline_base@H@polygon@boost@@PEAVactive_tail_arbitrary@?$polygon_arbitrary_formation@H@34@@std@@@std@@@std@@@std@@V?$allocator@V?$_Tree_iterator@V?$_Tree_val@U?$_Tree_simple_types@U?$pair@$$CBVvertex_half_edge@?$scanline_base@H@polygon@boost@@PEAVactive_tail_arbitrary@?$polygon_arbitrary_formation@H@34@@std@@@std@@@std@@@std@@@2@@std@@QEAAPEAV?$_Tree_iterator@V?$_Tree_val@U?$_Tree_simple_types@U?$pair@$$CBVvertex_half_edge@?$scanline_base@H@polygon@boost@@PEAVactive_tail_arbitrary@?$polygon_arbitrary_formation@H@34@@std@@@std@@@std@@@1@QEAV21@AEBV21@@Z 000000018000b920 f i minkowski.obj
 0001:0000ab50       ??$_Emplace_reallocate@U?$pair@U?$pair@V?$point_data@H@polygon@boost@@V123@@std@@U?$pair@HH@2@@std@@@?$vector@U?$pair@U?$pair@V?$point_data@H@polygon@boost@@V123@@std@@U?$pair@HH@2@@std@@V?$allocator@U?$pair@U?$pair@V?$point_data@H@polygon@boost@@V123@@std@@U?$pair@HH@2@@std@@@2@@std@@QEAAPEAU?$pair@U?$pair@V?$point_data@H@polygon@boost@@V123@@std@@U?$pair@HH@2@@1@QEAU21@$$QEAU21@@Z 000000018000bb50 f i minkowski.obj
 0001:0000ada0       ??$_Emplace_reallocate@U?$pair@U?$pair@U?$pair@V?$point_data@H@polygon@boost@@V123@@std@@H@std@@PEAVactive_tail_arbitrary@?$polygon_arbitrary_formation@H@polygon@boost@@@std@@@?$vector@U?$pair@U?$pair@U?$pair@V?$point_data@H@polygon@boost@@V123@@std@@H@std@@PEAVactive_tail_arbitrary@?$polygon_arbitrary_formation@H@polygon@boost@@@std@@V?$allocator@U?$pair@U?$pair@U?$pair@V?$point_data@H@polygon@boost@@V123@@std@@H@std@@PEAVactive_tail_arbitrary@?$polygon_arbitrary_formation@H@polygon@boost@@@std@@@2@@std@@QEAAPEAU?$pair@U?$pair@U?$pair@V?$point_data@H@polygon@boost@@V123@@std@@H@std@@PEAVactive_tail_arbitrary@?$polygon_arbitrary_formation@H@polygon@boost@@@1@QEAU21@$$QEAU21@@Z 000000018000bda0 f i minkowski.obj
 0001:0000ada0       ??$_Emplace_reallocate@U?$pair@Vvertex_half_edge@?$scanline_base@H@polygon@boost@@PEAVactive_tail_arbitrary@?$polygon_arbitrary_formation@H@34@@std@@@?$vector@U?$pair@Vvertex_half_edge@?$scanline_base@H@polygon@boost@@PEAVactive_tail_arbitrary@?$polygon_arbitrary_formation@H@34@@std@@V?$allocator@U?$pair@Vvertex_half_edge@?$scanline_base@H@polygon@boost@@PEAVactive_tail_arbitrary@?$polygon_arbitrary_formation@H@34@@std@@@2@@std@@QEAAPEAU?$pair@Vvertex_half_edge@?$scanline_base@H@polygon@boost@@PEAVactive_tail_arbitrary@?$polygon_arbitrary_formation@H@34@@1@QEAU21@$$QEAU21@@Z 000000018000bda0 f i minkowski.obj
 0001:0000afa0       ??$_Emplace_reallocate@AEBU?$pair@V?$point_data@H@polygon@boost@@H@std@@@?$vector@U?$pair@V?$point_data@H@polygon@boost@@H@std@@V?$allocator@U?$pair@V?$point_data@H@polygon@boost@@H@std@@@2@@std@@QEAAPEAU?$pair@V?$point_data@H@polygon@boost@@H@1@QEAU21@AEBU21@@Z 000000018000bfa0 f i minkowski.obj
 0001:0000afa0       ??$_Emplace_reallocate@U?$pair@V?$point_data@H@polygon@boost@@H@std@@@?$vector@U?$pair@V?$point_data@H@polygon@boost@@H@std@@V?$allocator@U?$pair@V?$point_data@H@polygon@boost@@H@std@@@2@@std@@QEAAPEAU?$pair@V?$point_data@H@polygon@boost@@H@1@QEAU21@$$QEAU21@@Z 000000018000bfa0 f i minkowski.obj
 0001:0000b1b0       ??$_Insert@AEBV?$point_data@H@polygon@boost@@@?$list@V?$point_data@H@polygon@boost@@V?$allocator@V?$point_data@H@polygon@boost@@@std@@@std@@QEAAXV?$_List_unchecked_const_iterator@V?$_List_val@U?$_List_simple_types@V?$point_data@H@polygon@boost@@@std@@@std@@U_Iterator_base0@2@@1@AEBV?$point_data@H@polygon@boost@@@Z 000000018000c1b0 f i minkowski.obj
 0001:0000b240       ?update_property_map@?$scanline@HHV?$vector@HV?$allocator@H@std@@@std@@@polygon@boost@@SAXAEAV?$vector@U?$pair@HH@std@@V?$allocator@U?$pair@HH@std@@@2@@std@@AEBU?$pair@HH@5@@Z 000000018000c240 f i minkowski.obj
 0001:0000b440       ?merge_property_maps@?$scanline@HHV?$vector@HV?$allocator@H@std@@@std@@@polygon@boost@@SAXAEAV?$vector@U?$pair@HH@std@@V?$allocator@U?$pair@HH@std@@@2@@std@@AEBV45@@Z 000000018000c440 f i minkowski.obj
 0001:0000b6f0       ?_Umove@?$vector@U?$pair@U?$pair@V?$point_data@H@polygon@boost@@V123@@std@@U?$pair@HH@2@@std@@V?$allocator@U?$pair@U?$pair@V?$point_data@H@polygon@boost@@V123@@std@@U?$pair@HH@2@@std@@@2@@std@@AEAAPEAU?$pair@U?$pair@V?$point_data@H@polygon@boost@@V123@@std@@U?$pair@HH@2@@2@PEAU32@00@Z 000000018000c6f0 f i minkowski.obj
 0001:0000b740       ?_Umove@?$vector@U?$pair@U?$pair@U?$pair@V?$point_data@H@polygon@boost@@V123@@std@@H@std@@PEAVactive_tail_arbitrary@?$polygon_arbitrary_formation@H@polygon@boost@@@std@@V?$allocator@U?$pair@U?$pair@U?$pair@V?$point_data@H@polygon@boost@@V123@@std@@H@std@@PEAVactive_tail_arbitrary@?$polygon_arbitrary_formation@H@polygon@boost@@@std@@@2@@std@@AEAAPEAU?$pair@U?$pair@U?$pair@V?$point_data@H@polygon@boost@@V123@@std@@H@std@@PEAVactive_tail_arbitrary@?$polygon_arbitrary_formation@H@polygon@boost@@@2@PEAU32@00@Z 000000018000c740 f i minkowski.obj
 0001:0000b740       ?_Umove@?$vector@U?$pair@Vvertex_half_edge@?$scanline_base@H@polygon@boost@@PEAVactive_tail_arbitrary@?$polygon_arbitrary_formation@H@34@@std@@V?$allocator@U?$pair@Vvertex_half_edge@?$scanline_base@H@polygon@boost@@PEAVactive_tail_arbitrary@?$polygon_arbitrary_formation@H@34@@std@@@2@@std@@AEAAPEAU?$pair@Vvertex_half_edge@?$scanline_base@H@polygon@boost@@PEAVactive_tail_arbitrary@?$polygon_arbitrary_formation@H@34@@2@PEAU32@00@Z 000000018000c740 f i minkowski.obj
 0001:0000b7a0       ?createActiveTailsAsPair@active_tail_arbitrary@?$polygon_arbitrary_formation@H@polygon@boost@@SA?AU?$pair@PEAVactive_tail_arbitrary@?$polygon_arbitrary_formation@H@polygon@boost@@PEAV1234@@std@@V?$point_data@H@34@_NPEAV1234@1@Z 000000018000c7a0 f i minkowski.obj
 0001:0000b910       ?_Change_array@?$vector@HV?$allocator@H@std@@@std@@AEAAXQEAH_K1@Z 000000018000c910 f i minkowski.obj
 0001:0000b9a0       ?reserve@?$vector@HV?$allocator@H@std@@@std@@QEAAX_K@Z 000000018000c9a0 f i minkowski.obj
 0001:0000ba70       ??Rless_vertex_half_edge@?$scanline_base@H@polygon@boost@@QEBA_NAEBVvertex_half_edge@123@0@Z 000000018000ca70 f i minkowski.obj
 0001:0000bca0       ??Rless_half_edge@?$scanline_base@H@polygon@boost@@QEBA_NAEBU?$pair@V?$point_data@H@polygon@boost@@V123@@std@@0@Z 000000018000cca0 f i minkowski.obj
 0001:0000bed0       ??$joinChains@V?$vector@V?$polygon_with_holes_data@H@polygon@boost@@V?$allocator@V?$polygon_with_holes_data@H@polygon@boost@@@std@@@std@@@active_tail_arbitrary@?$polygon_arbitrary_formation@H@polygon@boost@@SAPEAV0123@V?$point_data@H@23@PEAV0123@1_NAEAV?$vector@V?$polygon_with_holes_data@H@polygon@boost@@V?$allocator@V?$polygon_with_holes_data@H@polygon@boost@@@std@@@std@@@Z 000000018000ced0 f i minkowski.obj
 0001:0000c180       ??$validate_scan_divide_and_conquer@V?$_Vector_iterator@V?$_Vector_val@U?$_Simple_types@U?$pair@U?$pair@V?$point_data@H@polygon@boost@@V123@@std@@H@std@@@std@@@std@@@std@@@?$line_intersection@H@polygon@boost@@SAXAEAV?$vector@V?$set@V?$point_data@H@polygon@boost@@U?$less@V?$point_data@H@polygon@boost@@@std@@V?$allocator@V?$point_data@H@polygon@boost@@@5@@std@@V?$allocator@V?$set@V?$point_data@H@polygon@boost@@U?$less@V?$point_data@H@polygon@boost@@@std@@V?$allocator@V?$point_data@H@polygon@boost@@@5@@std@@@2@@std@@V?$_Vector_iterator@V?$_Vector_val@U?$_Simple_types@U?$pair@U?$pair@V?$point_data@H@polygon@boost@@V123@@std@@H@std@@@std@@@std@@@4@1@Z 000000018000d180 f i minkowski.obj
 0001:0000c6d0       ??$segment_intersections@V?$_Vector_iterator@V?$_Vector_val@U?$_Simple_types@U?$pair@U?$pair@V?$point_data@H@polygon@boost@@V123@@std@@H@std@@@std@@@std@@@std@@@?$line_intersection@H@polygon@boost@@SAXAEAV?$vector@U?$pair@U?$pair@V?$point_data@H@polygon@boost@@V123@@std@@H@std@@V?$allocator@U?$pair@U?$pair@V?$point_data@H@polygon@boost@@V123@@std@@H@std@@@2@@std@@AEAV?$vector@V?$set@V?$point_data@H@polygon@boost@@U?$less@V?$point_data@H@polygon@boost@@@std@@V?$allocator@V?$point_data@H@polygon@boost@@@5@@std@@V?$allocator@V?$set@V?$point_data@H@polygon@boost@@U?$less@V?$point_data@H@polygon@boost@@@std@@V?$allocator@V?$point_data@H@polygon@boost@@@5@@std@@@2@@4@V?$_Vector_iterator@V?$_Vector_val@U?$_Simple_types@U?$pair@U?$pair@V?$point_data@H@polygon@boost@@V123@@std@@H@std@@@std@@@std@@@4@2@Z 000000018000d6d0 f i minkowski.obj
 0001:0000cb20       ??$write_out@V?$polygon_set_data@H@polygon@boost@@V?$boolean_output_functor@V?$polygon_set_data@H@polygon@boost@@V?$vector@HV?$allocator@H@std@@@std@@$0A@@?$arbitrary_boolean_op@H@23@@?$scanline@HHV?$vector@HV?$allocator@H@std@@@std@@@polygon@boost@@QEAAXAEAV?$polygon_set_data@H@12@V?$boolean_output_functor@V?$polygon_set_data@H@polygon@boost@@V?$vector@HV?$allocator@H@std@@@std@@$0A@@?$arbitrary_boolean_op@H@12@AEBU?$pair@V?$point_data@H@polygon@boost@@V123@@std@@AEBV?$vector@U?$pair@HH@std@@V?$allocator@U?$pair@HH@std@@@2@@7@3@Z 000000018000db20 f i minkowski.obj
 0001:0000cd50       ??$write_out@V?$polygon_set_data@H@polygon@boost@@V?$boolean_output_functor@V?$polygon_set_data@H@polygon@boost@@V?$vector@HV?$allocator@H@std@@@std@@$02@?$arbitrary_boolean_op@H@23@@?$scanline@HHV?$vector@HV?$allocator@H@std@@@std@@@polygon@boost@@QEAAXAEAV?$polygon_set_data@H@12@V?$boolean_output_functor@V?$polygon_set_data@H@polygon@boost@@V?$vector@HV?$allocator@H@std@@@std@@$02@?$arbitrary_boolean_op@H@12@AEBU?$pair@V?$point_data@H@polygon@boost@@V123@@std@@AEBV?$vector@U?$pair@HH@std@@V?$allocator@U?$pair@HH@std@@@2@@7@3@Z 000000018000dd50 f i minkowski.obj
 0001:0000cfa0       ??$emplace@AEAU?$pair@U?$pair@V?$point_data@H@polygon@boost@@V123@@std@@V?$vector@U?$pair@HH@std@@V?$allocator@U?$pair@HH@std@@@2@@2@@std@@@?$_Tree@V?$_Tmap_traits@U?$pair@V?$point_data@H@polygon@boost@@V123@@std@@V?$vector@U?$pair@HH@std@@V?$allocator@U?$pair@HH@std@@@2@@2@Vless_half_edge@?$scanline_base@H@polygon@boost@@V?$allocator@U?$pair@$$CBU?$pair@V?$point_data@H@polygon@boost@@V123@@std@@V?$vector@U?$pair@HH@std@@V?$allocator@U?$pair@HH@std@@@2@@2@@std@@@2@$0A@@std@@@std@@QEAA?AU?$pair@V?$_Tree_iterator@V?$_Tree_val@U?$_Tree_simple_types@U?$pair@$$CBU?$pair@V?$point_data@H@polygon@boost@@V123@@std@@V?$vector@U?$pair@HH@std@@V?$allocator@U?$pair@HH@std@@@2@@2@@std@@@std@@@std@@@std@@_N@1@AEAU?$pair@U?$pair@V?$point_data@H@polygon@boost@@V123@@std@@V?$vector@U?$pair@HH@std@@V?$allocator@U?$pair@HH@std@@@2@@2@@1@@Z 000000018000dfa0 f i minkowski.obj
 0001:0000d160       ??$_Emplace_reallocate@AEBQEAVactive_tail_arbitrary@?$polygon_arbitrary_formation@H@polygon@boost@@@?$vector@PEAVactive_tail_arbitrary@?$polygon_arbitrary_formation@H@polygon@boost@@V?$allocator@PEAVactive_tail_arbitrary@?$polygon_arbitrary_formation@H@polygon@boost@@@std@@@std@@QEAAPEAPEAVactive_tail_arbitrary@?$polygon_arbitrary_formation@H@polygon@boost@@QEAPEAV2345@AEBQEAV2345@@Z 000000018000e160 f i minkowski.obj
 0001:0000d2c0       ??$_Emplace_reallocate@U?$pair@U?$pair@V?$point_data@H@polygon@boost@@V123@@std@@V?$vector@U?$pair@HH@std@@V?$allocator@U?$pair@HH@std@@@2@@2@@std@@@?$vector@U?$pair@U?$pair@V?$point_data@H@polygon@boost@@V123@@std@@V?$vector@U?$pair@HH@std@@V?$allocator@U?$pair@HH@std@@@2@@2@@std@@V?$allocator@U?$pair@U?$pair@V?$point_data@H@polygon@boost@@V123@@std@@V?$vector@U?$pair@HH@std@@V?$allocator@U?$pair@HH@std@@@2@@2@@std@@@2@@std@@QEAAPEAU?$pair@U?$pair@V?$point_data@H@polygon@boost@@V123@@std@@V?$vector@U?$pair@HH@std@@V?$allocator@U?$pair@HH@std@@@2@@2@@1@QEAU21@$$QEAU21@@Z 000000018000e2c0 f i minkowski.obj
 0001:0000d4c0       ??$_Emplace_reallocate@AEBU?$pair@U?$pair@V?$point_data@H@polygon@boost@@V123@@std@@V?$vector@U?$pair@HH@std@@V?$allocator@U?$pair@HH@std@@@2@@2@@std@@@?$vector@U?$pair@U?$pair@V?$point_data@H@polygon@boost@@V123@@std@@V?$vector@U?$pair@HH@std@@V?$allocator@U?$pair@HH@std@@@2@@2@@std@@V?$allocator@U?$pair@U?$pair@V?$point_data@H@polygon@boost@@V123@@std@@V?$vector@U?$pair@HH@std@@V?$allocator@U?$pair@HH@std@@@2@@2@@std@@@2@@std@@QEAAPEAU?$pair@U?$pair@V?$point_data@H@polygon@boost@@V123@@std@@V?$vector@U?$pair@HH@std@@V?$allocator@U?$pair@HH@std@@@2@@2@@1@QEAU21@AEBU21@@Z 000000018000e4c0 f i minkowski.obj
 0001:0000d6a0       ??$less_slope@H@?$scanline_base@H@polygon@boost@@SA_NHHHH@Z 000000018000e6a0 f i minkowski.obj
 0001:0000d7d0       ??$_Destroy_range@V?$allocator@V?$set@V?$point_data@H@polygon@boost@@U?$less@V?$point_data@H@polygon@boost@@@std@@V?$allocator@V?$point_data@H@polygon@boost@@@5@@std@@@std@@@std@@YAXPEAV?$set@V?$point_data@H@polygon@boost@@U?$less@V?$point_data@H@polygon@boost@@@std@@V?$allocator@V?$point_data@H@polygon@boost@@@5@@0@0AEAV?$allocator@V?$set@V?$point_data@H@polygon@boost@@U?$less@V?$point_data@H@polygon@boost@@@std@@V?$allocator@V?$point_data@H@polygon@boost@@@5@@std@@@0@@Z 000000018000e7d0 f i minkowski.obj
 0001:0000d890       ??A?$map@HV?$vector@U?$pair@U?$pair@V?$point_data@H@polygon@boost@@V123@@std@@H@std@@V?$allocator@U?$pair@U?$pair@V?$point_data@H@polygon@boost@@V123@@std@@H@std@@@2@@std@@U?$less@H@2@V?$allocator@U?$pair@$$CBHV?$vector@U?$pair@U?$pair@V?$point_data@H@polygon@boost@@V123@@std@@H@std@@V?$allocator@U?$pair@U?$pair@V?$point_data@H@polygon@boost@@V123@@std@@H@std@@@2@@std@@@std@@@2@@std@@QEAAAEAV?$vector@U?$pair@U?$pair@V?$point_data@H@polygon@boost@@V123@@std@@H@std@@V?$allocator@U?$pair@U?$pair@V?$point_data@H@polygon@boost@@V123@@std@@H@std@@@2@@1@AEBH@Z 000000018000e890 f i minkowski.obj
 0001:0000d960       ?_Change_array@?$vector@U?$pair@U?$pair@V?$point_data@H@polygon@boost@@V123@@std@@V?$vector@U?$pair@HH@std@@V?$allocator@U?$pair@HH@std@@@2@@2@@std@@V?$allocator@U?$pair@U?$pair@V?$point_data@H@polygon@boost@@V123@@std@@V?$vector@U?$pair@HH@std@@V?$allocator@U?$pair@HH@std@@@2@@2@@std@@@2@@std@@AEAAXQEAU?$pair@U?$pair@V?$point_data@H@polygon@boost@@V123@@std@@V?$vector@U?$pair@HH@std@@V?$allocator@U?$pair@HH@std@@@2@@2@@2@_K1@Z 000000018000e960 f i minkowski.obj
 0001:0000da20       ?_Umove_if_noexcept@?$vector@U?$pair@U?$pair@V?$point_data@H@polygon@boost@@V123@@std@@V?$vector@U?$pair@HH@std@@V?$allocator@U?$pair@HH@std@@@2@@2@@std@@V?$allocator@U?$pair@U?$pair@V?$point_data@H@polygon@boost@@V123@@std@@V?$vector@U?$pair@HH@std@@V?$allocator@U?$pair@HH@std@@@2@@2@@std@@@2@@std@@AEAAXPEAU?$pair@U?$pair@V?$point_data@H@polygon@boost@@V123@@std@@V?$vector@U?$pair@HH@std@@V?$allocator@U?$pair@HH@std@@@2@@2@@2@00@Z 000000018000ea20 f i minkowski.obj
 0001:0000dab0       ?_Umove@?$vector@U?$pair@U?$pair@V?$point_data@H@polygon@boost@@V123@@std@@V?$vector@U?$pair@HH@std@@V?$allocator@U?$pair@HH@std@@@2@@2@@std@@V?$allocator@U?$pair@U?$pair@V?$point_data@H@polygon@boost@@V123@@std@@V?$vector@U?$pair@HH@std@@V?$allocator@U?$pair@HH@std@@@2@@2@@std@@@2@@std@@AEAAPEAU?$pair@U?$pair@V?$point_data@H@polygon@boost@@V123@@std@@V?$vector@U?$pair@HH@std@@V?$allocator@U?$pair@HH@std@@@2@@2@@2@PEAU32@00@Z 000000018000eab0 f i minkowski.obj
 0001:0000db50       ?erase@?$_Tree@V?$_Tmap_traits@HV?$vector@U?$pair@U?$pair@V?$point_data@H@polygon@boost@@V123@@std@@H@std@@V?$allocator@U?$pair@U?$pair@V?$point_data@H@polygon@boost@@V123@@std@@H@std@@@2@@std@@U?$less@H@2@V?$allocator@U?$pair@$$CBHV?$vector@U?$pair@U?$pair@V?$point_data@H@polygon@boost@@V123@@std@@H@std@@V?$allocator@U?$pair@U?$pair@V?$point_data@H@polygon@boost@@V123@@std@@H@std@@@2@@std@@@std@@@2@$0A@@std@@@std@@QEAA?AV?$_Tree_iterator@V?$_Tree_val@U?$_Tree_simple_types@U?$pair@$$CBHV?$vector@U?$pair@U?$pair@V?$point_data@H@polygon@boost@@V123@@std@@H@std@@V?$allocator@U?$pair@U?$pair@V?$point_data@H@polygon@boost@@V123@@std@@H@std@@@2@@std@@@std@@@std@@@std@@@2@V?$_Tree_const_iterator@V?$_Tree_val@U?$_Tree_simple_types@U?$pair@$$CBHV?$vector@U?$pair@U?$pair@V?$point_data@H@polygon@boost@@V123@@std@@H@std@@V?$allocator@U?$pair@U?$pair@V?$point_data@H@polygon@boost@@V123@@std@@H@std@@@2@@std@@@std@@@std@@@std@@@2@0@Z 000000018000eb50 f i minkowski.obj
 0001:0000dcf0       ?_Erase@?$_Tree@V?$_Tmap_traits@HV?$vector@U?$pair@U?$pair@V?$point_data@H@polygon@boost@@V123@@std@@H@std@@V?$allocator@U?$pair@U?$pair@V?$point_data@H@polygon@boost@@V123@@std@@H@std@@@2@@std@@U?$less@H@2@V?$allocator@U?$pair@$$CBHV?$vector@U?$pair@U?$pair@V?$point_data@H@polygon@boost@@V123@@std@@H@std@@V?$allocator@U?$pair@U?$pair@V?$point_data@H@polygon@boost@@V123@@std@@H@std@@@2@@std@@@std@@@2@$0A@@std@@@std@@IEAAXPEAU?$_Tree_node@U?$pair@$$CBHV?$vector@U?$pair@U?$pair@V?$point_data@H@polygon@boost@@V123@@std@@H@std@@V?$allocator@U?$pair@U?$pair@V?$point_data@H@polygon@boost@@V123@@std@@H@std@@@2@@std@@@std@@PEAX@2@@Z 000000018000ecf0 f i minkowski.obj
 0001:0000dd50       ??$_Sort_unchecked@PEAVvertex_half_edge@?$scanline_base@H@polygon@boost@@U?$less@X@std@@@std@@YAXPEAVvertex_half_edge@?$scanline_base@H@polygon@boost@@0_JU?$less@X@0@@Z 000000018000ed50 f i minkowski.obj
 0001:0000dff0       ??$_Insert_hint@AEAU?$pair@$$CBVvertex_half_edge@?$scanline_base@H@polygon@boost@@PEAVactive_tail_arbitrary@?$polygon_arbitrary_formation@H@34@@std@@PEAU?$_Tree_node@U?$pair@$$CBVvertex_half_edge@?$scanline_base@H@polygon@boost@@PEAVactive_tail_arbitrary@?$polygon_arbitrary_formation@H@34@@std@@PEAX@2@@?$_Tree@V?$_Tmap_traits@Vvertex_half_edge@?$scanline_base@H@polygon@boost@@PEAVactive_tail_arbitrary@?$polygon_arbitrary_formation@H@34@Vless_vertex_half_edge@234@V?$allocator@U?$pair@$$CBVvertex_half_edge@?$scanline_base@H@polygon@boost@@PEAVactive_tail_arbitrary@?$polygon_arbitrary_formation@H@34@@std@@@std@@$0A@@std@@@std@@IEAA?AV?$_Tree_iterator@V?$_Tree_val@U?$_Tree_simple_types@U?$pair@$$CBVvertex_half_edge@?$scanline_base@H@polygon@boost@@PEAVactive_tail_arbitrary@?$polygon_arbitrary_formation@H@34@@std@@@std@@@std@@@1@V?$_Tree_const_iterator@V?$_Tree_val@U?$_Tree_simple_types@U?$pair@$$CBVvertex_half_edge@?$scanline_base@H@polygon@boost@@PEAVactive_tail_arbitrary@?$polygon_arbitrary_formation@H@34@@std@@@std@@@std@@@1@AEAU?$pair@$$CBVvertex_half_edge@?$scanline_base@H@polygon@boost@@PEAVactive_tail_arbitrary@?$polygon_arbitrary_formation@H@34@@1@PEAU?$_Tree_node@U?$pair@$$CBVvertex_half_edge@?$scanline_base@H@polygon@boost@@PEAVactive_tail_arbitrary@?$polygon_arbitrary_formation@H@34@@std@@PEAX@1@@Z 000000018000eff0 f i minkowski.obj
 0001:0000e390       ??$compute_histogram_in_y@V?$_Vector_iterator@V?$_Vector_val@U?$_Simple_types@U?$pair@U?$pair@V?$point_data@H@polygon@boost@@V123@@std@@H@std@@@std@@@std@@@std@@@?$line_intersection@H@polygon@boost@@SAXV?$_Vector_iterator@V?$_Vector_val@U?$_Simple_types@U?$pair@U?$pair@V?$point_data@H@polygon@boost@@V123@@std@@H@std@@@std@@@std@@@std@@0_KAEAV?$vector@U?$pair@HU?$pair@_K_K@std@@@std@@V?$allocator@U?$pair@HU?$pair@_K_K@std@@@std@@@2@@4@@Z 000000018000f390 f i minkowski.obj
 0001:0000e6d0       ??$compute_y_cuts@V?$_Vector_iterator@V?$_Vector_val@U?$_Simple_types@U?$pair@HU?$pair@_K_K@std@@@std@@@std@@@std@@@std@@@?$line_intersection@H@polygon@boost@@SAXAEAV?$vector@HV?$allocator@H@std@@@std@@V?$_Vector_iterator@V?$_Vector_val@U?$_Simple_types@U?$pair@HU?$pair@_K_K@std@@@std@@@std@@@std@@@4@1_K@Z 000000018000f6d0 f i minkowski.obj
 0001:0000e820       ??$validate_scan@V?$_Vector_iterator@V?$_Vector_val@U?$_Simple_types@U?$pair@U?$pair@V?$point_data@H@polygon@boost@@V123@@std@@H@std@@@std@@@std@@@std@@@?$line_intersection@H@polygon@boost@@SAXAEAV?$vector@V?$set@V?$point_data@H@polygon@boost@@U?$less@V?$point_data@H@polygon@boost@@@std@@V?$allocator@V?$point_data@H@polygon@boost@@@5@@std@@V?$allocator@V?$set@V?$point_data@H@polygon@boost@@U?$less@V?$point_data@H@polygon@boost@@@std@@V?$allocator@V?$point_data@H@polygon@boost@@@5@@std@@@2@@std@@V?$_Vector_iterator@V?$_Vector_val@U?$_Simple_types@U?$pair@U?$pair@V?$point_data@H@polygon@boost@@V123@@std@@H@std@@@std@@@std@@@4@1H@Z 000000018000f820 f i minkowski.obj
 0001:0000f200       ??$_Sort_unchecked@PEAU?$pair@U?$pair@V?$point_data@H@polygon@boost@@V123@@std@@U?$pair@HH@2@@std@@V?$less_vertex_data@U?$pair@U?$pair@V?$point_data@H@polygon@boost@@V123@@std@@U?$pair@HH@2@@std@@@?$arbitrary_boolean_op@H@polygon@boost@@@std@@YAXPEAU?$pair@U?$pair@V?$point_data@H@polygon@boost@@V123@@std@@U?$pair@HH@2@@0@0_JV?$less_vertex_data@U?$pair@U?$pair@V?$point_data@H@polygon@boost@@V123@@std@@U?$pair@HH@2@@std@@@?$arbitrary_boolean_op@H@polygon@boost@@@Z 0000000180010200 f i minkowski.obj
 0001:0000f4b0       ??$_Insert_at@AEBV?$point_data@H@polygon@boost@@U_Not_a_node_tag@std@@@?$_Tree@V?$_Tset_traits@V?$point_data@H@polygon@boost@@Vless_point@?$scanline_base@H@23@V?$allocator@V?$point_data@H@polygon@boost@@@std@@$0A@@std@@@std@@IEAA?AV?$_Tree_const_iterator@V?$_Tree_val@U?$_Tree_simple_types@V?$point_data@H@polygon@boost@@@std@@@std@@@1@_NPEAU?$_Tree_node@V?$point_data@H@polygon@boost@@PEAX@1@AEBV?$point_data@H@polygon@boost@@U_Not_a_node_tag@1@@Z 00000001800104b0 f i minkowski.obj
 0001:0000f4b0       ??$_Insert_at@AEBV?$point_data@H@polygon@boost@@U_Not_a_node_tag@std@@@?$_Tree@V?$_Tset_traits@V?$point_data@H@polygon@boost@@U?$less@V?$point_data@H@polygon@boost@@@std@@V?$allocator@V?$point_data@H@polygon@boost@@@5@$0A@@std@@@std@@IEAA?AV?$_Tree_const_iterator@V?$_Tree_val@U?$_Tree_simple_types@V?$point_data@H@polygon@boost@@@std@@@std@@@1@_NPEAU?$_Tree_node@V?$point_data@H@polygon@boost@@PEAX@1@AEBV?$point_data@H@polygon@boost@@U_Not_a_node_tag@1@@Z 00000001800104b0 f i minkowski.obj
 0001:0000f7a0       ??$_Emplace_reallocate@V?$polygon_with_holes_data@H@polygon@boost@@@?$vector@V?$polygon_with_holes_data@H@polygon@boost@@V?$allocator@V?$polygon_with_holes_data@H@polygon@boost@@@std@@@std@@QEAAPEAV?$polygon_with_holes_data@H@polygon@boost@@QEAV234@$$QEAV234@@Z 00000001800107a0 f i minkowski.obj
 0001:0000f9f0       ?_Destroy_if_node@?$_Tree@V?$_Tmap_traits@U?$pair@V?$point_data@H@polygon@boost@@V123@@std@@V?$vector@U?$pair@HH@std@@V?$allocator@U?$pair@HH@std@@@2@@2@Vless_half_edge@?$scanline_base@H@polygon@boost@@V?$allocator@U?$pair@$$CBU?$pair@V?$point_data@H@polygon@boost@@V123@@std@@V?$vector@U?$pair@HH@std@@V?$allocator@U?$pair@HH@std@@@2@@2@@std@@@2@$0A@@std@@@std@@IEAAXPEAU?$_Tree_node@U?$pair@$$CBU?$pair@V?$point_data@H@polygon@boost@@V123@@std@@V?$vector@U?$pair@HH@std@@V?$allocator@U?$pair@HH@std@@@2@@2@@std@@PEAX@2@@Z 00000001800109f0 f i minkowski.obj
 0001:0000fa60       ?_Destroy_if_node@?$_Tree@V?$_Tmap_traits@Vvertex_half_edge@?$scanline_base@H@polygon@boost@@PEAVactive_tail_arbitrary@?$polygon_arbitrary_formation@H@34@Vless_vertex_half_edge@234@V?$allocator@U?$pair@$$CBVvertex_half_edge@?$scanline_base@H@polygon@boost@@PEAVactive_tail_arbitrary@?$polygon_arbitrary_formation@H@34@@std@@@std@@$0A@@std@@@std@@IEAAXPEAU?$_Tree_node@U?$pair@$$CBVvertex_half_edge@?$scanline_base@H@polygon@boost@@PEAVactive_tail_arbitrary@?$polygon_arbitrary_formation@H@34@@std@@PEAX@2@@Z 0000000180010a60 f i minkowski.obj
 0001:0000fa70       ?intersects_grid@?$scanline_base@H@polygon@boost@@SA_NV?$point_data@H@23@AEBU?$pair@V?$point_data@H@polygon@boost@@V123@@std@@@Z 0000000180010a70 f i minkowski.obj
 0001:0000fcd0       ?_Umove@?$vector@V?$polygon_with_holes_data@H@polygon@boost@@V?$allocator@V?$polygon_with_holes_data@H@polygon@boost@@@std@@@std@@AEAAPEAV?$polygon_with_holes_data@H@polygon@boost@@PEAV345@00@Z 0000000180010cd0 f i minkowski.obj
 0001:0000fd20       ?compute_exact_intersection@compute_intersection_pack@?$scanline_base@H@polygon@boost@@QEAA_NAEAV?$point_data@H@34@AEBU?$pair@V?$point_data@H@polygon@boost@@V123@@std@@1_N2@Z 0000000180010d20 f i minkowski.obj
 0001:00010130       ?compute_lazy_intersection@compute_intersection_pack@?$scanline_base@H@polygon@boost@@SA_NAEAV?$point_data@H@34@AEBU?$pair@V?$point_data@H@polygon@boost@@V123@@std@@1_N2@Z 0000000180011130 f i minkowski.obj
 0001:00010540       ?intersects@?$scanline_base@H@polygon@boost@@SA_NAEBU?$pair@V?$point_data@H@polygon@boost@@V123@@std@@0@Z 0000000180011540 f i minkowski.obj
 0001:00010a80       ?_Change_array@?$vector@U?$pair@HU?$pair@_K_K@std@@@std@@V?$allocator@U?$pair@HU?$pair@_K_K@std@@@std@@@2@@std@@AEAAXQEAU?$pair@HU?$pair@_K_K@std@@@2@_K1@Z 0000000180011a80 f i minkowski.obj
 0001:00010b30       ??$_Partition_by_median_guess_unchecked@PEAVvertex_half_edge@?$scanline_base@H@polygon@boost@@U?$less@X@std@@@std@@YA?AU?$pair@PEAVvertex_half_edge@?$scanline_base@H@polygon@boost@@PEAV1234@@0@PEAVvertex_half_edge@?$scanline_base@H@polygon@boost@@0U?$less@X@0@@Z 0000000180011b30 f i minkowski.obj
 0001:00011910       ??$_Insertion_sort_unchecked@PEAVvertex_half_edge@?$scanline_base@H@polygon@boost@@U?$less@X@std@@@std@@YAPEAVvertex_half_edge@?$scanline_base@H@polygon@boost@@PEAV1234@QEAV1234@U?$less@X@0@@Z 0000000180012910 f i minkowski.obj
 0001:00011c80       ??$_Insert_at@AEAU?$pair@$$CBVvertex_half_edge@?$scanline_base@H@polygon@boost@@PEAVactive_tail_arbitrary@?$polygon_arbitrary_formation@H@34@@std@@PEAU?$_Tree_node@U?$pair@$$CBVvertex_half_edge@?$scanline_base@H@polygon@boost@@PEAVactive_tail_arbitrary@?$polygon_arbitrary_formation@H@34@@std@@PEAX@2@@?$_Tree@V?$_Tmap_traits@Vvertex_half_edge@?$scanline_base@H@polygon@boost@@PEAVactive_tail_arbitrary@?$polygon_arbitrary_formation@H@34@Vless_vertex_half_edge@234@V?$allocator@U?$pair@$$CBVvertex_half_edge@?$scanline_base@H@polygon@boost@@PEAVactive_tail_arbitrary@?$polygon_arbitrary_formation@H@34@@std@@@std@@$0A@@std@@@std@@IEAA?AV?$_Tree_iterator@V?$_Tree_val@U?$_Tree_simple_types@U?$pair@$$CBVvertex_half_edge@?$scanline_base@H@polygon@boost@@PEAVactive_tail_arbitrary@?$polygon_arbitrary_formation@H@34@@std@@@std@@@std@@@1@_NPEAU?$_Tree_node@U?$pair@$$CBVvertex_half_edge@?$scanline_base@H@polygon@boost@@PEAVactive_tail_arbitrary@?$polygon_arbitrary_formation@H@34@@std@@PEAX@1@AEAU?$pair@$$CBVvertex_half_edge@?$scanline_base@H@polygon@boost@@PEAVactive_tail_arbitrary@?$polygon_arbitrary_formation@H@34@@1@1@Z 0000000180012c80 f i minkowski.obj
 0001:00011f30       ??$_Insert_range@V?$_Tree_unchecked_const_iterator@V?$_Tree_val@U?$_Tree_simple_types@V?$point_data@H@polygon@boost@@@std@@@std@@U_Iterator_base0@2@@std@@@?$vector@V?$point_data@H@polygon@boost@@V?$allocator@V?$point_data@H@polygon@boost@@@std@@@std@@AEAAXV?$_Vector_const_iterator@V?$_Vector_val@U?$_Simple_types@V?$point_data@H@polygon@boost@@@std@@@std@@@1@V?$_Tree_unchecked_const_iterator@V?$_Tree_val@U?$_Tree_simple_types@V?$point_data@H@polygon@boost@@@std@@@std@@U_Iterator_base0@2@@1@1Uforward_iterator_tag@1@@Z 0000000180012f30 f i minkowski.obj
 0001:00012230       ??$_Partition_by_median_guess_unchecked@PEAU?$pair@U?$pair@V?$point_data@H@polygon@boost@@V123@@std@@U?$pair@HH@2@@std@@V?$less_vertex_data@U?$pair@U?$pair@V?$point_data@H@polygon@boost@@V123@@std@@U?$pair@HH@2@@std@@@?$arbitrary_boolean_op@H@polygon@boost@@@std@@YA?AU?$pair@PEAU?$pair@U?$pair@V?$point_data@H@polygon@boost@@V123@@std@@U?$pair@HH@2@@std@@PEAU12@@0@PEAU?$pair@U?$pair@V?$point_data@H@polygon@boost@@V123@@std@@U?$pair@HH@2@@0@0V?$less_vertex_data@U?$pair@U?$pair@V?$point_data@H@polygon@boost@@V123@@std@@U?$pair@HH@2@@std@@@?$arbitrary_boolean_op@H@polygon@boost@@@Z 0000000180013230 f i minkowski.obj
 0001:000129b0       ??$_Insertion_sort_unchecked@PEAU?$pair@U?$pair@V?$point_data@H@polygon@boost@@V123@@std@@U?$pair@HH@2@@std@@V?$less_vertex_data@U?$pair@U?$pair@V?$point_data@H@polygon@boost@@V123@@std@@U?$pair@HH@2@@std@@@?$arbitrary_boolean_op@H@polygon@boost@@@std@@YAPEAU?$pair@U?$pair@V?$point_data@H@polygon@boost@@V123@@std@@U?$pair@HH@2@@0@PEAU10@QEAU10@V?$less_vertex_data@U?$pair@U?$pair@V?$point_data@H@polygon@boost@@V123@@std@@U?$pair@HH@2@@std@@@?$arbitrary_boolean_op@H@polygon@boost@@@Z 00000001800139b0 f i minkowski.obj
 0001:00012c00       ??$_Sort_unchecked@PEAU?$pair@U?$pair@V?$point_data@H@polygon@boost@@V123@@std@@H@std@@U?$less@X@2@@std@@YAXPEAU?$pair@U?$pair@V?$point_data@H@polygon@boost@@V123@@std@@H@0@0_JU?$less@X@0@@Z 0000000180013c00 f i minkowski.obj
 0001:00012e30       ??$_Insert_at@AEAU?$pair@$$CBU?$pair@V?$point_data@H@polygon@boost@@V123@@std@@V?$vector@U?$pair@HH@std@@V?$allocator@U?$pair@HH@std@@@2@@2@@std@@PEAU?$_Tree_node@U?$pair@$$CBU?$pair@V?$point_data@H@polygon@boost@@V123@@std@@V?$vector@U?$pair@HH@std@@V?$allocator@U?$pair@HH@std@@@2@@2@@std@@PEAX@2@@?$_Tree@V?$_Tmap_traits@U?$pair@V?$point_data@H@polygon@boost@@V123@@std@@V?$vector@U?$pair@HH@std@@V?$allocator@U?$pair@HH@std@@@2@@2@Vless_half_edge@?$scanline_base@H@polygon@boost@@V?$allocator@U?$pair@$$CBU?$pair@V?$point_data@H@polygon@boost@@V123@@std@@V?$vector@U?$pair@HH@std@@V?$allocator@U?$pair@HH@std@@@2@@2@@std@@@2@$0A@@std@@@std@@IEAA?AV?$_Tree_iterator@V?$_Tree_val@U?$_Tree_simple_types@U?$pair@$$CBU?$pair@V?$point_data@H@polygon@boost@@V123@@std@@V?$vector@U?$pair@HH@std@@V?$allocator@U?$pair@HH@std@@@2@@2@@std@@@std@@@std@@@1@_NPEAU?$_Tree_node@U?$pair@$$CBU?$pair@V?$point_data@H@polygon@boost@@V123@@std@@V?$vector@U?$pair@HH@std@@V?$allocator@U?$pair@HH@std@@@2@@2@@std@@PEAX@1@AEAU?$pair@$$CBU?$pair@V?$point_data@H@polygon@boost@@V123@@std@@V?$vector@U?$pair@HH@std@@V?$allocator@U?$pair@HH@std@@@2@@2@@1@1@Z 0000000180013e30 f i minkowski.obj
 0001:000130e0       ??$_Sort_unchecked@PEAU?$pair@U?$pair@U?$pair@V?$point_data@H@polygon@boost@@V123@@std@@H@std@@PEAVactive_tail_arbitrary@?$polygon_arbitrary_formation@H@polygon@boost@@@std@@U?$_Ref_fn@Vless_incoming_count@?$polygon_arbitrary_formation@H@polygon@boost@@@2@@std@@YAXPEAU?$pair@U?$pair@U?$pair@V?$point_data@H@polygon@boost@@V123@@std@@H@std@@PEAVactive_tail_arbitrary@?$polygon_arbitrary_formation@H@polygon@boost@@@0@0_JU?$_Ref_fn@Vless_incoming_count@?$polygon_arbitrary_formation@H@polygon@boost@@@0@@Z 00000001800140e0 f i minkowski.obj
 0001:000132a0       ??$_Sort_unchecked@PEAU?$pair@V?$point_data@H@polygon@boost@@H@std@@U?$_Ref_fn@Vless_half_edge_count@?$polygon_arbitrary_formation@H@polygon@boost@@@2@@std@@YAXPEAU?$pair@V?$point_data@H@polygon@boost@@H@0@0_JU?$_Ref_fn@Vless_half_edge_count@?$polygon_arbitrary_formation@H@polygon@boost@@@0@@Z 00000001800142a0 f i minkowski.obj
 0001:000134a0       ??$_Emplace_reallocate@U?$pair@HU?$pair@_K_K@std@@@std@@@?$vector@U?$pair@HU?$pair@_K_K@std@@@std@@V?$allocator@U?$pair@HU?$pair@_K_K@std@@@std@@@2@@std@@QEAAPEAU?$pair@HU?$pair@_K_K@std@@@1@QEAU21@$$QEAU21@@Z 00000001800144a0 f i minkowski.obj
 0001:000136b0       ??$_Pop_heap_hole_by_index@PEAVvertex_half_edge@?$scanline_base@H@polygon@boost@@V1234@U?$less@X@std@@@std@@YAXPEAVvertex_half_edge@?$scanline_base@H@polygon@boost@@_J1$$QEAV1234@U?$less@X@0@@Z 00000001800146b0 f i minkowski.obj
 0001:000139e0       ??$_Insert_nohint@AEBV?$point_data@H@polygon@boost@@U_Not_a_node_tag@std@@@?$_Tree@V?$_Tset_traits@V?$point_data@H@polygon@boost@@U?$less@V?$point_data@H@polygon@boost@@@std@@V?$allocator@V?$point_data@H@polygon@boost@@@5@$0A@@std@@@std@@IEAA?AU?$pair@V?$_Tree_const_iterator@V?$_Tree_val@U?$_Tree_simple_types@V?$point_data@H@polygon@boost@@@std@@@std@@@std@@_N@1@_NAEBV?$point_data@H@polygon@boost@@U_Not_a_node_tag@1@@Z 00000001800149e0 f i minkowski.obj
 0001:00013b20       ??$_Ucopy@V?$_Tree_unchecked_const_iterator@V?$_Tree_val@U?$_Tree_simple_types@V?$point_data@H@polygon@boost@@@std@@@std@@U_Iterator_base0@2@@std@@@?$vector@V?$point_data@H@polygon@boost@@V?$allocator@V?$point_data@H@polygon@boost@@@std@@@std@@AEAAPEAV?$point_data@H@polygon@boost@@V?$_Tree_unchecked_const_iterator@V?$_Tree_val@U?$_Tree_simple_types@V?$point_data@H@polygon@boost@@@std@@@std@@U_Iterator_base0@2@@1@0PEAV234@@Z 0000000180014b20 f i minkowski.obj
 0001:00013ba0       ??$_Pop_heap_hole_by_index@PEAU?$pair@U?$pair@V?$point_data@H@polygon@boost@@V123@@std@@U?$pair@HH@2@@std@@U12@V?$less_vertex_data@U?$pair@U?$pair@V?$point_data@H@polygon@boost@@V123@@std@@U?$pair@HH@2@@std@@@?$arbitrary_boolean_op@H@polygon@boost@@@std@@YAXPEAU?$pair@U?$pair@V?$point_data@H@polygon@boost@@V123@@std@@U?$pair@HH@2@@0@_J1$$QEAU10@V?$less_vertex_data@U?$pair@U?$pair@V?$point_data@H@polygon@boost@@V123@@std@@U?$pair@HH@2@@std@@@?$arbitrary_boolean_op@H@polygon@boost@@@Z 0000000180014ba0 f i minkowski.obj
 0001:00013e20       ??$_Partition_by_median_guess_unchecked@PEAU?$pair@U?$pair@V?$point_data@H@polygon@boost@@V123@@std@@H@std@@U?$less@X@2@@std@@YA?AU?$pair@PEAU?$pair@U?$pair@V?$point_data@H@polygon@boost@@V123@@std@@H@std@@PEAU12@@0@PEAU?$pair@U?$pair@V?$point_data@H@polygon@boost@@V123@@std@@H@0@0U?$less@X@0@@Z 0000000180014e20 f i minkowski.obj
 0001:000145d0       ??$_Make_heap_unchecked@PEAU?$pair@U?$pair@V?$point_data@H@polygon@boost@@V123@@std@@H@std@@U?$less@X@2@@std@@YAXPEAU?$pair@U?$pair@V?$point_data@H@polygon@boost@@V123@@std@@H@0@0U?$less@X@0@@Z 00000001800155d0 f i minkowski.obj
 0001:000147e0       ??$_Insertion_sort_unchecked@PEAU?$pair@U?$pair@V?$point_data@H@polygon@boost@@V123@@std@@H@std@@U?$less@X@2@@std@@YAPEAU?$pair@U?$pair@V?$point_data@H@polygon@boost@@V123@@std@@H@0@PEAU10@QEAU10@U?$less@X@0@@Z 00000001800157e0 f i minkowski.obj
 0001:000149e0       ??$_Partition_by_median_guess_unchecked@PEAU?$pair@U?$pair@U?$pair@V?$point_data@H@polygon@boost@@V123@@std@@H@std@@PEAVactive_tail_arbitrary@?$polygon_arbitrary_formation@H@polygon@boost@@@std@@U?$_Ref_fn@Vless_incoming_count@?$polygon_arbitrary_formation@H@polygon@boost@@@2@@std@@YA?AU?$pair@PEAU?$pair@U?$pair@U?$pair@V?$point_data@H@polygon@boost@@V123@@std@@H@std@@PEAVactive_tail_arbitrary@?$polygon_arbitrary_formation@H@polygon@boost@@@std@@PEAU12@@0@PEAU?$pair@U?$pair@U?$pair@V?$point_data@H@polygon@boost@@V123@@std@@H@std@@PEAVactive_tail_arbitrary@?$polygon_arbitrary_formation@H@polygon@boost@@@0@0U?$_Ref_fn@Vless_incoming_count@?$polygon_arbitrary_formation@H@polygon@boost@@@0@@Z 00000001800159e0 f i minkowski.obj
 0001:00014f50       ??$_Make_heap_unchecked@PEAU?$pair@U?$pair@U?$pair@V?$point_data@H@polygon@boost@@V123@@std@@H@std@@PEAVactive_tail_arbitrary@?$polygon_arbitrary_formation@H@polygon@boost@@@std@@U?$_Ref_fn@Vless_incoming_count@?$polygon_arbitrary_formation@H@polygon@boost@@@2@@std@@YAXPEAU?$pair@U?$pair@U?$pair@V?$point_data@H@polygon@boost@@V123@@std@@H@std@@PEAVactive_tail_arbitrary@?$polygon_arbitrary_formation@H@polygon@boost@@@0@0U?$_Ref_fn@Vless_incoming_count@?$polygon_arbitrary_formation@H@polygon@boost@@@0@@Z 0000000180015f50 f i minkowski.obj
 0001:00015200       ??$_Insertion_sort_unchecked@PEAU?$pair@U?$pair@U?$pair@V?$point_data@H@polygon@boost@@V123@@std@@H@std@@PEAVactive_tail_arbitrary@?$polygon_arbitrary_formation@H@polygon@boost@@@std@@U?$_Ref_fn@Vless_incoming_count@?$polygon_arbitrary_formation@H@polygon@boost@@@2@@std@@YAPEAU?$pair@U?$pair@U?$pair@V?$point_data@H@polygon@boost@@V123@@std@@H@std@@PEAVactive_tail_arbitrary@?$polygon_arbitrary_formation@H@polygon@boost@@@0@PEAU10@QEAU10@U?$_Ref_fn@Vless_incoming_count@?$polygon_arbitrary_formation@H@polygon@boost@@@0@@Z 0000000180016200 f i minkowski.obj
 0001:00015450       ??$_Partition_by_median_guess_unchecked@PEAU?$pair@V?$point_data@H@polygon@boost@@H@std@@U?$_Ref_fn@Vless_half_edge_count@?$polygon_arbitrary_formation@H@polygon@boost@@@2@@std@@YA?AU?$pair@PEAU?$pair@V?$point_data@H@polygon@boost@@H@std@@PEAU12@@0@PEAU?$pair@V?$point_data@H@polygon@boost@@H@0@0U?$_Ref_fn@Vless_half_edge_count@?$polygon_arbitrary_formation@H@polygon@boost@@@0@@Z 0000000180016450 f i minkowski.obj
 0001:000160e0       ??$?RAEAU?$pair@V?$point_data@H@polygon@boost@@H@std@@AEAU01@@?$_Ref_fn@Vless_half_edge_count@?$polygon_arbitrary_formation@H@polygon@boost@@@std@@QEAA_NAEAU?$pair@V?$point_data@H@polygon@boost@@H@1@0@Z 00000001800170e0 f i minkowski.obj
 0001:00016210       ??$_Make_heap_unchecked@PEAU?$pair@V?$point_data@H@polygon@boost@@H@std@@U?$_Ref_fn@Vless_half_edge_count@?$polygon_arbitrary_formation@H@polygon@boost@@@2@@std@@YAXPEAU?$pair@V?$point_data@H@polygon@boost@@H@0@0U?$_Ref_fn@Vless_half_edge_count@?$polygon_arbitrary_formation@H@polygon@boost@@@0@@Z 0000000180017210 f i minkowski.obj
 0001:000164f0       ??$_Insertion_sort_unchecked@PEAU?$pair@V?$point_data@H@polygon@boost@@H@std@@U?$_Ref_fn@Vless_half_edge_count@?$polygon_arbitrary_formation@H@polygon@boost@@@2@@std@@YAPEAU?$pair@V?$point_data@H@polygon@boost@@H@0@PEAU10@QEAU10@U?$_Ref_fn@Vless_half_edge_count@?$polygon_arbitrary_formation@H@polygon@boost@@@0@@Z 00000001800174f0 f i minkowski.obj
 0001:00016840       ??$_Med3_unchecked@PEAVvertex_half_edge@?$scanline_base@H@polygon@boost@@U?$less@X@std@@@std@@YAXPEAVvertex_half_edge@?$scanline_base@H@polygon@boost@@00U?$less@X@0@@Z 0000000180017840 f i minkowski.obj
 0001:000169f0       ??$_Sort_unchecked@PEAV?$point_data@H@polygon@boost@@Vless_point_down_slope@?$line_intersection@H@23@@std@@YAXPEAV?$point_data@H@polygon@boost@@0_JVless_point_down_slope@?$line_intersection@H@23@@Z 00000001800179f0 f i minkowski.obj
 0001:00016ba0       ??$_Med3_unchecked@PEAU?$pair@U?$pair@V?$point_data@H@polygon@boost@@V123@@std@@U?$pair@HH@2@@std@@V?$less_vertex_data@U?$pair@U?$pair@V?$point_data@H@polygon@boost@@V123@@std@@U?$pair@HH@2@@std@@@?$arbitrary_boolean_op@H@polygon@boost@@@std@@YAXPEAU?$pair@U?$pair@V?$point_data@H@polygon@boost@@V123@@std@@U?$pair@HH@2@@0@00V?$less_vertex_data@U?$pair@U?$pair@V?$point_data@H@polygon@boost@@V123@@std@@U?$pair@HH@2@@std@@@?$arbitrary_boolean_op@H@polygon@boost@@@Z 0000000180017ba0 f i minkowski.obj
 0001:00016df0       ??$_Pop_heap_hole_by_index@PEAU?$pair@U?$pair@V?$point_data@H@polygon@boost@@V123@@std@@H@std@@U12@U?$less@X@2@@std@@YAXPEAU?$pair@U?$pair@V?$point_data@H@polygon@boost@@V123@@std@@H@0@_J1$$QEAU10@U?$less@X@0@@Z 0000000180017df0 f i minkowski.obj
 0001:00016f60       ??$_Pop_heap_hole_by_index@PEAU?$pair@U?$pair@U?$pair@V?$point_data@H@polygon@boost@@V123@@std@@H@std@@PEAVactive_tail_arbitrary@?$polygon_arbitrary_formation@H@polygon@boost@@@std@@U12@U?$_Ref_fn@Vless_incoming_count@?$polygon_arbitrary_formation@H@polygon@boost@@@2@@std@@YAXPEAU?$pair@U?$pair@U?$pair@V?$point_data@H@polygon@boost@@V123@@std@@H@std@@PEAVactive_tail_arbitrary@?$polygon_arbitrary_formation@H@polygon@boost@@@0@_J1$$QEAU10@U?$_Ref_fn@Vless_incoming_count@?$polygon_arbitrary_formation@H@polygon@boost@@@0@@Z 0000000180017f60 f i minkowski.obj
 0001:00017130       ??$_Pop_heap_hole_by_index@PEAU?$pair@V?$point_data@H@polygon@boost@@H@std@@U12@U?$_Ref_fn@Vless_half_edge_count@?$polygon_arbitrary_formation@H@polygon@boost@@@2@@std@@YAXPEAU?$pair@V?$point_data@H@polygon@boost@@H@0@_J1$$QEAU10@U?$_Ref_fn@Vless_half_edge_count@?$polygon_arbitrary_formation@H@polygon@boost@@@0@@Z 0000000180018130 f i minkowski.obj
 0001:00017370       ??$_Insert_hint@AEAU?$pair@$$CBHV?$vector@U?$pair@U?$pair@V?$point_data@H@polygon@boost@@V123@@std@@H@std@@V?$allocator@U?$pair@U?$pair@V?$point_data@H@polygon@boost@@V123@@std@@H@std@@@2@@std@@@std@@PEAU?$_Tree_node@U?$pair@$$CBHV?$vector@U?$pair@U?$pair@V?$point_data@H@polygon@boost@@V123@@std@@H@std@@V?$allocator@U?$pair@U?$pair@V?$point_data@H@polygon@boost@@V123@@std@@H@std@@@2@@std@@@std@@PEAX@2@@?$_Tree@V?$_Tmap_traits@HV?$vector@U?$pair@U?$pair@V?$point_data@H@polygon@boost@@V123@@std@@H@std@@V?$allocator@U?$pair@U?$pair@V?$point_data@H@polygon@boost@@V123@@std@@H@std@@@2@@std@@U?$less@H@2@V?$allocator@U?$pair@$$CBHV?$vector@U?$pair@U?$pair@V?$point_data@H@polygon@boost@@V123@@std@@H@std@@V?$allocator@U?$pair@U?$pair@V?$point_data@H@polygon@boost@@V123@@std@@H@std@@@2@@std@@@std@@@2@$0A@@std@@@std@@IEAA?AV?$_Tree_iterator@V?$_Tree_val@U?$_Tree_simple_types@U?$pair@$$CBHV?$vector@U?$pair@U?$pair@V?$point_data@H@polygon@boost@@V123@@std@@H@std@@V?$allocator@U?$pair@U?$pair@V?$point_data@H@polygon@boost@@V123@@std@@H@std@@@2@@std@@@std@@@std@@@std@@@1@V?$_Tree_const_iterator@V?$_Tree_val@U?$_Tree_simple_types@U?$pair@$$CBHV?$vector@U?$pair@U?$pair@V?$point_data@H@polygon@boost@@V123@@std@@H@std@@V?$allocator@U?$pair@U?$pair@V?$point_data@H@polygon@boost@@V123@@std@@H@std@@@2@@std@@@std@@@std@@@std@@@1@AEAU?$pair@$$CBHV?$vector@U?$pair@U?$pair@V?$point_data@H@polygon@boost@@V123@@std@@H@std@@V?$allocator@U?$pair@U?$pair@V?$point_data@H@polygon@boost@@V123@@std@@H@std@@@2@@std@@@1@PEAU?$_Tree_node@U?$pair@$$CBHV?$vector@U?$pair@U?$pair@V?$point_data@H@polygon@boost@@V123@@std@@H@std@@V?$allocator@U?$pair@U?$pair@V?$point_data@H@polygon@boost@@V123@@std@@H@std@@@2@@std@@@std@@PEAX@1@@Z 0000000180018370 f i minkowski.obj
 0001:00017670       ?_Destroy_if_node@?$_Tree@V?$_Tmap_traits@HV?$vector@U?$pair@U?$pair@V?$point_data@H@polygon@boost@@V123@@std@@H@std@@V?$allocator@U?$pair@U?$pair@V?$point_data@H@polygon@boost@@V123@@std@@H@std@@@2@@std@@U?$less@H@2@V?$allocator@U?$pair@$$CBHV?$vector@U?$pair@U?$pair@V?$point_data@H@polygon@boost@@V123@@std@@H@std@@V?$allocator@U?$pair@U?$pair@V?$point_data@H@polygon@boost@@V123@@std@@H@std@@@2@@std@@@std@@@2@$0A@@std@@@std@@IEAAXPEAU?$_Tree_node@U?$pair@$$CBHV?$vector@U?$pair@U?$pair@V?$point_data@H@polygon@boost@@V123@@std@@H@std@@V?$allocator@U?$pair@U?$pair@V?$point_data@H@polygon@boost@@V123@@std@@H@std@@@2@@std@@@std@@PEAX@2@@Z 0000000180018670 f i minkowski.obj
 0001:000176a0       ??$_Partition_by_median_guess_unchecked@PEAV?$point_data@H@polygon@boost@@Vless_point_down_slope@?$line_intersection@H@23@@std@@YA?AU?$pair@PEAV?$point_data@H@polygon@boost@@PEAV123@@0@PEAV?$point_data@H@polygon@boost@@0Vless_point_down_slope@?$line_intersection@H@34@@Z 00000001800186a0 f i minkowski.obj
 0001:00017970       ??$_Make_heap_unchecked@PEAV?$point_data@H@polygon@boost@@Vless_point_down_slope@?$line_intersection@H@23@@std@@YAXPEAV?$point_data@H@polygon@boost@@0Vless_point_down_slope@?$line_intersection@H@23@@Z 0000000180018970 f i minkowski.obj
 0001:00017aa0       ??$_Sort_heap_unchecked@PEAV?$point_data@H@polygon@boost@@Vless_point_down_slope@?$line_intersection@H@23@@std@@YAXPEAV?$point_data@H@polygon@boost@@0Vless_point_down_slope@?$line_intersection@H@23@@Z 0000000180018aa0 f i minkowski.obj
 0001:00017c10       ??$_Med3_unchecked@PEAU?$pair@U?$pair@V?$point_data@H@polygon@boost@@V123@@std@@H@std@@U?$less@X@2@@std@@YAXPEAU?$pair@U?$pair@V?$point_data@H@polygon@boost@@V123@@std@@H@0@00U?$less@X@0@@Z 0000000180018c10 f i minkowski.obj
 0001:00017e90       ??$_Push_heap_by_index@PEAU?$pair@U?$pair@V?$point_data@H@polygon@boost@@V123@@std@@H@std@@U12@U?$less@X@2@@std@@YAXPEAU?$pair@U?$pair@V?$point_data@H@polygon@boost@@V123@@std@@H@0@_J1$$QEAU10@U?$less@X@0@@Z 0000000180018e90 f i minkowski.obj
 0001:00017fb0       ??$_Med3_unchecked@PEAU?$pair@U?$pair@U?$pair@V?$point_data@H@polygon@boost@@V123@@std@@H@std@@PEAVactive_tail_arbitrary@?$polygon_arbitrary_formation@H@polygon@boost@@@std@@U?$_Ref_fn@Vless_incoming_count@?$polygon_arbitrary_formation@H@polygon@boost@@@2@@std@@YAXPEAU?$pair@U?$pair@U?$pair@V?$point_data@H@polygon@boost@@V123@@std@@H@std@@PEAVactive_tail_arbitrary@?$polygon_arbitrary_formation@H@polygon@boost@@@0@00U?$_Ref_fn@Vless_incoming_count@?$polygon_arbitrary_formation@H@polygon@boost@@@0@@Z 0000000180018fb0 f i minkowski.obj
 0001:00018180       ??$_Med3_unchecked@PEAU?$pair@V?$point_data@H@polygon@boost@@H@std@@U?$_Ref_fn@Vless_half_edge_count@?$polygon_arbitrary_formation@H@polygon@boost@@@2@@std@@YAXPEAU?$pair@V?$point_data@H@polygon@boost@@H@0@00U?$_Ref_fn@Vless_half_edge_count@?$polygon_arbitrary_formation@H@polygon@boost@@@0@@Z 0000000180019180 f i minkowski.obj
 0001:00018260       ??$_Push_heap_by_index@PEAU?$pair@V?$point_data@H@polygon@boost@@H@std@@U12@U?$_Ref_fn@Vless_half_edge_count@?$polygon_arbitrary_formation@H@polygon@boost@@@2@@std@@YAXPEAU?$pair@V?$point_data@H@polygon@boost@@H@0@_J1$$QEAU10@U?$_Ref_fn@Vless_half_edge_count@?$polygon_arbitrary_formation@H@polygon@boost@@@0@@Z 0000000180019260 f i minkowski.obj
 0001:00018440       ??$_Insert_at@AEAU?$pair@$$CBHV?$vector@U?$pair@U?$pair@V?$point_data@H@polygon@boost@@V123@@std@@H@std@@V?$allocator@U?$pair@U?$pair@V?$point_data@H@polygon@boost@@V123@@std@@H@std@@@2@@std@@@std@@PEAU?$_Tree_node@U?$pair@$$CBHV?$vector@U?$pair@U?$pair@V?$point_data@H@polygon@boost@@V123@@std@@H@std@@V?$allocator@U?$pair@U?$pair@V?$point_data@H@polygon@boost@@V123@@std@@H@std@@@2@@std@@@std@@PEAX@2@@?$_Tree@V?$_Tmap_traits@HV?$vector@U?$pair@U?$pair@V?$point_data@H@polygon@boost@@V123@@std@@H@std@@V?$allocator@U?$pair@U?$pair@V?$point_data@H@polygon@boost@@V123@@std@@H@std@@@2@@std@@U?$less@H@2@V?$allocator@U?$pair@$$CBHV?$vector@U?$pair@U?$pair@V?$point_data@H@polygon@boost@@V123@@std@@H@std@@V?$allocator@U?$pair@U?$pair@V?$point_data@H@polygon@boost@@V123@@std@@H@std@@@2@@std@@@std@@@2@$0A@@std@@@std@@IEAA?AV?$_Tree_iterator@V?$_Tree_val@U?$_Tree_simple_types@U?$pair@$$CBHV?$vector@U?$pair@U?$pair@V?$point_data@H@polygon@boost@@V123@@std@@H@std@@V?$allocator@U?$pair@U?$pair@V?$point_data@H@polygon@boost@@V123@@std@@H@std@@@2@@std@@@std@@@std@@@std@@@1@_NPEAU?$_Tree_node@U?$pair@$$CBHV?$vector@U?$pair@U?$pair@V?$point_data@H@polygon@boost@@V123@@std@@H@std@@V?$allocator@U?$pair@U?$pair@V?$point_data@H@polygon@boost@@V123@@std@@H@std@@@2@@std@@@std@@PEAX@1@AEAU?$pair@$$CBHV?$vector@U?$pair@U?$pair@V?$point_data@H@polygon@boost@@V123@@std@@H@std@@V?$allocator@U?$pair@U?$pair@V?$point_data@H@polygon@boost@@V123@@std@@H@std@@@2@@std@@@1@1@Z 0000000180019440 f i minkowski.obj
 0001:000186f0       ??$_Insert_range@V?$_List_unchecked_const_iterator@V?$_List_val@U?$_List_simple_types@V?$point_data@H@polygon@boost@@@std@@@std@@U_Iterator_base0@2@@std@@@?$vector@V?$point_data@H@polygon@boost@@V?$allocator@V?$point_data@H@polygon@boost@@@std@@@std@@AEAAXV?$_Vector_const_iterator@V?$_Vector_val@U?$_Simple_types@V?$point_data@H@polygon@boost@@@std@@@std@@@1@V?$_List_unchecked_const_iterator@V?$_List_val@U?$_List_simple_types@V?$point_data@H@polygon@boost@@@std@@@std@@U_Iterator_base0@2@@1@1Uforward_iterator_tag@1@@Z 00000001800196f0 f i minkowski.obj
 0001:000189e0       ??$_Sort_unchecked@PEAU?$pair@HH@std@@U?$less@X@2@@std@@YAXPEAU?$pair@HH@0@0_JU?$less@X@0@@Z 00000001800199e0 f i minkowski.obj
 0001:00018cb0       ??$_Sort_unchecked@PEAV?$point_data@H@polygon@boost@@U?$less@X@std@@@std@@YAXPEAV?$point_data@H@polygon@boost@@0_JU?$less@X@0@@Z 0000000180019cb0 f i minkowski.obj
 0001:00018e70       ??$_Partition_by_median_guess_unchecked@PEAU?$pair@HH@std@@U?$less@X@2@@std@@YA?AU?$pair@PEAU?$pair@HH@std@@PEAU12@@0@PEAU?$pair@HH@0@0U?$less@X@0@@Z 0000000180019e70 f i minkowski.obj
 0001:00019160       ??$_Sort_heap_unchecked@PEAU?$pair@HH@std@@U?$less@X@2@@std@@YAXPEAU?$pair@HH@0@0U?$less@X@0@@Z 000000018001a160 f i minkowski.obj
 0001:000192d0       ??$_Partition_by_median_guess_unchecked@PEAV?$point_data@H@polygon@boost@@U?$less@X@std@@@std@@YA?AU?$pair@PEAV?$point_data@H@polygon@boost@@PEAV123@@0@PEAV?$point_data@H@polygon@boost@@0U?$less@X@0@@Z 000000018001a2d0 f i minkowski.obj
 0001:000195b0       ??$_Make_heap_unchecked@PEAV?$point_data@H@polygon@boost@@U?$less@X@std@@@std@@YAXPEAV?$point_data@H@polygon@boost@@0U?$less@X@0@@Z 000000018001a5b0 f i minkowski.obj
 0001:000196e0       ??$_Sort_heap_unchecked@PEAV?$point_data@H@polygon@boost@@U?$less@X@std@@@std@@YAXPEAV?$point_data@H@polygon@boost@@0U?$less@X@0@@Z 000000018001a6e0 f i minkowski.obj
 0001:00019860       ??$_Med3_unchecked@PEAV?$point_data@H@polygon@boost@@Vless_point_down_slope@?$line_intersection@H@23@@std@@YAXPEAV?$point_data@H@polygon@boost@@00Vless_point_down_slope@?$line_intersection@H@23@@Z 000000018001a860 f i minkowski.obj
 0001:000198e0       ??$_Med3_unchecked@PEAU?$pair@HH@std@@U?$less@X@2@@std@@YAXPEAU?$pair@HH@0@00U?$less@X@0@@Z 000000018001a8e0 f i minkowski.obj
 0001:00019970       ??$_Med3_unchecked@PEAV?$point_data@H@polygon@boost@@U?$less@X@std@@@std@@YAXPEAV?$point_data@H@polygon@boost@@00U?$less@X@0@@Z 000000018001a970 f i minkowski.obj
 0001:000199e8       ??0bad_alloc@std@@QEAA@AEBV01@@Z 000000018001a9e8 f i libcpmt:xthrow.obj
 0001:00019a28       ??0bad_alloc@std@@QEAA@XZ  000000018001aa28 f i libcpmt:xthrow.obj
 0001:00019a48       ??0exception@std@@QEAA@AEBV01@@Z 000000018001aa48 f i libcpmt:xthrow.obj
 0001:00019a80       ??0length_error@std@@QEAA@AEBV01@@Z 000000018001aa80 f i libcpmt:xthrow.obj
 0001:00019ac0       ??0length_error@std@@QEAA@PEBD@Z 000000018001aac0 f i libcpmt:xthrow.obj
 0001:00019b0c       ??0logic_error@std@@QEAA@AEBV01@@Z 000000018001ab0c f i libcpmt:xthrow.obj
 0001:00019b4c       ??1bad_alloc@std@@UEAA@XZ  000000018001ab4c f i libcpmt:xthrow.obj
 0001:00019b4c       ??1length_error@std@@UEAA@XZ 000000018001ab4c f i libcpmt:xthrow.obj
 0001:00019b4c       ??1bad_array_new_length@std@@UEAA@XZ 000000018001ab4c f i LIBCMT:throw_bad_alloc.obj
 0001:00019b60       ??_Elogic_error@std@@UEAAPEAXI@Z 000000018001ab60 f i libcpmt:xthrow.obj
 0001:00019b60       ??_Elength_error@std@@UEAAPEAXI@Z 000000018001ab60 f i libcpmt:xthrow.obj
 0001:00019b60       ??_Ebad_array_new_length@std@@UEAAPEAXI@Z 000000018001ab60 f i LIBCMT:throw_bad_alloc.obj
 0001:00019b60       ??_Ebad_alloc@std@@UEAAPEAXI@Z 000000018001ab60 f i libcpmt:xthrow.obj
 0001:00019b60       ??_Glength_error@std@@UEAAPEAXI@Z 000000018001ab60 f i libcpmt:xthrow.obj
 0001:00019b60       ??_Gbad_alloc@std@@UEAAPEAXI@Z 000000018001ab60 f i libcpmt:xthrow.obj
 0001:00019b60       ??_Gexception@std@@UEAAPEAXI@Z 000000018001ab60 f i libcpmt:xthrow.obj
 0001:00019b60       ??_Eexception@std@@UEAAPEAXI@Z 000000018001ab60 f i libcpmt:xthrow.obj
 0001:00019b60       ??_Gbad_array_new_length@std@@UEAAPEAXI@Z 000000018001ab60 f i LIBCMT:throw_bad_alloc.obj
 0001:00019b60       ??_Glogic_error@std@@UEAAPEAXI@Z 000000018001ab60 f i libcpmt:xthrow.obj
 0001:00019ba4       ?_Xlength_error@std@@YAXPEBD@Z 000000018001aba4 f   libcpmt:xthrow.obj
 0001:00019bc8       ?what@exception@std@@UEBAPEBDXZ 000000018001abc8 f i libcpmt:xthrow.obj
 0001:00019bf0       __security_check_cookie    000000018001abf0 f   LIBCMT:amdsecgs.obj
 0001:00019c14       ??2@YAPEAX_K@Z             000000018001ac14 f   LIBCMT:new_scalar.obj
 0001:00019c50       ??3@YAXPEAX_K@Z            000000018001ac50 f   LIBCMT:delete_scalar_size.obj
 0001:00019f88       _DllMainCRTStartup         000000018001af88 f   LIBCMT:dll_dllmain.obj
 0001:00019fc8       ??_Gtype_info@@UEAAPEAXI@Z 000000018001afc8 f i LIBCMT:std_type_info_static.obj
 0001:00019fc8       ??_Etype_info@@UEAAPEAXI@Z 000000018001afc8 f i LIBCMT:std_type_info_static.obj
 0001:00019ff4       __raise_securityfailure    000000018001aff4 f   LIBCMT:gs_report.obj
 0001:0001a028       __report_gsfailure         000000018001b028 f   LIBCMT:gs_report.obj
 0001:0001a0fc       __report_rangecheckfailure 000000018001b0fc f   LIBCMT:gs_report.obj
 0001:0001a110       __report_securityfailure   000000018001b110 f   LIBCMT:gs_report.obj
 0001:0001a290       ??0bad_array_new_length@std@@QEAA@AEBV01@@Z 000000018001b290 f i LIBCMT:throw_bad_alloc.obj
 0001:0001a2d0       ??0bad_array_new_length@std@@QEAA@XZ 000000018001b2d0 f i LIBCMT:throw_bad_alloc.obj
 0001:0001a2f0       ?__scrt_throw_std_bad_alloc@@YAXXZ 000000018001b2f0 f   LIBCMT:throw_bad_alloc.obj
 0001:0001a310       ?__scrt_throw_std_bad_array_new_length@@YAXXZ 000000018001b310 f   LIBCMT:throw_bad_alloc.obj
 0001:0001a330       ??3@YAXPEAX@Z              000000018001b330 f   LIBCMT:delete_scalar.obj
 0001:0001a338       __security_init_cookie     000000018001b338 f   LIBCMT:gs_support.obj
 0001:0001a3e4       _get_startup_argv_mode     000000018001b3e4 f   LIBCMT:argv_mode.obj
 0001:0001a3e4       DllMain                    000000018001b3e4 f   LIBCMT:dll_dllmain_stub.obj
 0001:0001a3ec       ?__scrt_initialize_type_info@@YAXXZ 000000018001b3ec f   LIBCMT:tncleanup.obj
 0001:0001a3fc       ?__scrt_uninitialize_type_info@@YAXXZ 000000018001b3fc f   LIBCMT:tncleanup.obj
 0001:0001a408       __local_stdio_printf_options 000000018001b408 f i LIBCMT:default_local_stdio_options.obj
 0001:0001a410       __local_stdio_scanf_options 000000018001b410 f i LIBCMT:default_local_stdio_options.obj
 0001:0001a418       __scrt_initialize_default_local_stdio_options 000000018001b418 f   LIBCMT:default_local_stdio_options.obj
 0001:0001a434       __scrt_acquire_startup_lock 000000018001b434 f   LIBCMT:utility.obj
 0001:0001a470       __scrt_dllmain_after_initialize_c 000000018001b470 f   LIBCMT:utility.obj
 0001:0001a4a4       __scrt_dllmain_before_initialize_c 000000018001b4a4 f   LIBCMT:utility.obj
 0001:0001a4bc       __scrt_dllmain_crt_thread_attach 000000018001b4bc f   LIBCMT:utility.obj
 0001:0001a4e4       __scrt_dllmain_crt_thread_detach 000000018001b4e4 f   LIBCMT:utility.obj
 0001:0001a4fc       __scrt_dllmain_exception_filter 000000018001b4fc f   LIBCMT:utility.obj
 0001:0001a55c       __scrt_dllmain_uninitialize_c 000000018001b55c f   LIBCMT:utility.obj
 0001:0001a58c       __scrt_dllmain_uninitialize_critical 000000018001b58c f   LIBCMT:utility.obj
 0001:0001a5a0       __scrt_initialize_crt      000000018001b5a0 f   LIBCMT:utility.obj
 0001:0001a5ec       __scrt_initialize_onexit_tables 000000018001b5ec f   LIBCMT:utility.obj
 0001:0001a6c4       __scrt_is_nonwritable_in_current_image 000000018001b6c4 f   LIBCMT:utility.obj
 0001:0001a760       __scrt_release_startup_lock 000000018001b760 f   LIBCMT:utility.obj
 0001:0001a784       __scrt_uninitialize_crt    000000018001b784 f   LIBCMT:utility.obj
 0001:0001a7b0       __scrt_get_dyn_tls_init_callback 000000018001b7b0 f   LIBCMT:dyn_tls_init.obj
 0001:0001a7b8       __crt_debugger_hook        000000018001b7b8 f   LIBCMT:utility_desktop.obj
 0001:0001a7c0       __scrt_fastfail            000000018001b7c0 f   LIBCMT:utility_desktop.obj
 0001:0001a90c       _RTC_Initialize            000000018001b90c f   LIBCMT:initsect.obj
 0001:0001a948       _RTC_Terminate             000000018001b948 f   LIBCMT:initsect.obj
 0001:0001a984       _guard_check_icall_nop     000000018001b984 f i LIBCMT:guard_support.obj
 0001:0001a988       __isa_available_init       000000018001b988 f   LIBCMT:cpu_disp.obj
 0001:0001ab04       __scrt_is_ucrt_dll_in_use  000000018001bb04 f   LIBCMT:ucrt_detection.obj
 0001:0001ab10       __std_exception_copy       000000018001bb10 f   libvcruntime:std_exception.obj
 0001:0001aba0       __std_exception_destroy    000000018001bba0 f   libvcruntime:std_exception.obj
 0001:0001abc8       _CxxThrowException         000000018001bbc8 f   libvcruntime:throw.obj
 0001:0001ac88       __C_specific_handler       000000018001bc88 f   libvcruntime:riscchandler.obj
 0001:0001ae94       __std_type_info_destroy_list 000000018001be94 f   libvcruntime:std_type_info.obj
 0001:0001aec0       __vcrt_initialize          000000018001bec0 f   libvcruntime:initialization.obj
 0001:0001aef4       __vcrt_thread_attach       000000018001bef4 f   libvcruntime:initialization.obj
 0001:0001af08       __vcrt_thread_detach       000000018001bf08 f   libvcruntime:initialization.obj
 0001:0001af1c       __vcrt_uninitialize        000000018001bf1c f   libvcruntime:initialization.obj
 0001:0001af3c       __vcrt_uninitialize_critical 000000018001bf3c f   libvcruntime:initialization.obj
 0001:0001af60       memset_repmovs             000000018001bf60 f   libvcruntime:memset.obj
 0001:0001af80       memset                     000000018001bf80 f   libvcruntime:memset.obj
 0001:0001b120       _NLG_Notify                000000018001c120 f   libvcruntime:notify.obj
 0001:0001b140       __NLG_Dispatch2            000000018001c140 f   libvcruntime:notify.obj
 0001:0001b150       __NLG_Return2              000000018001c150 f   libvcruntime:notify.obj
 0001:0001b154       __except_validate_context_record 000000018001c154 f   libvcruntime:jbcxrval.obj
 0001:0001b18c       __DestructExceptionObject  000000018001c18c f   libvcruntime:ehhelpers.obj
 0001:0001b200       ?_CallMemberFunction0@@YAXQEAX0@Z 000000018001c200 f i libvcruntime:ehhelpers.obj
 0001:0001b204       __vcrt_freefls             000000018001c204 f   libvcruntime:per_thread_data.obj
 0001:0001b224       __vcrt_freeptd             000000018001c224 f   libvcruntime:per_thread_data.obj
 0001:0001b274       __vcrt_getptd_noexit       000000018001c274 f   libvcruntime:per_thread_data.obj
 0001:0001b340       __vcrt_initialize_ptd      000000018001c340 f   libvcruntime:per_thread_data.obj
 0001:0001b394       __vcrt_uninitialize_ptd    000000018001c394 f   libvcruntime:per_thread_data.obj
 0001:0001b3b8       __vcrt_initialize_locks    000000018001c3b8 f   libvcruntime:locks.obj
 0001:0001b400       __vcrt_uninitialize_locks  000000018001c400 f   libvcruntime:locks.obj
 0001:0001b610       __vcrt_FlsAlloc            000000018001c610 f   libvcruntime:winapi_downlevel.obj
 0001:0001b658       __vcrt_FlsFree             000000018001c658 f   libvcruntime:winapi_downlevel.obj
 0001:0001b6a0       __vcrt_FlsGetValue         000000018001c6a0 f   libvcruntime:winapi_downlevel.obj
 0001:0001b6e8       __vcrt_FlsSetValue         000000018001c6e8 f   libvcruntime:winapi_downlevel.obj
 0001:0001b73c       __vcrt_InitializeCriticalSectionEx 000000018001c73c f   libvcruntime:winapi_downlevel.obj
 0001:0001b7a0       __vcrt_initialize_winapi_thunks 000000018001c7a0 f   libvcruntime:winapi_downlevel.obj
 0001:0001b7d0       __vcrt_uninitialize_winapi_thunks 000000018001c7d0 f   libvcruntime:winapi_downlevel.obj
 0001:0001b810       __vcrt_initialize_pure_virtual_call_handler 000000018001c810 f   libvcruntime:purevirt_data.obj
 0001:0001b830       memcpy_repmovs             000000018001c830 f   libvcruntime:memcpy.obj
 0001:0001b850       memmove                    000000018001c850 f   libvcruntime:memcpy.obj
 0001:0001b850       memcpy                     000000018001c850 f   libvcruntime:memcpy.obj
 0001:0001bc90       _CallSettingFrame          000000018001cc90 f   libvcruntime:handlers.obj
 0001:0001bce0       _CallSettingFrameEncoded   000000018001cce0 f   libvcruntime:handlers.obj
 0001:0001bd28       __acrt_call_reportfault    000000018001cd28 f   libucrt:invalid_parameter.obj
 0001:0001be84       __acrt_initialize_invalid_parameter_handler 000000018001ce84 f   libucrt:invalid_parameter.obj
 0001:0001be8c       _invalid_parameter         000000018001ce8c f   libucrt:invalid_parameter.obj
 0001:0001bf3c       _invalid_parameter_noinfo  000000018001cf3c f   libucrt:invalid_parameter.obj
 0001:0001bf5c       _invalid_parameter_noinfo_noreturn 000000018001cf5c f   libucrt:invalid_parameter.obj
 0001:0001bf8c       _invoke_watson             000000018001cf8c f   libucrt:invalid_parameter.obj
 0001:0001bfd4       ??0_LocaleUpdate@@QEAA@QEAU__crt_locale_pointers@@@Z 000000018001cfd4 f i libucrt:stricmp.obj
 0001:0001c070       __acrt_initialize_new_handler 000000018001d070 f   libucrt:new_handler.obj
 0001:0001c078       _callnewh                  000000018001d078 f   libucrt:new_handler.obj
 0001:0001c0a8       _query_new_handler         000000018001d0a8 f   libucrt:new_handler.obj
 0001:0001c0dc       malloc                     000000018001d0dc f   libucrt:malloc.obj
 0001:0001c0e4       _initterm                  000000018001d0e4 f   libucrt:initterm.obj
 0001:0001c148       _initterm_e                000000018001d148 f   libucrt:initterm.obj
 0001:0001c188       free                       000000018001d188 f   libucrt:free.obj
 0001:0001c19c       _seh_filter_dll            000000018001d19c f   libucrt:exception_filter.obj
 0001:0001c1b0       _seh_filter_exe            000000018001d1b0 f   libucrt:exception_filter.obj
 0001:0001c5a0       __acrt_initialize_thread_local_exit_callback 000000018001d5a0 f   libucrt:exit.obj
 0001:0001c5a8       _cexit                     000000018001d5a8 f   libucrt:exit.obj
 0001:0001c5b8       _exit                      000000018001d5b8 f   libucrt:exit.obj
 0001:0001c5c4       _is_c_termination_complete 000000018001d5c4 f   libucrt:exit.obj
 0001:0001c790       __acrt_allocate_buffer_for_argv 000000018001d790 f   libucrt:argv_parsing.obj
 0001:0001c7f0       _configure_narrow_argv     000000018001d7f0 f   libucrt:argv_parsing.obj
 0001:0001cb68       __dcrt_uninitialize_environments_nolock 000000018001db68 f   libucrt:environment_initialization.obj
 0001:0001cba0       _initialize_narrow_environment 000000018001dba0 f   libucrt:environment_initialization.obj
 0001:0001ccfc       _execute_onexit_table      000000018001dcfc f   libucrt:onexit.obj
 0001:0001cd38       _initialize_onexit_table   000000018001dd38 f   libucrt:onexit.obj
 0001:0001cd98       __acrt_uninitialize_command_line 000000018001dd98 f   libucrt:argv_data.obj
 0001:0001ce90       __acrt_initialize          000000018001de90 f   libucrt:initialization.obj
 0001:0001cea4       __acrt_thread_attach       000000018001dea4 f   libucrt:initialization.obj
 0001:0001ceb8       __acrt_thread_detach       000000018001deb8 f   libucrt:initialization.obj
 0001:0001cec8       __acrt_uninitialize        000000018001dec8 f   libucrt:initialization.obj
 0001:0001cf00       __acrt_uninitialize_critical 000000018001df00 f   libucrt:initialization.obj
 0001:0001cf10       terminate                  000000018001df10 f   libucrt:terminate.obj
 0001:0001cf30       strcpy_s                   000000018001df30 f   libucrt:strcpy_s.obj
 0001:0001cfa0       strncmp                    000000018001dfa0 f   libucrt:strncmp.obj
 0001:0001d020       abort                      000000018001e020 f   libucrt:abort.obj
 0001:0001d078       calloc                     000000018001e078 f   libucrt:calloc.obj
 0001:0001d080       wcsncmp                    000000018001e080 f   libucrt:wcsncmp.obj
 0001:0001d424       __acrt_freeptd             000000018001e424 f   libucrt:per_thread_data.obj
 0001:0001d468       __acrt_getptd              000000018001e468 f   libucrt:per_thread_data.obj
 0001:0001d53c       __acrt_getptd_head         000000018001e53c f   libucrt:per_thread_data.obj
 0001:0001d5e4       __acrt_getptd_noexit       000000018001e5e4 f   libucrt:per_thread_data.obj
 0001:0001d6b0       __acrt_initialize_ptd      000000018001e6b0 f   libucrt:per_thread_data.obj
 0001:0001d6ec       __acrt_uninitialize_ptd    000000018001e6ec f   libucrt:per_thread_data.obj
 0001:0001d710       __acrt_errno_from_os_error 000000018001e710 f   libucrt:errno.obj
 0001:0001d758       __acrt_errno_map_os_error  000000018001e758 f   libucrt:errno.obj
 0001:0001d7a8       __doserrno                 000000018001e7a8 f   libucrt:errno.obj
 0001:0001d7c8       _errno                     000000018001e7c8 f   libucrt:errno.obj
 0001:0001d7e8       __acrt_update_locale_info  000000018001e7e8 f   libucrt:locale_update.obj
 0001:0001d81c       __acrt_update_multibyte_info 000000018001e81c f   libucrt:locale_update.obj
 0001:0001d8c0       __acrt_set_locale_changed  000000018001e8c0 f   libucrt:wsetlocale.obj
 0001:0001d8cc       __acrt_uninitialize_locale 000000018001e8cc f   libucrt:wsetlocale.obj
 0001:0001d8fc       __acrt_initialize_locks    000000018001e8fc f   libucrt:locks.obj
 0001:0001d944       __acrt_lock                000000018001e944 f   libucrt:locks.obj
 0001:0001d960       __acrt_uninitialize_locks  000000018001e960 f   libucrt:locks.obj
 0001:0001d998       __acrt_unlock              000000018001e998 f   libucrt:locks.obj
 0001:0001d9b4       _malloc_base               000000018001e9b4 f   libucrt:malloc_base.obj
 0001:0001da14       _free_base                 000000018001ea14 f   libucrt:free_base.obj
 0001:0001da54       __acrt_get_process_end_policy 000000018001ea54 f   libucrt:win_policies.obj
 0001:0001da90       _calloc_base               000000018001ea90 f   libucrt:calloc_base.obj
 0001:0001db1c       ??$__acrt_mbs_to_wcs_cp@U__crt_win32_buffer_internal_dynamic_resizing@@@@YAHQEBDAEAV?$__crt_win32_buffer@_WU__crt_win32_buffer_internal_dynamic_resizing@@@@I@Z 000000018001eb1c f i libucrt:argv_wildcards.obj
 0001:0001dc94       ??$__acrt_wcs_to_mbs_cp@U__crt_win32_buffer_internal_dynamic_resizing@@@@YAHQEB_WAEAV?$__crt_win32_buffer@DU__crt_win32_buffer_internal_dynamic_resizing@@@@I@Z 000000018001ec94 f i libucrt:argv_wildcards.obj
 0001:0001e4c4       __acrt_expand_narrow_argv_wildcards 000000018001f4c4 f   libucrt:argv_wildcards.obj
 0001:0001e4cc       ??$__acrt_wcs_to_mbs_cp@U__crt_win32_buffer_no_resizing@@@@YAHQEB_WAEAV?$__crt_win32_buffer@DU__crt_win32_buffer_no_resizing@@@@I@Z 000000018001f4cc f i libucrt:getmodulefilenamea.obj
 0001:0001e5e0       __acrt_GetModuleFileNameA  000000018001f5e0 f   libucrt:getmodulefilenamea.obj
 0001:0001ee2c       __acrt_initialize_multibyte 000000018001fe2c f   libucrt:mbctype.obj
 0001:0001ee8c       __acrt_update_thread_multibyte_data 000000018001fe8c f   libucrt:mbctype.obj
 0001:0001eea8       _setmbcp_nolock            000000018001fea8 f   libucrt:mbctype.obj
 0001:0001f1dc       _ismbblead                 00000001800201dc f   libucrt:ismbbyte.obj
 0001:0001f1f0       __acrt_initialize_command_line 00000001800201f0 f   libucrt:argv_data.obj
 0001:0001f218       __acrt_MultiByteToWideChar 0000000180020218 f   libucrt:multibytetowidechar.obj
 0001:0001f274       __acrt_WideCharToMultiByte 0000000180020274 f   libucrt:widechartomultibyte.obj
 0001:0001f30c       __dcrt_get_narrow_environment_from_os 000000018002030c f   libucrt:get_environment_from_os.obj
 0001:0001f410       _recalloc_base             0000000180020410 f   libucrt:recalloc.obj
 0001:0001f680       __acrt_AppPolicyGetProcessTerminationMethodInternal 0000000180020680 f   libucrt:winapi_thunks.obj
 0001:0001f6d0       __acrt_AreFileApisANSI     00000001800206d0 f   libucrt:winapi_thunks.obj
 0001:0001f70c       __acrt_FlsAlloc            000000018002070c f   libucrt:winapi_thunks.obj
 0001:0001f754       __acrt_FlsFree             0000000180020754 f   libucrt:winapi_thunks.obj
 0001:0001f79c       __acrt_FlsGetValue         000000018002079c f   libucrt:winapi_thunks.obj
 0001:0001f7e4       __acrt_FlsSetValue         00000001800207e4 f   libucrt:winapi_thunks.obj
 0001:0001f838       __acrt_InitializeCriticalSectionEx 0000000180020838 f   libucrt:winapi_thunks.obj
 0001:0001f89c       __acrt_LCMapStringEx       000000018002089c f   libucrt:winapi_thunks.obj
 0001:0001f978       __acrt_LocaleNameToLCID    0000000180020978 f   libucrt:winapi_thunks.obj
 0001:0001f9c8       __acrt_initialize_winapi_thunks 00000001800209c8 f   libucrt:winapi_thunks.obj
 0001:0001f9fc       __acrt_uninitialize_winapi_thunks 00000001800209fc f   libucrt:winapi_thunks.obj
 0001:0001fa40       __acrt_initialize_heap     0000000180020a40 f   libucrt:heap_handle.obj
 0001:0001fa5c       __acrt_uninitialize_heap   0000000180020a5c f   libucrt:heap_handle.obj
 0001:0001fc64       __acrt_initialize_lowio    0000000180020c64 f   libucrt:ioinit.obj
 0001:0001fca0       __acrt_uninitialize_lowio  0000000180020ca0 f   libucrt:ioinit.obj
 0001:0001fce0       __acrt_execute_initializers 0000000180020ce0 f   libucrt:shared_initialization.obj
 0001:0001fd60       __acrt_execute_uninitializers 0000000180020d60 f   libucrt:shared_initialization.obj
 0001:0001fde4       __acrt_get_sigabrt_handler 0000000180020de4 f   libucrt:signal.obj
 0001:0001fe14       __acrt_initialize_signal_handlers 0000000180020e14 f   libucrt:signal.obj
 0001:0001fe34       raise                      0000000180020e34 f   libucrt:signal.obj
 0001:000200a0       __acrt_has_user_matherr    00000001800210a0 f   libucrt:matherr.obj
 0001:000200c0       __acrt_initialize_user_matherr 00000001800210c0 f   libucrt:matherr.obj
 0001:000200c8       __acrt_invoke_user_matherr 00000001800210c8 f   libucrt:matherr.obj
 0001:000202d4       __acrt_stdio_flush_nolock  00000001800212d4 f   libucrt:fflush.obj
 0001:00020350       _fflush_nolock             0000000180021350 f   libucrt:fflush.obj
 0001:0002039c       _flushall                  000000018002139c f   libucrt:fflush.obj
 0001:000203a4       __acrt_initialize_stdio    00000001800213a4 f   libucrt:_file.obj
 0001:000204c4       __acrt_uninitialize_stdio  00000001800214c4 f   libucrt:_file.obj
 0001:00020520       _lock_file                 0000000180021520 f   libucrt:_file.obj
 0001:0002052c       _unlock_file               000000018002152c f   libucrt:_file.obj
 0001:00020538       _mbtowc_l                  0000000180021538 f   libucrt:mbtowc.obj
 0001:000206b4       mbtowc                     00000001800216b4 f   libucrt:mbtowc.obj
 0001:000206bc       _fileno                    00000001800216bc f   libucrt:fileno.obj
 0001:000206e4       __pctype_func              00000001800216e4 f   libucrt:ctype.obj
 0001:00020714       __acrt_add_locale_ref      0000000180021714 f   libucrt:locale_refcounting.obj
 0001:000207a0       __acrt_free_locale         00000001800217a0 f   libucrt:locale_refcounting.obj
 0001:00020918       __acrt_locale_add_lc_time_reference 0000000180021918 f   libucrt:locale_refcounting.obj
 0001:00020940       __acrt_locale_free_lc_time_if_unreferenced 0000000180021940 f   libucrt:locale_refcounting.obj
 0001:00020978       __acrt_locale_release_lc_time_reference 0000000180021978 f   libucrt:locale_refcounting.obj
 0001:000209a0       __acrt_release_locale_ref  00000001800219a0 f   libucrt:locale_refcounting.obj
 0001:00020a48       __acrt_update_thread_locale_data 0000000180021a48 f   libucrt:locale_refcounting.obj
 0001:00020ab8       _updatetlocinfoEx_nolock   0000000180021ab8 f   libucrt:locale_refcounting.obj
 0001:00020b20       _isleadbyte_l              0000000180021b20 f i libucrt:_wctype.obj
 0001:00020e84       __acrt_LCMapStringA        0000000180021e84 f   libucrt:lcmapstringa.obj
 0001:00020f1c       __acrt_locale_free_monetary 0000000180021f1c f   libucrt:initmon.obj
 0001:00021028       __acrt_locale_free_numeric 0000000180022028 f   libucrt:initnum.obj
 0001:000210ec       __acrt_locale_free_time    00000001800220ec f   libucrt:inittime.obj
 0001:000211f4       __acrt_GetStringTypeA      00000001800221f4 f   libucrt:getstringtypea.obj
 0001:00021384       _query_new_mode            0000000180022384 f   libucrt:new_mode.obj
 0001:00021390       qsort                      0000000180022390 f   libucrt:qsort.obj
 0001:00021750       strncpy_s                  0000000180022750 f   libucrt:strncpy_s.obj
 0001:000218d0       strpbrk                    00000001800228d0 f   libucrt:strpbrk.obj
 0001:00021cb0       _mbsdec                    0000000180022cb0 f   libucrt:mbsdec.obj
 0001:00021cb8       _mbsdec_l                  0000000180022cb8 f   libucrt:mbsdec.obj
 0001:00021d64       _msize_base                0000000180022d64 f   libucrt:msize.obj
 0001:00021da0       _realloc_base              0000000180022da0 f   libucrt:realloc_base.obj
 0001:00021f04       __acrt_DownlevelLocaleNameToLCID 0000000180022f04 f   libucrt:lcidtoname_downlevel.obj
 0001:00021f38       __acrt_lowio_create_handle_array 0000000180022f38 f   libucrt:osfinfo.obj
 0001:00021fe0       __acrt_lowio_destroy_handle_array 0000000180022fe0 f   libucrt:osfinfo.obj
 0001:00022030       __acrt_lowio_ensure_fh_exists 0000000180023030 f   libucrt:osfinfo.obj
 0001:000220d8       __acrt_lowio_lock_fh       00000001800230d8 f   libucrt:osfinfo.obj
 0001:00022100       __acrt_lowio_unlock_fh     0000000180023100 f   libucrt:osfinfo.obj
 0001:00022128       _free_osfhnd               0000000180023128 f   libucrt:osfinfo.obj
 0001:000221e4       _get_osfhandle             00000001800231e4 f   libucrt:osfinfo.obj
 0001:000222e8       _commit                    00000001800232e8 f   libucrt:commit.obj
 0001:00022be8       _write                     0000000180023be8 f   libucrt:write.obj
 0001:00022cd4       _write_nolock              0000000180023cd4 f   libucrt:write.obj
 0001:00022fb0       _fcloseall                 0000000180023fb0 f   libucrt:closeall.obj
 0001:00023064       __acrt_stdio_free_buffer_nolock 0000000180024064 f   libucrt:_freebuf.obj
 0001:000230a4       _isatty                    00000001800240a4 f   libucrt:isatty.obj
 0001:00023104       ?__mbrtowc_utf8@__crt_mbstring@@YA_KPEA_WPEBD_KPEAU_Mbstatet@@@Z 0000000180024104 f   libucrt:mbrtowc.obj
 0001:00023140       ?__mbsrtowcs_utf8@__crt_mbstring@@YA_KPEA_WPEAPEBD_KPEAU_Mbstatet@@@Z 0000000180024140 f   libucrt:mbrtowc.obj
 0001:000232b8       __strncnt                  00000001800242b8 f   libucrt:strncnt.obj
 0001:000232d0       _query_app_type            00000001800242d0 f   libucrt:report_runtime_error.obj
 0001:00023374       _lseeki64_nolock           0000000180024374 f   libucrt:lseek.obj
 0001:0002337c       _putwch_nolock             000000018002437c f   libucrt:putwch.obj
 0001:000233b8       _fclose_nolock             00000001800243b8 f   libucrt:fclose.obj
 0001:0002343c       fclose                     000000018002443c f   libucrt:fclose.obj
 0001:000234a0       ?__mbrtoc32_utf8@__crt_mbstring@@YA_KPEA_UPEBD_KPEAU_Mbstatet@@@Z 00000001800244a0 f   libucrt:mbrtoc32.obj
 0001:00023680       log10                      0000000180024680 f   libucrt:log10.obj
 0001:00023c2c       __dcrt_lowio_ensure_console_output_initialized 0000000180024c2c f   libucrt:initcon.obj
 0001:00023c80       __dcrt_terminate_console_output 0000000180024c80 f   libucrt:initcon.obj
 0001:00023c9c       __dcrt_write_console       0000000180024c9c f   libucrt:initcon.obj
 0001:00023dd0       _close                     0000000180024dd0 f   libucrt:close.obj
 0001:00023e74       _close_nolock              0000000180024e74 f   libucrt:close.obj
 0001:00023f34       ?__acrt_stdio_free_stream@@YAXV__crt_stdio_stream@@@Z 0000000180024f34 f   libucrt:stream.obj
 0001:00024074       _handle_error              0000000180025074 f   libucrt:libm_error.obj
 0001:000241a0       __acrt_initialize_fma3     00000001800251a0 f   libucrt:fma3_available.obj
 0001:00024210       _log10_special             0000000180025210 f   libucrt:log_special.obj
 0001:000242e0       _get_fpsr                  00000001800252e0 f   libucrt:fpsr.obj
 0001:000242f0       _set_fpsr                  00000001800252f0 f   libucrt:fpsr.obj
 0001:000242fa       _fclrf                     00000001800252fa f   libucrt:fpsr.obj
 0001:0002430e       _frnd                      000000018002530e f   libucrt:fpsr.obj
 0001:00024330       _raise_exc                 0000000180025330 f   libucrt:fpexcept.obj
 0001:00024358       _raise_exc_ex              0000000180025358 f   libucrt:fpexcept.obj
 0001:00024668       _set_errno_from_matherr    0000000180025668 f   libucrt:fpexcept.obj
 0001:00024698       _clrfp                     0000000180025698 f   libucrt:fpctrl.obj
 0001:000246b8       _ctrlfp                    00000001800256b8 f   libucrt:fpctrl.obj
 0001:00024734       _set_statfp                0000000180025734 f   libucrt:fpctrl.obj
 0001:00024754       _statfp                    0000000180025754 f   libucrt:fpctrl.obj
 0001:00024765       IsProcessorFeaturePresent  0000000180025765 f   kernel32:KERNEL32.dll
 0001:00024770       _FindPESection             0000000180025770 f   LIBCMT:pesect.obj
 0001:000247c0       _IsNonwritableInCurrentImage 00000001800257c0 f   LIBCMT:pesect.obj
 0001:00024810       _ValidateImageBase         0000000180025810 f   LIBCMT:pesect.obj
 0001:00024840       __GSHandlerCheck           0000000180025840 f   LIBCMT:gshandler.obj
 0001:00024860       __GSHandlerCheckCommon     0000000180025860 f   LIBCMT:gshandler.obj
 0001:000248d0       _alloca_probe              00000001800258d0 f   LIBCMT:chkstk.obj
 0001:000248d0       __chkstk                   00000001800258d0 f   LIBCMT:chkstk.obj
 0001:00024940       memcmp                     0000000180025940 f   libvcruntime:memcmp.obj
 0001:00024a20       _guard_dispatch_icall_nop  0000000180025a20 f   LIBCMT:guard_dispatch.obj
 0002:00000000       __imp_WriteConsoleW        0000000180026000     kernel32:KERNEL32.dll
 0002:00000008       __imp_CloseHandle          0000000180026008     kernel32:KERNEL32.dll
 0002:00000010       __imp_CreateFileW          0000000180026010     kernel32:KERNEL32.dll
 0002:00000018       __imp_SetFilePointerEx     0000000180026018     kernel32:KERNEL32.dll
 0002:00000020       __imp_GetConsoleMode       0000000180026020     kernel32:KERNEL32.dll
 0002:00000028       __imp_GetConsoleCP         0000000180026028     kernel32:KERNEL32.dll
 0002:00000030       __imp_WriteFile            0000000180026030     kernel32:KERNEL32.dll
 0002:00000038       __imp_FlushFileBuffers     0000000180026038     kernel32:KERNEL32.dll
 0002:00000040       __imp_SetStdHandle         0000000180026040     kernel32:KERNEL32.dll
 0002:00000048       __imp_HeapReAlloc          0000000180026048     kernel32:KERNEL32.dll
 0002:00000050       __imp_HeapSize             0000000180026050     kernel32:KERNEL32.dll
 0002:00000058       __imp_GetStringTypeW       0000000180026058     kernel32:KERNEL32.dll
 0002:00000060       __imp_GetFileType          0000000180026060     kernel32:KERNEL32.dll
 0002:00000068       __imp_GetStdHandle         0000000180026068     kernel32:KERNEL32.dll
 0002:00000070       __imp_GetProcessHeap       0000000180026070     kernel32:KERNEL32.dll
 0002:00000078       __imp_LCMapStringW         0000000180026078     kernel32:KERNEL32.dll
 0002:00000080       __imp_FreeEnvironmentStringsW 0000000180026080     kernel32:KERNEL32.dll
 0002:00000088       __imp_GetEnvironmentStringsW 0000000180026088     kernel32:KERNEL32.dll
 0002:00000090       __imp_WideCharToMultiByte  0000000180026090     kernel32:KERNEL32.dll
 0002:00000098       __imp_MultiByteToWideChar  0000000180026098     kernel32:KERNEL32.dll
 0002:000000a0       __imp_GetCommandLineW      00000001800260a0     kernel32:KERNEL32.dll
 0002:000000a8       __imp_GetCommandLineA      00000001800260a8     kernel32:KERNEL32.dll
 0002:000000b0       __imp_GetCPInfo            00000001800260b0     kernel32:KERNEL32.dll
 0002:000000b8       __imp_GetOEMCP             00000001800260b8     kernel32:KERNEL32.dll
 0002:000000c0       __imp_GetACP               00000001800260c0     kernel32:KERNEL32.dll
 0002:000000c8       __imp_RtlCaptureContext    00000001800260c8     kernel32:KERNEL32.dll
 0002:000000d0       __imp_RtlLookupFunctionEntry 00000001800260d0     kernel32:KERNEL32.dll
 0002:000000d8       __imp_RtlVirtualUnwind     00000001800260d8     kernel32:KERNEL32.dll
 0002:000000e0       __imp_UnhandledExceptionFilter 00000001800260e0     kernel32:KERNEL32.dll
 0002:000000e8       __imp_SetUnhandledExceptionFilter 00000001800260e8     kernel32:KERNEL32.dll
 0002:000000f0       __imp_GetCurrentProcess    00000001800260f0     kernel32:KERNEL32.dll
 0002:000000f8       __imp_TerminateProcess     00000001800260f8     kernel32:KERNEL32.dll
 0002:00000100       __imp_IsProcessorFeaturePresent 0000000180026100     kernel32:KERNEL32.dll
 0002:00000108       __imp_QueryPerformanceCounter 0000000180026108     kernel32:KERNEL32.dll
 0002:00000110       __imp_GetCurrentProcessId  0000000180026110     kernel32:KERNEL32.dll
 0002:00000118       __imp_GetCurrentThreadId   0000000180026118     kernel32:KERNEL32.dll
 0002:00000120       __imp_GetSystemTimeAsFileTime 0000000180026120     kernel32:KERNEL32.dll
 0002:00000128       __imp_InitializeSListHead  0000000180026128     kernel32:KERNEL32.dll
 0002:00000130       __imp_IsDebuggerPresent    0000000180026130     kernel32:KERNEL32.dll
 0002:00000138       __imp_GetStartupInfoW      0000000180026138     kernel32:KERNEL32.dll
 0002:00000140       __imp_GetModuleHandleW     0000000180026140     kernel32:KERNEL32.dll
 0002:00000148       __imp_RtlPcToFileHeader    0000000180026148     kernel32:KERNEL32.dll
 0002:00000150       __imp_RaiseException       0000000180026150     kernel32:KERNEL32.dll
 0002:00000158       __imp_RtlUnwindEx          0000000180026158     kernel32:KERNEL32.dll
 0002:00000160       __imp_InterlockedFlushSList 0000000180026160     kernel32:KERNEL32.dll
 0002:00000168       __imp_GetLastError         0000000180026168     kernel32:KERNEL32.dll
 0002:00000170       __imp_SetLastError         0000000180026170     kernel32:KERNEL32.dll
 0002:00000178       __imp_EnterCriticalSection 0000000180026178     kernel32:KERNEL32.dll
 0002:00000180       __imp_LeaveCriticalSection 0000000180026180     kernel32:KERNEL32.dll
 0002:00000188       __imp_DeleteCriticalSection 0000000180026188     kernel32:KERNEL32.dll
 0002:00000190       __imp_InitializeCriticalSectionAndSpinCount 0000000180026190     kernel32:KERNEL32.dll
 0002:00000198       __imp_TlsAlloc             0000000180026198     kernel32:KERNEL32.dll
 0002:000001a0       __imp_TlsGetValue          00000001800261a0     kernel32:KERNEL32.dll
 0002:000001a8       __imp_TlsSetValue          00000001800261a8     kernel32:KERNEL32.dll
 0002:000001b0       __imp_TlsFree              00000001800261b0     kernel32:KERNEL32.dll
 0002:000001b8       __imp_FreeLibrary          00000001800261b8     kernel32:KERNEL32.dll
 0002:000001c0       __imp_GetProcAddress       00000001800261c0     kernel32:KERNEL32.dll
 0002:000001c8       __imp_LoadLibraryExW       00000001800261c8     kernel32:KERNEL32.dll
 0002:000001d0       __imp_ExitProcess          00000001800261d0     kernel32:KERNEL32.dll
 0002:000001d8       __imp_GetModuleHandleExW   00000001800261d8     kernel32:KERNEL32.dll
 0002:000001e0       __imp_GetModuleFileNameW   00000001800261e0     kernel32:KERNEL32.dll
 0002:000001e8       __imp_HeapAlloc            00000001800261e8     kernel32:KERNEL32.dll
 0002:000001f0       __imp_HeapFree             00000001800261f0     kernel32:KERNEL32.dll
 0002:000001f8       __imp_FindClose            00000001800261f8     kernel32:KERNEL32.dll
 0002:00000200       __imp_FindFirstFileExW     0000000180026200     kernel32:KERNEL32.dll
 0002:00000208       __imp_FindNextFileW        0000000180026208     kernel32:KERNEL32.dll
 0002:00000210       __imp_IsValidCodePage      0000000180026210     kernel32:KERNEL32.dll
 0002:00000218       \177KERNEL32_NULL_THUNK_DATA 0000000180026218     kernel32:KERNEL32.dll
 0002:00000220       __imp_?Set@Object@v8@@QEAA_NIV?$Local@VValue@v8@@@2@@Z 0000000180026220     iojs:node.dll
 0002:00000228       __imp_?Set@Object@v8@@QEAA_NV?$Local@VValue@v8@@@2@0@Z 0000000180026228     iojs:node.dll
 0002:00000230       __imp_?Get@Object@v8@@QEAA?AV?$Local@VValue@v8@@@2@I@Z 0000000180026230     iojs:node.dll
 0002:00000238       __imp_?Get@Object@v8@@QEAA?AV?$Local@VValue@v8@@@2@V32@@Z 0000000180026238     iojs:node.dll
 0002:00000240       __imp_?New@Object@v8@@SA?AV?$Local@VObject@v8@@@2@PEAVIsolate@2@@Z 0000000180026240     iojs:node.dll
 0002:00000248       __imp_?New@Number@v8@@SA?AV?$Local@VNumber@v8@@@2@PEAVIsolate@2@N@Z 0000000180026248     iojs:node.dll
 0002:00000250       __imp_?NewFromUtf8@String@v8@@SA?AV?$Local@VString@v8@@@2@PEAVIsolate@2@PEBDW4NewStringType@12@H@Z 0000000180026250     iojs:node.dll
 0002:00000258       __imp_?NumberValue@Value@v8@@QEBANXZ 0000000180026258     iojs:node.dll
 0002:00000260       __imp_?Length@Array@v8@@QEBAIXZ 0000000180026260     iojs:node.dll
 0002:00000268       __imp_?New@Array@v8@@SA?AV?$Local@VArray@v8@@@2@PEAVIsolate@2@H@Z 0000000180026268     iojs:node.dll
 0002:00000270       __imp_node_module_register 0000000180026270     iojs:node.dll
 0002:00000278       __imp_?New@ObjectTemplate@v8@@SA?AV?$Local@VObjectTemplate@v8@@@2@PEAVIsolate@2@V?$Local@VFunctionTemplate@v8@@@2@@Z 0000000180026278     iojs:node.dll
 0002:00000280       __imp_?NewInstance@ObjectTemplate@v8@@QEAA?AV?$MaybeLocal@VObject@v8@@@2@V?$Local@VContext@v8@@@2@@Z 0000000180026280     iojs:node.dll
 0002:00000288       __imp_?Set@Object@v8@@QEAA?AV?$Maybe@_N@2@V?$Local@VContext@v8@@@2@V?$Local@VValue@v8@@@2@1@Z 0000000180026288     iojs:node.dll
 0002:00000290       __imp_?SetInternalField@Object@v8@@QEAAXHV?$Local@VValue@v8@@@2@@Z 0000000180026290     iojs:node.dll
 0002:00000298       __imp_?SlowGetInternalField@Object@v8@@AEAA?AV?$Local@VValue@v8@@@2@H@Z 0000000180026298     iojs:node.dll
 0002:000002a0       __imp_?NewFromUtf8@String@v8@@SA?AV?$MaybeLocal@VString@v8@@@2@PEAVIsolate@2@PEBDW4NewStringType@2@H@Z 00000001800262a0     iojs:node.dll
 0002:000002a8       __imp_??0EscapableHandleScope@v8@@QEAA@PEAVIsolate@1@@Z 00000001800262a8     iojs:node.dll
 0002:000002b0       __imp_?Escape@EscapableHandleScope@v8@@AEAAPEAPEAVObject@internal@2@PEAPEAV342@@Z 00000001800262b0     iojs:node.dll
 0002:000002b8       __imp_?ToLocalEmpty@V8@v8@@CAXXZ 00000001800262b8     iojs:node.dll
 0002:000002c0       __imp_?New@FunctionTemplate@v8@@SA?AV?$Local@VFunctionTemplate@v8@@@2@PEAVIsolate@2@P6AXAEBV?$FunctionCallbackInfo@VValue@v8@@@2@@ZV?$Local@VValue@v8@@@2@V?$Local@VSignature@v8@@@2@HW4ConstructorBehavior@2@@Z 00000001800262c0     iojs:node.dll
 0002:000002c8       __imp_?GetFunction@FunctionTemplate@v8@@QEAA?AV?$MaybeLocal@VFunction@v8@@@2@V?$Local@VContext@v8@@@2@@Z 00000001800262c8     iojs:node.dll
 0002:000002d0       __imp_??0HandleScope@v8@@QEAA@PEAVIsolate@1@@Z 00000001800262d0     iojs:node.dll
 0002:000002d8       __imp_??1HandleScope@v8@@QEAA@XZ 00000001800262d8     iojs:node.dll
 0002:000002e0       __imp_?CreateHandle@HandleScope@v8@@CAPEAPEAVObject@internal@2@PEAVHeapObject@42@PEAV342@@Z 00000001800262e0     iojs:node.dll
 0002:000002e8       __imp_?GetCurrent@Isolate@v8@@SAPEAV12@XZ 00000001800262e8     iojs:node.dll
 0002:000002f0       __imp_?GetCurrentContext@Isolate@v8@@QEAA?AV?$Local@VContext@v8@@@2@XZ 00000001800262f0     iojs:node.dll
 0002:000002f8       __imp_?New@External@v8@@SA?AV?$Local@VExternal@v8@@@2@PEAVIsolate@2@PEAX@Z 00000001800262f8     iojs:node.dll
 0002:00000300       __imp_?Value@External@v8@@QEBAPEAXXZ 0000000180026300     iojs:node.dll
 0002:00000308       __imp_?SetInternalFieldCount@ObjectTemplate@v8@@QEAAXH@Z 0000000180026308     iojs:node.dll
 0002:00000310       \177node_NULL_THUNK_DATA   0000000180026310     iojs:node.dll
 0002:00000318       __guard_check_icall_fptr   0000000180026318     LIBCMT:guard_support.obj
 0002:00000320       __guard_dispatch_icall_fptr 0000000180026320     LIBCMT:guard_support.obj
 0002:00000328       __xc_a                     0000000180026328     LIBCMT:initializers.obj
 0002:00000330       _register_addon_           0000000180026330     addon.obj
 0002:00000338       __xc_z                     0000000180026338     LIBCMT:initializers.obj
 0002:00000340       __xi_a                     0000000180026340     LIBCMT:initializers.obj
 0002:00000348       __acrt_multibyte_initializer 0000000180026348     libucrt:multibyte_initializer.obj
 0002:00000350       __acrt_stdio_initializer   0000000180026350     libucrt:stdio_initializer.obj
 0002:00000358       __acrt_tran_fma3_initializer 0000000180026358     libucrt:fma3_initializer.obj
 0002:00000360       __xi_z                     0000000180026360     LIBCMT:initializers.obj
 0002:00000368       __xp_a                     0000000180026368     LIBCMT:initializers.obj
 0002:00000370       __acrt_locale_terminator   0000000180026370     libucrt:locale_initializer.obj
 0002:00000378       __dcrt_console_output_terminator 0000000180026378     libucrt:console_output_initializer.obj
 0002:00000380       __acrt_stdio_terminator    0000000180026380     libucrt:stdio_initializer.obj
 0002:00000388       __xp_z                     0000000180026388     LIBCMT:initializers.obj
 0002:00000390       __xt_a                     0000000180026390     LIBCMT:initializers.obj
 0002:00000398       __xt_z                     0000000180026398     LIBCMT:initializers.obj
 0002:000003a8       ??_7exception@std@@6B@     00000001800263a8     libcpmt:xthrow.obj
 0002:000003b8       ??_C@_0BC@EOODALEL@Unknown?5exception@ 00000001800263b8     libcpmt:xthrow.obj
 0002:000003d8       ??_7bad_alloc@std@@6B@     00000001800263d8     libcpmt:xthrow.obj
 0002:000003e8       ??_C@_0P@GHFPNOJB@bad?5allocation@ 00000001800263e8     libcpmt:xthrow.obj
 0002:00000400       ??_7logic_error@std@@6B@   0000000180026400     libcpmt:xthrow.obj
 0002:00000418       ??_7length_error@std@@6B@  0000000180026418     libcpmt:xthrow.obj
 0002:00000428       _pDefaultRawDllMain        0000000180026428     LIBCMT:dll_dllmain.obj
 0002:00000428       _pRawDllMain               0000000180026428     LIBCMT:dll_dllmain.obj
 0002:00000438       ??_7type_info@@6B@         0000000180026438     LIBCMT:std_type_info_static.obj
 0002:00000458       ??_7bad_array_new_length@std@@6B@ 0000000180026458     LIBCMT:throw_bad_alloc.obj
 0002:00000468       ??_C@_0BF@KINCDENJ@bad?5array?5new?5length@ 0000000180026468     LIBCMT:throw_bad_alloc.obj
 0002:000004c0       _pDestructExceptionObject  00000001800264c0     libvcruntime:ehhelpers.obj
 0002:00000808       ??_C@_08EHJDFFNH@__based?$CI@ 0000000180026808     libvcruntime:undname.obj
 0002:00000818       ??_C@_07KOLFKCDI@__cdecl@  0000000180026818     libvcruntime:undname.obj
 0002:00000820       ??_C@_08GHMPAG@__pascal@   0000000180026820     libvcruntime:undname.obj
 0002:00000830       ??_C@_09IFJBGAPI@__stdcall@ 0000000180026830     libvcruntime:undname.obj
 0002:00000840       ??_C@_0L@NPHFGOKO@__thiscall@ 0000000180026840     libvcruntime:undname.obj
 0002:00000850       ??_C@_0L@JMKHOMEK@__fastcall@ 0000000180026850     libvcruntime:undname.obj
 0002:00000860       ??_C@_0N@BCKKPABJ@__vectorcall@ 0000000180026860     libvcruntime:undname.obj
 0002:00000870       ??_C@_09HIJEGCPM@__clrcall@ 0000000180026870     libvcruntime:undname.obj
 0002:0000087c       ??_C@_06GHPCKEAG@__eabi@   000000018002687c     libvcruntime:undname.obj
 0002:00000888       ??_C@_09IOPIDJLG@__swift_1@ 0000000180026888     libvcruntime:undname.obj
 0002:00000898       ??_C@_09KFNFGKHF@__swift_2@ 0000000180026898     libvcruntime:undname.obj
 0002:000008a8       ??_C@_07JOMMBBKO@__ptr64@  00000001800268a8     libvcruntime:undname.obj
 0002:000008b0       ??_C@_0L@PILCLIHE@__restrict@ 00000001800268b0     libvcruntime:undname.obj
 0002:000008c0       ??_C@_0M@GFIIJFMG@__unaligned@ 00000001800268c0     libvcruntime:undname.obj
 0002:000008d0       ??_C@_09DHDLOLLB@restrict?$CI@ 00000001800268d0     libvcruntime:undname.obj
 0002:000008da       ??_C@_00CNPNBAHC@@         00000001800268da     libvcruntime:undname.obj
 0002:000008dc       ??_C@_04NIHEBCM@?5new@     00000001800268dc     libvcruntime:undname.obj
 0002:000008e8       ??_C@_07FPCDHGMM@?5delete@ 00000001800268e8     libvcruntime:undname.obj
 0002:000008f0       ??_C@_01NEMOKFLO@?$DN@     00000001800268f0     libvcruntime:undname.obj
 0002:000008f4       ??_C@_02GPIOPFAK@?$DO?$DO@ 00000001800268f4     libvcruntime:undname.obj
 0002:000008f8       ??_C@_02FODMEDOG@?$DM?$DM@ 00000001800268f8     libvcruntime:undname.obj
 0002:000008fc       ??_C@_01DCLJPIOD@?$CB@     00000001800268fc     libvcruntime:undname.obj
 0002:00000900       ??_C@_02EGOFBIJA@?$DN?$DN@ 0000000180026900     libvcruntime:undname.obj
 0002:00000904       ??_C@_02FDNJECIE@?$CB?$DN@ 0000000180026904     libvcruntime:undname.obj
 0002:00000908       ??_C@_02GPECMEKF@?$FL?$FN@ 0000000180026908     libvcruntime:undname.obj
 0002:00000910       ??_C@_08LHJFAFGD@operator@ 0000000180026910     libvcruntime:undname.obj
 0002:0000091c       ??_C@_02HBOOOICD@?9?$DO@   000000018002691c     libvcruntime:undname.obj
 0002:00000920       ??_C@_01NBENCBCI@?$CK@     0000000180026920     libvcruntime:undname.obj
 0002:00000924       ??_C@_02ECNGHCIF@?$CL?$CL@ 0000000180026924     libvcruntime:undname.obj
 0002:00000928       ??_C@_02BAABKJLB@?9?9@     0000000180026928     libvcruntime:undname.obj
 0002:0000092c       ??_C@_01JOAMLHOP@?9@       000000018002692c     libvcruntime:undname.obj
 0002:00000930       ??_C@_01MIFGBAGJ@?$CL@     0000000180026930     libvcruntime:undname.obj
 0002:00000934       ??_C@_01HNPIGOCE@?$CG@     0000000180026934     libvcruntime:undname.obj
 0002:00000938       ??_C@_03MNHNFDLC@?9?$DO?$CK@ 0000000180026938     libvcruntime:undname.obj
 0002:0000093c       ??_C@_01KMDKNFGN@?1@       000000018002693c     libvcruntime:undname.obj
 0002:00000940       ??_C@_01FGNFDNOH@?$CF@     0000000180026940     libvcruntime:undname.obj
 0002:00000944       ??_C@_01MNNFJEPP@?$DM@     0000000180026944     libvcruntime:undname.obj
 0002:00000948       ??_C@_02EHCHHCKH@?$DM?$DN@ 0000000180026948     libvcruntime:undname.obj
 0002:0000094c       ??_C@_01PPODPGHN@?$DO@     000000018002694c     libvcruntime:undname.obj
 0002:00000950       ??_C@_02EEKDKGMJ@?$DO?$DN@ 0000000180026950     libvcruntime:undname.obj
 0002:00000954       ??_C@_01IHBHIGKO@?0@       0000000180026954     libvcruntime:undname.obj
 0002:00000958       ??_C@_02HCKGKOFO@?$CI?$CJ@ 0000000180026958     libvcruntime:undname.obj
 0002:0000095c       ??_C@_01PJKLJHI@?$HO@      000000018002695c     libvcruntime:undname.obj
 0002:00000960       ??_C@_01JKBOJNNK@?$FO@     0000000180026960     libvcruntime:undname.obj
 0002:00000964       ??_C@_01DNKMNLPK@?$HM@     0000000180026964     libvcruntime:undname.obj
 0002:00000968       ??_C@_02PPKAJPJL@?$CG?$CG@ 0000000180026968     libvcruntime:undname.obj
 0002:0000096c       ??_C@_02NONPIBCD@?$HM?$HM@ 000000018002696c     libvcruntime:undname.obj
 0002:00000970       ??_C@_02FPIMKNGF@?$CK?$DN@ 0000000180026970     libvcruntime:undname.obj
 0002:00000974       ??_C@_02FOEOMHFC@?$CL?$DN@ 0000000180026974     libvcruntime:undname.obj
 0002:00000978       ??_C@_02FKMDLLOA@?9?$DN@   0000000180026978     libvcruntime:undname.obj
 0002:0000097c       ??_C@_02FJEHGPIO@?1?$DN@   000000018002697c     libvcruntime:undname.obj
 0002:00000980       ??_C@_02FENAOKFI@?$CF?$DN@ 0000000180026980     libvcruntime:undname.obj
 0002:00000984       ??_C@_03IKFCCPFF@?$DO?$DO?$DN@ 0000000180026984     libvcruntime:undname.obj
 0002:00000988       ??_C@_03CDNPDDLA@?$DM?$DM?$DN@ 0000000180026988     libvcruntime:undname.obj
 0002:0000098c       ??_C@_02FGJGFEAB@?$CG?$DN@ 000000018002698c     libvcruntime:undname.obj
 0002:00000990       ??_C@_02DHLNPPGH@?$HM?$DN@ 0000000180026990     libvcruntime:undname.obj
 0002:00000994       ??_C@_02MHEGNOJ@?$FO?$DN@  0000000180026994     libvcruntime:undname.obj
 0002:00000998       ??_C@_09IFPLHPGF@?$GAvftable?8@ 0000000180026998     libvcruntime:undname.obj
 0002:000009a8       ??_C@_09BLBHBJP@?$GAvbtable?8@ 00000001800269a8     libvcruntime:undname.obj
 0002:000009b8       ??_C@_07FEEIOKP@?$GAvcall?8@ 00000001800269b8     libvcruntime:undname.obj
 0002:000009c0       ??_C@_08LLFFHHDJ@?$GAtypeof?8@ 00000001800269c0     libvcruntime:undname.obj
 0002:000009d0       ??_C@_0BF@KDPPACIK@?$GAlocal?5static?5guard?8@ 00000001800269d0     libvcruntime:undname.obj
 0002:000009e8       ??_C@_08OBABFOLI@?$GAstring?8@ 00000001800269e8     libvcruntime:undname.obj
 0002:000009f8       ??_C@_0BD@JDLKDPAB@?$GAvbase?5destructor?8@ 00000001800269f8     libvcruntime:undname.obj
 0002:00000a10       ??_C@_0BN@DEGPLNFK@?$GAvector?5deleting?5destructor?8@ 0000000180026a10     libvcruntime:undname.obj
 0002:00000a30       ??_C@_0BO@OBMKPJIG@?$GAdefault?5constructor?5closure?8@ 0000000180026a30     libvcruntime:undname.obj
 0002:00000a50       ??_C@_0BN@IMDCHIKM@?$GAscalar?5deleting?5destructor?8@ 0000000180026a50     libvcruntime:undname.obj
 0002:00000a70       ??_C@_0BO@PFGOCPJJ@?$GAvector?5constructor?5iterator?8@ 0000000180026a70     libvcruntime:undname.obj
 0002:00000a90       ??_C@_0BN@LFPFMEDL@?$GAvector?5destructor?5iterator?8@ 0000000180026a90     libvcruntime:undname.obj
 0002:00000ab0       ??_C@_0CE@IKBNEHA@?$GAvector?5vbase?5constructor?5itera@ 0000000180026ab0     libvcruntime:undname.obj
 0002:00000ad8       ??_C@_0BL@NILFHHPC@?$GAvirtual?5displacement?5map?8@ 0000000180026ad8     libvcruntime:undname.obj
 0002:00000af8       ??_C@_0CB@JONCMFFK@?$GAeh?5vector?5constructor?5iterator@ 0000000180026af8     libvcruntime:undname.obj
 0002:00000b20       ??_C@_0CA@GCEOPDGL@?$GAeh?5vector?5destructor?5iterator?8@ 0000000180026b20     libvcruntime:undname.obj
 0002:00000b40       ??_C@_0CH@OOJPLCPH@?$GAeh?5vector?5vbase?5constructor?5it@ 0000000180026b40     libvcruntime:undname.obj
 0002:00000b68       ??_C@_0BL@LLKPOHJI@?$GAcopy?5constructor?5closure?8@ 0000000180026b68     libvcruntime:undname.obj
 0002:00000b88       ??_C@_0BA@KBCDOMBN@?$GAudt?5returning?8@ 0000000180026b88     libvcruntime:undname.obj
 0002:00000b98       ??_C@_03KLGMFNMG@?$GAEH@   0000000180026b98     libvcruntime:undname.obj
 0002:00000b9c       ??_C@_05KHLCHHI@?$GARTTI@  0000000180026b9c     libvcruntime:undname.obj
 0002:00000ba8       ??_C@_0BA@KKLDJDLB@?$GAlocal?5vftable?8@ 0000000180026ba8     libvcruntime:undname.obj
 0002:00000bb8       ??_C@_0CE@IIHCMGGL@?$GAlocal?5vftable?5constructor?5clos@ 0000000180026bb8     libvcruntime:undname.obj
 0002:00000bdc       ??_C@_06FHBGPFGH@?5new?$FL?$FN@ 0000000180026bdc     libvcruntime:undname.obj
 0002:00000be8       ??_C@_09LBNFPBCA@?5delete?$FL?$FN@ 0000000180026be8     libvcruntime:undname.obj
 0002:00000bf8       ??_C@_0P@HJKNJFNN@?$GAomni?5callsig?8@ 0000000180026bf8     libvcruntime:undname.obj
 0002:00000c08       ??_C@_0BL@CNOONJFP@?$GAplacement?5delete?5closure?8@ 0000000180026c08     libvcruntime:undname.obj
 0002:00000c28       ??_C@_0BN@CKNJLHMB@?$GAplacement?5delete?$FL?$FN?5closure?8@ 0000000180026c28     libvcruntime:undname.obj
 0002:00000c48       ??_C@_0CG@CFDHKGGD@?$GAmanaged?5vector?5constructor?5ite@ 0000000180026c48     libvcruntime:undname.obj
 0002:00000c70       ??_C@_0CF@IMGKMJNO@?$GAmanaged?5vector?5destructor?5iter@ 0000000180026c70     libvcruntime:undname.obj
 0002:00000c98       ??_C@_0CG@HLDDJMAG@?$GAeh?5vector?5copy?5constructor?5ite@ 0000000180026c98     libvcruntime:undname.obj
 0002:00000cc0       ??_C@_0CM@FCBBDIGB@?$GAeh?5vector?5vbase?5copy?5construct@ 0000000180026cc0     libvcruntime:undname.obj
 0002:00000cf0       ??_C@_0BL@CLIPGLGB@?$GAdynamic?5initializer?5for?5?8@ 0000000180026cf0     libvcruntime:undname.obj
 0002:00000d10       ??_C@_0CB@PDBIFEP@?$GAdynamic?5atexit?5destructor?5for?5@ 0000000180026d10     libvcruntime:undname.obj
 0002:00000d38       ??_C@_0CD@CGAJBKEJ@?$GAvector?5copy?5constructor?5iterat@ 0000000180026d38     libvcruntime:undname.obj
 0002:00000d60       ??_C@_0CJ@GJELGAMM@?$GAvector?5vbase?5copy?5constructor?5@ 0000000180026d60     libvcruntime:undname.obj
 0002:00000d90       ??_C@_0CL@FGIJHLCE@?$GAmanaged?5vector?5copy?5constructo@ 0000000180026d90     libvcruntime:undname.obj
 0002:00000dc0       ??_C@_0BM@PMGGMLDN@?$GAlocal?5static?5thread?5guard?8@ 0000000180026dc0     libvcruntime:undname.obj
 0002:00000de0       ??_C@_0N@BDNMDMOL@operator?5?$CC?$CC?5@ 0000000180026de0     libvcruntime:undname.obj
 0002:00000df0       ??_C@_0BC@GGEBGALA@operator?5co_await@ 0000000180026df0     libvcruntime:undname.obj
 0002:00000e08       ??_C@_0BC@DAFEJGAK@?5Type?5Descriptor?8@ 0000000180026e08     libvcruntime:undname.obj
 0002:00000e20       ??_C@_0BM@LDKODKLH@?5Base?5Class?5Descriptor?5at?5?$CI@ 0000000180026e20     libvcruntime:undname.obj
 0002:00000e40       ??_C@_0BD@LGICGFMM@?5Base?5Class?5Array?8@ 0000000180026e40     libvcruntime:undname.obj
 0002:00000e58       ??_C@_0BN@MECKDCOJ@?5Class?5Hierarchy?5Descriptor?8@ 0000000180026e58     libvcruntime:undname.obj
 0002:00000e78       ??_C@_0BK@CFCOFLF@?5Complete?5Object?5Locator?8@ 0000000180026e78     libvcruntime:undname.obj
 0002:00000eb0       ??_C@_1DM@KHCHBNEB@?$AAa?$AAp?$AAi?$AA?9?$AAm?$AAs?$AA?9?$AAw?$AAi?$AAn?$AA?9?$AAc?$AAo?$AAr?$AAe@ 0000000180026eb0     libvcruntime:winapi_downlevel.obj
 0002:00000ef0       ??_C@_1DK@LPPGFMPP@?$AAa?$AAp?$AAi?$AA?9?$AAm?$AAs?$AA?9?$AAw?$AAi?$AAn?$AA?9?$AAc?$AAo?$AAr?$AAe@ 0000000180026ef0     libvcruntime:winapi_downlevel.obj
 0002:00000f30       ??_C@_1BC@GDMECMAK@?$AAk?$AAe?$AAr?$AAn?$AAe?$AAl?$AA3?$AA2@ 0000000180026f30     libvcruntime:winapi_downlevel.obj
 0002:00000f48       ??_C@_1BA@PFFKHIOG@?$AAa?$AAp?$AAi?$AA?9?$AAm?$AAs?$AA?9@ 0000000180026f48     libvcruntime:winapi_downlevel.obj
 0002:00000f58       ??_C@_1BA@IAIFMGEF@?$AAe?$AAx?$AAt?$AA?9?$AAm?$AAs?$AA?9@ 0000000180026f58     libvcruntime:winapi_downlevel.obj
 0002:00000f70       ??_C@_08KNHFBNJ@FlsAlloc@  0000000180026f70     libvcruntime:winapi_downlevel.obj
 0002:00000f88       ??_C@_07PEJMOBNF@FlsFree@  0000000180026f88     libvcruntime:winapi_downlevel.obj
 0002:00000f98       ??_C@_0M@GDNOONDI@FlsGetValue@ 0000000180026f98     libvcruntime:winapi_downlevel.obj
 0002:00000fb0       ??_C@_0M@JCPCPOEF@FlsSetValue@ 0000000180026fb0     libvcruntime:winapi_downlevel.obj
 0002:00000fc8       ??_C@_0BM@HCFOFFN@InitializeCriticalSectionEx@ 0000000180026fc8     libvcruntime:winapi_downlevel.obj
 0002:00000ff0       __acrt_exception_action_table 0000000180026ff0     libucrt:exception_filter.obj
 0002:000010b0       __acrt_signal_action_table_count 00000001800270b0     libucrt:exception_filter.obj
 0002:000010b8       __acrt_signal_action_first_fpe_index 00000001800270b8     libucrt:exception_filter.obj
 0002:000010c0       __acrt_signal_action_fpe_count 00000001800270c0     libucrt:exception_filter.obj
 0002:000010c8       ??_C@_1BI@BGOHAHKC@?$AAm?$AAs?$AAc?$AAo?$AAr?$AAe?$AAe?$AA?4?$AAd?$AAl?$AAl?$AA?$AA@ 00000001800270c8     libucrt:exit.obj
 0002:000010e0       ??_C@_0P@MIGLKIOC@CorExitProcess?$AA@ 00000001800270e0     libucrt:exit.obj
 0002:00001360       __lc_time_c                0000000180027360     libucrt:nlsdata.obj
 0002:00001620       ??_C@_03KOEHGMDN@Sun?$AA@  0000000180027620     libucrt:nlsdata.obj
 0002:00001624       ??_C@_03PDAGKDH@Mon?$AA@   0000000180027624     libucrt:nlsdata.obj
 0002:00001628       ??_C@_03NAGEINEP@Tue?$AA@  0000000180027628     libucrt:nlsdata.obj
 0002:0000162c       ??_C@_03MHOMLAJA@Wed?$AA@  000000018002762c     libucrt:nlsdata.obj
 0002:00001630       ??_C@_03IOFIKPDN@Thu?$AA@  0000000180027630     libucrt:nlsdata.obj
 0002:00001634       ??_C@_03IDIOELNC@Fri?$AA@  0000000180027634     libucrt:nlsdata.obj
 0002:00001638       ??_C@_03FEFJNEK@Sat?$AA@   0000000180027638     libucrt:nlsdata.obj
 0002:0000163c       ??_C@_06OOPIFAJ@Sunday?$AA@ 000000018002763c     libucrt:nlsdata.obj
 0002:00001644       ??_C@_06JLEDEDGH@Monday?$AA@ 0000000180027644     libucrt:nlsdata.obj
 0002:00001650       ??_C@_07BAAGCFCM@Tuesday?$AA@ 0000000180027650     libucrt:nlsdata.obj
 0002:00001658       ??_C@_09DLIGFAKA@Wednesday?$AA@ 0000000180027658     libucrt:nlsdata.obj
 0002:00001668       ??_C@_08HACCIKIA@Thursday?$AA@ 0000000180027668     libucrt:nlsdata.obj
 0002:00001674       ??_C@_06JECMNKMI@Friday?$AA@ 0000000180027674     libucrt:nlsdata.obj
 0002:00001680       ??_C@_08INBOOONO@Saturday?$AA@ 0000000180027680     libucrt:nlsdata.obj
 0002:0000168c       ??_C@_03JIHJHPIE@Jan?$AA@  000000018002768c     libucrt:nlsdata.obj
 0002:00001690       ??_C@_03HJBDCHOM@Feb?$AA@  0000000180027690     libucrt:nlsdata.obj
 0002:00001694       ??_C@_03ODNJBKGA@Mar?$AA@  0000000180027694     libucrt:nlsdata.obj
 0002:00001698       ??_C@_03LEOLGMJP@Apr?$AA@  0000000180027698     libucrt:nlsdata.obj
 0002:0000169c       ??_C@_03CNMDKL@May?$AA@    000000018002769c     libucrt:nlsdata.obj
 0002:000016a0       ??_C@_03IDFGHECI@Jun?$AA@  00000001800276a0     libucrt:nlsdata.obj
 0002:000016a4       ??_C@_03LBGABGKK@Jul?$AA@  00000001800276a4     libucrt:nlsdata.obj
 0002:000016a8       ??_C@_03IFJFEIGA@Aug?$AA@  00000001800276a8     libucrt:nlsdata.obj
 0002:000016ac       ??_C@_03GGCAPAJC@Sep?$AA@  00000001800276ac     libucrt:nlsdata.obj
 0002:000016b0       ??_C@_03BMAOKBAD@Oct?$AA@  00000001800276b0     libucrt:nlsdata.obj
 0002:000016b4       ??_C@_03JPJOFNIA@Nov?$AA@  00000001800276b4     libucrt:nlsdata.obj
 0002:000016b8       ??_C@_03MKABNOCG@Dec?$AA@  00000001800276b8     libucrt:nlsdata.obj
 0002:000016c0       ??_C@_07CGJPFGJA@January?$AA@ 00000001800276c0     libucrt:nlsdata.obj
 0002:000016c8       ??_C@_08GNJGEPFN@February?$AA@ 00000001800276c8     libucrt:nlsdata.obj
 0002:000016d4       ??_C@_05HPCKOFNC@March?$AA@ 00000001800276d4     libucrt:nlsdata.obj
 0002:000016dc       ??_C@_05DMJDNLEJ@April?$AA@ 00000001800276dc     libucrt:nlsdata.obj
 0002:000016e4       ??_C@_04CNLMGBGM@June?$AA@ 00000001800276e4     libucrt:nlsdata.obj
 0002:000016ec       ??_C@_04MIEPOIFP@July?$AA@ 00000001800276ec     libucrt:nlsdata.obj
 0002:000016f4       ??_C@_06LBBHFDDG@August?$AA@ 00000001800276f4     libucrt:nlsdata.obj
 0002:00001700       ??_C@_09BHHEALKD@September?$AA@ 0000000180027700     libucrt:nlsdata.obj
 0002:00001710       ??_C@_07JJNFCEND@October?$AA@ 0000000180027710     libucrt:nlsdata.obj
 0002:00001718       ??_C@_08HCHEGEOA@November?$AA@ 0000000180027718     libucrt:nlsdata.obj
 0002:00001728       ??_C@_08EDHMEBNP@December?$AA@ 0000000180027728     libucrt:nlsdata.obj
 0002:00001734       ??_C@_02DEDBPAFC@AM?$AA@   0000000180027734     libucrt:nlsdata.obj
 0002:00001738       ??_C@_02CJNFDJBF@PM?$AA@   0000000180027738     libucrt:nlsdata.obj
 0002:00001740       ??_C@_08BPBNCDIB@MM?1dd?1yy?$AA@ 0000000180027740     libucrt:nlsdata.obj
 0002:00001750       ??_C@_0BE@CKGJFCPC@dddd?0?5MMMM?5dd?0?5yyyy?$AA@ 0000000180027750     libucrt:nlsdata.obj
 0002:00001768       ??_C@_08JCCMCCIL@HH?3mm?3ss?$AA@ 0000000180027768     libucrt:nlsdata.obj
 0002:00001778       ??_C@_17MBGCMIPB@?$AAS?$AAu?$AAn?$AA?$AA@ 0000000180027778     libucrt:nlsdata.obj
 0002:00001780       ??_C@_17KBOMKBF@?$AAM?$AAo?$AAn?$AA?$AA@ 0000000180027780     libucrt:nlsdata.obj
 0002:00001788       ??_C@_17BMKGEGOJ@?$AAT?$AAu?$AAe?$AA?$AA@ 0000000180027788     libucrt:nlsdata.obj
 0002:00001790       ??_C@_17CJEDCEPE@?$AAW?$AAe?$AAd?$AA?$AA@ 0000000180027790     libucrt:nlsdata.obj
 0002:00001798       ??_C@_17PDPHAADD@?$AAT?$AAh?$AAu?$AA?$AA@ 0000000180027798     libucrt:nlsdata.obj
 0002:000017a0       ??_C@_17HFOLPPLP@?$AAF?$AAr?$AAi?$AA?$AA@ 00000001800277a0     libucrt:nlsdata.obj
 0002:000017a8       ??_C@_17GGIBDPIH@?$AAS?$AAa?$AAt?$AA?$AA@ 00000001800277a8     libucrt:nlsdata.obj
 0002:000017b0       ??_C@_1O@IHNHDHPB@?$AAS?$AAu?$AAn?$AAd?$AAa?$AAy?$AA?$AA@ 00000001800277b0     libucrt:nlsdata.obj
 0002:000017c0       ??_C@_1O@MMNBFLIA@?$AAM?$AAo?$AAn?$AAd?$AAa?$AAy?$AA?$AA@ 00000001800277c0     libucrt:nlsdata.obj
 0002:000017d0       ??_C@_1BA@ENFBFFEK@?$AAT?$AAu?$AAe?$AAs?$AAd?$AAa?$AAy?$AA?$AA@ 00000001800277d0     libucrt:nlsdata.obj
 0002:000017e0       ??_C@_1BE@EBOGMDOH@?$AAW?$AAe?$AAd?$AAn?$AAe?$AAs?$AAd?$AAa?$AAy?$AA?$AA@ 00000001800277e0     libucrt:nlsdata.obj
 0002:000017f8       ??_C@_1BC@HHMNLIHE@?$AAT?$AAh?$AAu?$AAr?$AAs?$AAd?$AAa?$AAy?$AA?$AA@ 00000001800277f8     libucrt:nlsdata.obj
 0002:00001810       ??_C@_1O@PDICJHAG@?$AAF?$AAr?$AAi?$AAd?$AAa?$AAy?$AA?$AA@ 0000000180027810     libucrt:nlsdata.obj
 0002:00001820       ??_C@_1BC@ENMNNPAJ@?$AAS?$AAa?$AAt?$AAu?$AAr?$AAd?$AAa?$AAy?$AA?$AA@ 0000000180027820     libucrt:nlsdata.obj
 0002:00001838       ??_C@_17DKNBKCHM@?$AAJ?$AAa?$AAn?$AA?$AA@ 0000000180027838     libucrt:nlsdata.obj
 0002:00001840       ??_C@_17LMDJEKJN@?$AAF?$AAe?$AAb?$AA?$AA@ 0000000180027840     libucrt:nlsdata.obj
 0002:00001848       ??_C@_17CKNLEDEC@?$AAM?$AAa?$AAr?$AA?$AA@ 0000000180027848     libucrt:nlsdata.obj
 0002:00001850       ??_C@_17LFPOIHDD@?$AAA?$AAp?$AAr?$AA?$AA@ 0000000180027850     libucrt:nlsdata.obj
 0002:00001858       ??_C@_17PNNKMEED@?$AAM?$AAa?$AAy?$AA?$AA@ 0000000180027858     libucrt:nlsdata.obj
 0002:00001860       ??_C@_17KCJGOCPB@?$AAJ?$AAu?$AAn?$AA?$AA@ 0000000180027860     libucrt:nlsdata.obj
 0002:00001868       ??_C@_17IJPCKHK@?$AAJ?$AAu?$AAl?$AA?$AA@ 0000000180027868     libucrt:nlsdata.obj
 0002:00001870       ??_C@_17ICPELBCN@?$AAA?$AAu?$AAg?$AA?$AA@ 0000000180027870     libucrt:nlsdata.obj
 0002:00001878       ??_C@_17HCHCOKMG@?$AAS?$AAe?$AAp?$AA?$AA@ 0000000180027878     libucrt:nlsdata.obj
 0002:00001880       ??_C@_17FNLKOI@?$AAO?$AAc?$AAt?$AA?$AA@ 0000000180027880     libucrt:nlsdata.obj
 0002:00001888       ??_C@_17BBDMLCIG@?$AAN?$AAo?$AAv?$AA?$AA@ 0000000180027888     libucrt:nlsdata.obj
 0002:00001890       ??_C@_17EGKACKIF@?$AAD?$AAe?$AAc?$AA?$AA@ 0000000180027890     libucrt:nlsdata.obj
 0002:00001898       ??_C@_1BA@EFMEIEBA@?$AAJ?$AAa?$AAn?$AAu?$AAa?$AAr?$AAy?$AA?$AA@ 0000000180027898     libucrt:nlsdata.obj
 0002:000018a8       ??_C@_1BC@JGDDFFAM@?$AAF?$AAe?$AAb?$AAr?$AAu?$AAa?$AAr?$AAy?$AA?$AA@ 00000001800278a8     libucrt:nlsdata.obj
 0002:000018c0       ??_C@_1M@IKEENEDF@?$AAM?$AAa?$AAr?$AAc?$AAh?$AA?$AA@ 00000001800278c0     libucrt:nlsdata.obj
 0002:000018d0       ??_C@_1M@GJNLMHFD@?$AAA?$AAp?$AAr?$AAi?$AAl?$AA?$AA@ 00000001800278d0     libucrt:nlsdata.obj
 0002:000018e0       ??_C@_19EPFLPGAP@?$AAJ?$AAu?$AAn?$AAe?$AA?$AA@ 00000001800278e0     libucrt:nlsdata.obj
 0002:000018f0       ??_C@_19BIFMLPCD@?$AAJ?$AAu?$AAl?$AAy?$AA?$AA@ 00000001800278f0     libucrt:nlsdata.obj
 0002:00001900       ??_C@_1O@PAHLKOAC@?$AAA?$AAu?$AAg?$AAu?$AAs?$AAt?$AA?$AA@ 0000000180027900     libucrt:nlsdata.obj
 0002:00001910       ??_C@_1BE@DKAAMBJL@?$AAS?$AAe?$AAp?$AAt?$AAe?$AAm?$AAb?$AAe?$AAr?$AA?$AA@ 0000000180027910     libucrt:nlsdata.obj
 0002:00001928       ??_C@_1BA@EPANDLNG@?$AAO?$AAc?$AAt?$AAo?$AAb?$AAe?$AAr?$AA?$AA@ 0000000180027928     libucrt:nlsdata.obj
 0002:00001938       ??_C@_1BC@BGLIFPF@?$AAN?$AAo?$AAv?$AAe?$AAm?$AAb?$AAe?$AAr?$AA?$AA@ 0000000180027938     libucrt:nlsdata.obj
 0002:00001950       ??_C@_1BC@FEMKIFH@?$AAD?$AAe?$AAc?$AAe?$AAm?$AAb?$AAe?$AAr?$AA?$AA@ 0000000180027950     libucrt:nlsdata.obj
 0002:00001964       ??_C@_15ODEHAHHF@?$AAA?$AAM?$AA?$AA@ 0000000180027964     libucrt:nlsdata.obj
 0002:0000196c       ??_C@_15CLMNNGEL@?$AAP?$AAM?$AA?$AA@ 000000018002796c     libucrt:nlsdata.obj
 0002:00001978       ??_C@_1BC@IEBCMHCM@?$AAM?$AAM?$AA?1?$AAd?$AAd?$AA?1?$AAy?$AAy?$AA?$AA@ 0000000180027978     libucrt:nlsdata.obj
 0002:00001990       ??_C@_1CI@KNAKOEBC@?$AAd?$AAd?$AAd?$AAd?$AA?0?$AA?5?$AAM?$AAM?$AAM?$AAM?$AA?5?$AAd?$AAd?$AA?0?$AA?5?$AAy?$AAy?$AAy?$AAy?$AA?$AA@ 0000000180027990     libucrt:nlsdata.obj
 0002:000019b8       ??_C@_1BC@GDGBMEMK@?$AAH?$AAH?$AA?3?$AAm?$AAm?$AA?3?$AAs?$AAs?$AA?$AA@ 00000001800279b8     libucrt:nlsdata.obj
 0002:000019d0       ??_C@_1M@BMHNFIME@?$AAe?$AAn?$AA?9?$AAU?$AAS?$AA?$AA@ 00000001800279d0     libucrt:nlsdata.obj
 0002:00001a00       ??_C@_1M@HPNHIDJI@?$AAj?$AAa?$AA?9?$AAJ?$AAP?$AA?$AA@ 0000000180027a00     libucrt:mbctype.obj
 0002:00001a10       ??_C@_1M@BIBDDEMK@?$AAz?$AAh?$AA?9?$AAC?$AAN?$AA?$AA@ 0000000180027a10     libucrt:mbctype.obj
 0002:00001a20       ??_C@_1M@JLOOOEGK@?$AAk?$AAo?$AA?9?$AAK?$AAR?$AA?$AA@ 0000000180027a20     libucrt:mbctype.obj
 0002:00001a30       ??_C@_1M@CLNBBOPM@?$AAz?$AAh?$AA?9?$AAT?$AAW?$AA?$AA@ 0000000180027a30     libucrt:mbctype.obj
 0002:00001ae0       ??_C@_1EA@JGEFHKEI@?$AAa?$AAp?$AAi?$AA?9?$AAm?$AAs?$AA?9?$AAw?$AAi?$AAn?$AA?9?$AAc?$AAo?$AAr?$AAe?$AA?9?$AAd?$AAa?$AAt?$AAe?$AAt?$AAi?$AAm?$AAe?$AA?9?$AAl?$AA1?$AA?9?$AA1?$AA?9?$AA1?$AA?$AA@ 0000000180027ae0     libucrt:winapi_thunks.obj
 0002:00001b20       ??_C@_1DM@KHCHBNEB@?$AAa?$AAp?$AAi?$AA?9?$AAm?$AAs?$AA?9?$AAw?$AAi?$AAn?$AA?9?$AAc?$AAo?$AAr?$AAe?$AA?9?$AAf?$AAi?$AAb?$AAe?$AAr?$AAs?$AA?9?$AAl?$AA1?$AA?9?$AA1?$AA?9?$AA1?$AA?$AA@ 0000000180027b20     libucrt:winapi_thunks.obj
 0002:00001b60       ??_C@_1DI@IJCEHOCB@?$AAa?$AAp?$AAi?$AA?9?$AAm?$AAs?$AA?9?$AAw?$AAi?$AAn?$AA?9?$AAc?$AAo?$AAr?$AAe?$AA?9?$AAf?$AAi?$AAl?$AAe?$AA?9?$AAl?$AA1?$AA?9?$AA2?$AA?9?$AA2?$AA?$AA@ 0000000180027b60     libucrt:winapi_thunks.obj
 0002:00001ba0       ??_C@_1EI@MPIAOHOC@?$AAa?$AAp?$AAi?$AA?9?$AAm?$AAs?$AA?9?$AAw?$AAi?$AAn?$AA?9?$AAc?$AAo?$AAr?$AAe?$AA?9?$AAl?$AAo?$AAc?$AAa?$AAl?$AAi?$AAz?$AAa?$AAt?$AAi?$AAo?$AAn?$AA?9?$AAl?$AA1?$AA?9@ 0000000180027ba0     libucrt:winapi_thunks.obj
 0002:00001bf0       ??_C@_1FK@FPHCKFIE@?$AAa?$AAp?$AAi?$AA?9?$AAm?$AAs?$AA?9?$AAw?$AAi?$AAn?$AA?9?$AAc?$AAo?$AAr?$AAe?$AA?9?$AAl?$AAo?$AAc?$AAa?$AAl?$AAi?$AAz?$AAa?$AAt?$AAi?$AAo?$AAn?$AA?9?$AAo?$AAb?$AAs@ 0000000180027bf0     libucrt:winapi_thunks.obj
 0002:00001c50       ??_C@_1EM@DILCGIIO@?$AAa?$AAp?$AAi?$AA?9?$AAm?$AAs?$AA?9?$AAw?$AAi?$AAn?$AA?9?$AAc?$AAo?$AAr?$AAe?$AA?9?$AAp?$AAr?$AAo?$AAc?$AAe?$AAs?$AAs?$AAt?$AAh?$AAr?$AAe?$AAa?$AAd?$AAs?$AA?9?$AAl@ 0000000180027c50     libucrt:winapi_thunks.obj
 0002:00001ca0       ??_C@_1DM@LNCGDDPN@?$AAa?$AAp?$AAi?$AA?9?$AAm?$AAs?$AA?9?$AAw?$AAi?$AAn?$AA?9?$AAc?$AAo?$AAr?$AAe?$AA?9?$AAs?$AAt?$AAr?$AAi?$AAn?$AAg?$AA?9?$AAl?$AA1?$AA?9?$AA1?$AA?9?$AA0?$AA?$AA@ 0000000180027ca0     libucrt:winapi_thunks.obj
 0002:00001ce0       ??_C@_1DK@LPPGFMPP@?$AAa?$AAp?$AAi?$AA?9?$AAm?$AAs?$AA?9?$AAw?$AAi?$AAn?$AA?9?$AAc?$AAo?$AAr?$AAe?$AA?9?$AAs?$AAy?$AAn?$AAc?$AAh?$AA?9?$AAl?$AA1?$AA?9?$AA2?$AA?9?$AA0?$AA?$AA@ 0000000180027ce0     libucrt:winapi_thunks.obj
 0002:00001d20       ??_C@_1DO@FPAPJEMD@?$AAa?$AAp?$AAi?$AA?9?$AAm?$AAs?$AA?9?$AAw?$AAi?$AAn?$AA?9?$AAc?$AAo?$AAr?$AAe?$AA?9?$AAs?$AAy?$AAs?$AAi?$AAn?$AAf?$AAo?$AA?9?$AAl?$AA1?$AA?9?$AA2?$AA?9?$AA1?$AA?$AA@ 0000000180027d20     libucrt:winapi_thunks.obj
 0002:00001d60       ??_C@_1DK@NDHNAHIO@?$AAa?$AAp?$AAi?$AA?9?$AAm?$AAs?$AA?9?$AAw?$AAi?$AAn?$AA?9?$AAc?$AAo?$AAr?$AAe?$AA?9?$AAw?$AAi?$AAn?$AAr?$AAt?$AA?9?$AAl?$AA1?$AA?9?$AA1?$AA?9?$AA0?$AA?$AA@ 0000000180027d60     libucrt:winapi_thunks.obj
 0002:00001da0       ??_C@_1DM@KGHDGBCM@?$AAa?$AAp?$AAi?$AA?9?$AAm?$AAs?$AA?9?$AAw?$AAi?$AAn?$AA?9?$AAc?$AAo?$AAr?$AAe?$AA?9?$AAx?$AAs?$AAt?$AAa?$AAt?$AAe?$AA?9?$AAl?$AA2?$AA?9?$AA1?$AA?9?$AA0?$AA?$AA@ 0000000180027da0     libucrt:winapi_thunks.obj
 0002:00001de0       ??_C@_1EO@IJIOEFOH@?$AAa?$AAp?$AAi?$AA?9?$AAm?$AAs?$AA?9?$AAw?$AAi?$AAn?$AA?9?$AAr?$AAt?$AAc?$AAo?$AAr?$AAe?$AA?9?$AAn?$AAt?$AAu?$AAs?$AAe?$AAr?$AA?9?$AAw?$AAi?$AAn?$AAd?$AAo?$AAw?$AA?9@ 0000000180027de0     libucrt:winapi_thunks.obj
 0002:00001e30       ??_C@_1FG@HHGEKANL@?$AAa?$AAp?$AAi?$AA?9?$AAm?$AAs?$AA?9?$AAw?$AAi?$AAn?$AA?9?$AAs?$AAe?$AAc?$AAu?$AAr?$AAi?$AAt?$AAy?$AA?9?$AAs?$AAy?$AAs?$AAt?$AAe?$AAm?$AAf?$AAu?$AAn?$AAc?$AAt?$AAi@ 0000000180027e30     libucrt:winapi_thunks.obj
 0002:00001e90       ??_C@_1EG@DBIOJECG@?$AAe?$AAx?$AAt?$AA?9?$AAm?$AAs?$AA?9?$AAw?$AAi?$AAn?$AA?9?$AAn?$AAt?$AAu?$AAs?$AAe?$AAr?$AA?9?$AAd?$AAi?$AAa?$AAl?$AAo?$AAg?$AAb?$AAo?$AAx?$AA?9?$AAl?$AA1?$AA?9?$AA1@ 0000000180027e90     libucrt:winapi_thunks.obj
 0002:00001ee0       ??_C@_1EO@FIHMJCLF@?$AAe?$AAx?$AAt?$AA?9?$AAm?$AAs?$AA?9?$AAw?$AAi?$AAn?$AA?9?$AAn?$AAt?$AAu?$AAs?$AAe?$AAr?$AA?9?$AAw?$AAi?$AAn?$AAd?$AAo?$AAw?$AAs?$AAt?$AAa?$AAt?$AAi?$AAo?$AAn?$AA?9@ 0000000180027ee0     libucrt:winapi_thunks.obj
 0002:00001f30       ??_C@_1BC@DNHGCMLG@?$AAa?$AAd?$AAv?$AAa?$AAp?$AAi?$AA3?$AA2?$AA?$AA@ 0000000180027f30     libucrt:winapi_thunks.obj
 0002:00001f48       ??_C@_1BC@GDMECMAK@?$AAk?$AAe?$AAr?$AAn?$AAe?$AAl?$AA3?$AA2?$AA?$AA@ 0000000180027f48     libucrt:winapi_thunks.obj
 0002:00001f60       ??_C@_1M@OAIMIKLP@?$AAn?$AAt?$AAd?$AAl?$AAl?$AA?$AA@ 0000000180027f60     libucrt:winapi_thunks.obj
 0002:00001f70       ??_C@_1EG@DPGNFKGC@?$AAa?$AAp?$AAi?$AA?9?$AAm?$AAs?$AA?9?$AAw?$AAi?$AAn?$AA?9?$AAa?$AAp?$AAp?$AAm?$AAo?$AAd?$AAe?$AAl?$AA?9?$AAr?$AAu?$AAn?$AAt?$AAi?$AAm?$AAe?$AA?9?$AAl?$AA1?$AA?9?$AA1@ 0000000180027f70     libucrt:winapi_thunks.obj
 0002:00001fb8       ??_C@_1O@BCCLBEOE@?$AAu?$AAs?$AAe?$AAr?$AA3?$AA2?$AA?$AA@ 0000000180027fb8     libucrt:winapi_thunks.obj
 0002:00001fc8       ??_C@_1BA@PFFKHIOG@?$AAa?$AAp?$AAi?$AA?9?$AAm?$AAs?$AA?9?$AA?$AA@ 0000000180027fc8     libucrt:winapi_thunks.obj
 0002:00001fd8       ??_C@_1BA@IAIFMGEF@?$AAe?$AAx?$AAt?$AA?9?$AAm?$AAs?$AA?9?$AA?$AA@ 0000000180027fd8     libucrt:winapi_thunks.obj
 0002:00001ff0       ??_C@_0BA@FHFNEAED@AreFileApisANSI?$AA@ 0000000180027ff0     libucrt:winapi_thunks.obj
 0002:00002008       ??_C@_08KNHFBNJ@FlsAlloc?$AA@ 0000000180028008     libucrt:winapi_thunks.obj
 0002:00002020       ??_C@_07PEJMOBNF@FlsFree?$AA@ 0000000180028020     libucrt:winapi_thunks.obj
 0002:00002030       ??_C@_0M@GDNOONDI@FlsGetValue?$AA@ 0000000180028030     libucrt:winapi_thunks.obj
 0002:00002048       ??_C@_0M@JCPCPOEF@FlsSetValue?$AA@ 0000000180028048     libucrt:winapi_thunks.obj
 0002:00002060       ??_C@_0BM@HCFOFFN@InitializeCriticalSectionEx?$AA@ 0000000180028060     libucrt:winapi_thunks.obj
 0002:00002088       ??_C@_0O@KKBNKAPF@LCMapStringEx?$AA@ 0000000180028088     libucrt:winapi_thunks.obj
 0002:000020a0       ??_C@_0BB@HBDEELFH@LocaleNameToLCID?$AA@ 00000001800280a0     libucrt:winapi_thunks.obj
 0002:000020b8       ??_C@_0CF@OJOFEIGO@AppPolicyGetProcessTerminationMe@ 00000001800280b8     libucrt:winapi_thunks.obj
 0002:000020e0       __newctype                 00000001800280e0     libucrt:ctype.obj
 0002:000023e0       __newclmap                 00000001800283e0     libucrt:ctype.obj
 0002:00002560       __newcumap                 0000000180028560     libucrt:ctype.obj
 0002:000026e0       ??_C@_15PJPFLCCM@?$AAu?$AAk?$AA?$AA@ 00000001800286e0     libucrt:get_qualified_locale.obj
 0002:00003530       ??_C@_15EMKDOKLE@?$AAa?$AAr?$AA?$AA@ 0000000180029530     libucrt:lcidtoname_downlevel.obj
 0002:00003538       ??_C@_15KNPADPLH@?$AAb?$AAg?$AA?$AA@ 0000000180029538     libucrt:lcidtoname_downlevel.obj
 0002:00003540       ??_C@_15EDMHLDMO@?$AAc?$AAa?$AA?$AA@ 0000000180029540     libucrt:lcidtoname_downlevel.obj
 0002:00003548       ??_C@_1O@BPEAJADD@?$AAz?$AAh?$AA?9?$AAC?$AAH?$AAS?$AA?$AA@ 0000000180029548     libucrt:lcidtoname_downlevel.obj
 0002:00003558       ??_C@_15LJNHCMNK@?$AAc?$AAs?$AA?$AA@ 0000000180029558     libucrt:lcidtoname_downlevel.obj
 0002:00003560       ??_C@_15FOMCIDHG@?$AAd?$AAa?$AA?$AA@ 0000000180029560     libucrt:lcidtoname_downlevel.obj
 0002:00003568       ??_C@_15NBKABECB@?$AAd?$AAe?$AA?$AA@ 0000000180029568     libucrt:lcidtoname_downlevel.obj
 0002:00003570       ??_C@_15GHPEIIAO@?$AAe?$AAl?$AA?$AA@ 0000000180029570     libucrt:lcidtoname_downlevel.obj
 0002:00003578       ??_C@_15MNPNEAIF@?$AAe?$AAn?$AA?$AA@ 0000000180029578     libucrt:lcidtoname_downlevel.obj
 0002:00003580       ??_C@_15GPIOMPMH@?$AAe?$AAs?$AA?$AA@ 0000000180029580     libucrt:lcidtoname_downlevel.obj
 0002:00003588       ??_C@_15NGLOAKJC@?$AAf?$AAi?$AA?$AA@ 0000000180029588     libucrt:lcidtoname_downlevel.obj
 0002:00003590       ??_C@_15FBKGNKAM@?$AAf?$AAr?$AA?$AA@ 0000000180029590     libucrt:lcidtoname_downlevel.obj
 0002:00003598       ??_C@_15KGGCNEFK@?$AAh?$AAe?$AA?$AA@ 0000000180029598     libucrt:lcidtoname_downlevel.obj
 0002:000035a0       ??_C@_15PGHLIDMF@?$AAh?$AAu?$AA?$AA@ 00000001800295a0     libucrt:lcidtoname_downlevel.obj
 0002:000035a8       ??_C@_15BIEMAPLM@?$AAi?$AAs?$AA?$AA@ 00000001800295a8     libucrt:lcidtoname_downlevel.obj
 0002:000035b0       ??_C@_15IFJLDHAF@?$AAi?$AAt?$AA?$AA@ 00000001800295b0     libucrt:lcidtoname_downlevel.obj
 0002:000035b8       ??_C@_15GEMIOCAG@?$AAj?$AAa?$AA?$AA@ 00000001800295b8     libucrt:lcidtoname_downlevel.obj
 0002:000035c0       ??_C@_15EPELEGJA@?$AAk?$AAo?$AA?$AA@ 00000001800295c0     libucrt:lcidtoname_downlevel.obj
 0002:000035c8       ??_C@_15NDDHIMN@?$AAn?$AAl?$AA?$AA@ 00000001800295c8     libucrt:lcidtoname_downlevel.obj
 0002:000035d0       ??_C@_15BPIGNHCD@?$AAn?$AAo?$AA?$AA@ 00000001800295d0     libucrt:lcidtoname_downlevel.obj
 0002:000035d8       ??_C@_15DEOPBLCG@?$AAp?$AAl?$AA?$AA@ 00000001800295d8     libucrt:lcidtoname_downlevel.obj
 0002:000035e0       ??_C@_15KBECGEFG@?$AAp?$AAt?$AA?$AA@ 00000001800295e0     libucrt:lcidtoname_downlevel.obj
 0002:000035e8       ??_C@_15GLJCBFMD@?$AAr?$AAo?$AA?$AA@ 00000001800295e8     libucrt:lcidtoname_downlevel.obj
 0002:000035f0       ??_C@_15FEDGKCDI@?$AAr?$AAu?$AA?$AA@ 00000001800295f0     libucrt:lcidtoname_downlevel.obj
 0002:000035f8       ??_C@_15GLKMLLHM@?$AAh?$AAr?$AA?$AA@ 00000001800295f8     libucrt:lcidtoname_downlevel.obj
 0002:00003600       ??_C@_15CPKMFBDB@?$AAs?$AAk?$AA?$AA@ 0000000180029600     libucrt:lcidtoname_downlevel.obj
 0002:00003608       ??_C@_15BAAIOGMK@?$AAs?$AAq?$AA?$AA@ 0000000180029608     libucrt:lcidtoname_downlevel.obj
 0002:00003610       ??_C@_15INNPNOHD@?$AAs?$AAv?$AA?$AA@ 0000000180029610     libucrt:lcidtoname_downlevel.obj
 0002:00003618       ??_C@_15CABMMOGH@?$AAt?$AAh?$AA?$AA@ 0000000180029618     libucrt:lcidtoname_downlevel.obj
 0002:00003620       ??_C@_15BPLIHJJM@?$AAt?$AAr?$AA?$AA@ 0000000180029620     libucrt:lcidtoname_downlevel.obj
 0002:00003628       ??_C@_15NEOEKKDJ@?$AAu?$AAr?$AA?$AA@ 0000000180029628     libucrt:lcidtoname_downlevel.obj
 0002:00003630       ??_C@_15NFICGAJK@?$AAi?$AAd?$AA?$AA@ 0000000180029630     libucrt:lcidtoname_downlevel.obj
 0002:00003638       ??_C@_15HPJPHDM@?$AAb?$AAe?$AA?$AA@ 0000000180029638     libucrt:lcidtoname_downlevel.obj
 0002:00003640       ??_C@_15LCHLGJII@?$AAs?$AAl?$AA?$AA@ 0000000180029640     libucrt:lcidtoname_downlevel.obj
 0002:00003648       ??_C@_15PCFJPHHO@?$AAe?$AAt?$AA?$AA@ 0000000180029648     libucrt:lcidtoname_downlevel.obj
 0002:00003650       ??_C@_15HPFPGODN@?$AAl?$AAv?$AA?$AA@ 0000000180029650     libucrt:lcidtoname_downlevel.obj
 0002:00003658       ??_C@_15NFFGKGLG@?$AAl?$AAt?$AA?$AA@ 0000000180029658     libucrt:lcidtoname_downlevel.obj
 0002:00003660       ??_C@_15BDAKCCHN@?$AAf?$AAa?$AA?$AA@ 0000000180029660     libucrt:lcidtoname_downlevel.obj
 0002:00003668       ??_C@_15NFGIAIAJ@?$AAv?$AAi?$AA?$AA@ 0000000180029668     libucrt:lcidtoname_downlevel.obj
 0002:00003670       ??_C@_15LMKNDMHN@?$AAh?$AAy?$AA?$AA@ 0000000180029670     libucrt:lcidtoname_downlevel.obj
 0002:00003678       ??_C@_15IJBHMCFL@?$AAa?$AAz?$AA?$AA@ 0000000180029678     libucrt:lcidtoname_downlevel.obj
 0002:00003680       ??_C@_15EKOFJABL@?$AAe?$AAu?$AA?$AA@ 0000000180029680     libucrt:lcidtoname_downlevel.obj
 0002:00003688       ??_C@_15BGHADCNK@?$AAm?$AAk?$AA?$AA@ 0000000180029688     libucrt:lcidtoname_downlevel.obj
 0002:00003690       ??_C@_15JDNICKHM@?$AAa?$AAf?$AA?$AA@ 0000000180029690     libucrt:lcidtoname_downlevel.obj
 0002:00003698       ??_C@_15KPJEDBKD@?$AAk?$AAa?$AA?$AA@ 0000000180029698     libucrt:lcidtoname_downlevel.obj
 0002:000036a0       ??_C@_15PDNFFFEO@?$AAf?$AAo?$AA?$AA@ 00000001800296a0     libucrt:lcidtoname_downlevel.obj
 0002:000036a8       ??_C@_15OMLEGLOC@?$AAh?$AAi?$AA?$AA@ 00000001800296a8     libucrt:lcidtoname_downlevel.obj
 0002:000036b0       ??_C@_15IDNNENKK@?$AAm?$AAs?$AA?$AA@ 00000001800296b0     libucrt:lcidtoname_downlevel.obj
 0002:000036b8       ??_C@_15MACJNBMH@?$AAk?$AAk?$AA?$AA@ 00000001800296b8     libucrt:lcidtoname_downlevel.obj
 0002:000036c0       ??_C@_15DKDJEOND@?$AAk?$AAy?$AA?$AA@ 00000001800296c0     libucrt:lcidtoname_downlevel.obj
 0002:000036c8       ??_C@_15DFGDLJBG@?$AAs?$AAw?$AA?$AA@ 00000001800296c8     libucrt:lcidtoname_downlevel.obj
 0002:000036d0       ??_C@_15BBFAICNG@?$AAu?$AAz?$AA?$AA@ 00000001800296d0     libucrt:lcidtoname_downlevel.obj
 0002:000036d8       ??_C@_15DKNDCGEA@?$AAt?$AAt?$AA?$AA@ 00000001800296d8     libucrt:lcidtoname_downlevel.obj
 0002:000036e0       ??_C@_15MGIFMDPL@?$AAp?$AAa?$AA?$AA@ 00000001800296e0     libucrt:lcidtoname_downlevel.obj
 0002:000036e8       ??_C@_15HCNDBBA@?$AAg?$AAu?$AA?$AA@ 00000001800296e8     libucrt:lcidtoname_downlevel.obj
 0002:000036f0       ??_C@_15FNBEIBON@?$AAt?$AAa?$AA?$AA@ 00000001800296f0     libucrt:lcidtoname_downlevel.obj
 0002:000036f8       ??_C@_15NCHGBGLK@?$AAt?$AAe?$AA?$AA@ 00000001800296f8     libucrt:lcidtoname_downlevel.obj
 0002:00003700       ??_C@_15PHPHCBPF@?$AAk?$AAn?$AA?$AA@ 0000000180029700     libucrt:lcidtoname_downlevel.obj
 0002:00003708       ??_C@_15DLGBCKMP@?$AAm?$AAr?$AA?$AA@ 0000000180029708     libucrt:lcidtoname_downlevel.obj
 0002:00003710       ??_C@_15EABBLBFF@?$AAs?$AAa?$AA?$AA@ 0000000180029710     libucrt:lcidtoname_downlevel.obj
 0002:00003718       ??_C@_15CBKOMCOI@?$AAm?$AAn?$AA?$AA@ 0000000180029718     libucrt:lcidtoname_downlevel.obj
 0002:00003720       ??_C@_15CKDMCJAF@?$AAg?$AAl?$AA?$AA@ 0000000180029720     libucrt:lcidtoname_downlevel.obj
 0002:00003728       ??_C@_17CNJFBPG@?$AAk?$AAo?$AAk?$AA?$AA@ 0000000180029728     libucrt:lcidtoname_downlevel.obj
 0002:00003730       ??_C@_17FFBJICPL@?$AAs?$AAy?$AAr?$AA?$AA@ 0000000180029730     libucrt:lcidtoname_downlevel.obj
 0002:00003738       ??_C@_17KPNDCPAF@?$AAd?$AAi?$AAv?$AA?$AA@ 0000000180029738     libucrt:lcidtoname_downlevel.obj
 0002:00003740       ??_C@_11LOCGONAA@?$AA?$AA@ 0000000180029740     libucrt:lcidtoname_downlevel.obj
 0002:00003748       ??_C@_1M@OKAHONE@?$AAa?$AAr?$AA?9?$AAS?$AAA?$AA?$AA@ 0000000180029748     libucrt:lcidtoname_downlevel.obj
 0002:00003758       ??_C@_1M@FFFIGIGK@?$AAb?$AAg?$AA?9?$AAB?$AAG?$AA?$AA@ 0000000180029758     libucrt:lcidtoname_downlevel.obj
 0002:00003768       ??_C@_1M@BJNKEDC@?$AAc?$AAa?$AA?9?$AAE?$AAS?$AA?$AA@ 0000000180029768     libucrt:lcidtoname_downlevel.obj
 0002:00003778       ??_C@_1M@IJJHFJHA@?$AAc?$AAs?$AA?9?$AAC?$AAZ?$AA?$AA@ 0000000180029778     libucrt:lcidtoname_downlevel.obj
 0002:00003788       ??_C@_1M@CLPEOBGI@?$AAd?$AAa?$AA?9?$AAD?$AAK?$AA?$AA@ 0000000180029788     libucrt:lcidtoname_downlevel.obj
 0002:00003798       ??_C@_1M@MCMADGCB@?$AAd?$AAe?$AA?9?$AAD?$AAE?$AA?$AA@ 0000000180029798     libucrt:lcidtoname_downlevel.obj
 0002:000037a8       ??_C@_1M@OOCKEMAM@?$AAe?$AAl?$AA?9?$AAG?$AAR?$AA?$AA@ 00000001800297a8     libucrt:lcidtoname_downlevel.obj
 0002:000037b8       ??_C@_1M@DDNJFGID@?$AAf?$AAi?$AA?9?$AAF?$AAI?$AA?$AA@ 00000001800297b8     libucrt:lcidtoname_downlevel.obj
 0002:000037c8       ??_C@_1M@GLIPPMAC@?$AAf?$AAr?$AA?9?$AAF?$AAR?$AA?$AA@ 00000001800297c8     libucrt:lcidtoname_downlevel.obj
 0002:000037d8       ??_C@_1M@GFMCHPE@?$AAh?$AAe?$AA?9?$AAI?$AAL?$AA?$AA@ 00000001800297d8     libucrt:lcidtoname_downlevel.obj
 0002:000037e8       ??_C@_1M@MHLPGNKM@?$AAh?$AAu?$AA?9?$AAH?$AAU?$AA?$AA@ 00000001800297e8     libucrt:lcidtoname_downlevel.obj
 0002:000037f8       ??_C@_1M@LPDDNNPN@?$AAi?$AAs?$AA?9?$AAI?$AAS?$AA?$AA@ 00000001800297f8     libucrt:lcidtoname_downlevel.obj
 0002:00003808       ??_C@_1M@MADIPODN@?$AAi?$AAt?$AA?9?$AAI?$AAT?$AA?$AA@ 0000000180029808     libucrt:lcidtoname_downlevel.obj
 0002:00003818       ??_C@_1M@IHBJJGG@?$AAn?$AAl?$AA?9?$AAN?$AAL?$AA?$AA@ 0000000180029818     libucrt:lcidtoname_downlevel.obj
 0002:00003828       ??_C@_1M@EANAGDL@?$AAn?$AAb?$AA?9?$AAN?$AAO?$AA?$AA@ 0000000180029828     libucrt:lcidtoname_downlevel.obj
 0002:00003838       ??_C@_1M@NEIEMEGP@?$AAp?$AAl?$AA?9?$AAP?$AAL?$AA?$AA@ 0000000180029838     libucrt:lcidtoname_downlevel.obj
 0002:00003848       ??_C@_1M@BOCFIGEP@?$AAp?$AAt?$AA?9?$AAB?$AAR?$AA?$AA@ 0000000180029848     libucrt:lcidtoname_downlevel.obj
 0002:00003858       ??_C@_1M@IMPFOPBG@?$AAr?$AAo?$AA?9?$AAR?$AAO?$AA?$AA@ 0000000180029858     libucrt:lcidtoname_downlevel.obj
 0002:00003868       ??_C@_1M@IDNNEJMM@?$AAr?$AAu?$AA?9?$AAR?$AAU?$AA?$AA@ 0000000180029868     libucrt:lcidtoname_downlevel.obj
 0002:00003878       ??_C@_1M@LILEEOGM@?$AAh?$AAr?$AA?9?$AAH?$AAR?$AA?$AA@ 0000000180029878     libucrt:lcidtoname_downlevel.obj
 0002:00003888       ??_C@_1M@FKIFEHPB@?$AAs?$AAk?$AA?9?$AAS?$AAK?$AA?$AA@ 0000000180029888     libucrt:lcidtoname_downlevel.obj
 0002:00003898       ??_C@_1M@LJMAMNPJ@?$AAs?$AAq?$AA?9?$AAA?$AAL?$AA?$AA@ 0000000180029898     libucrt:lcidtoname_downlevel.obj
 0002:000038a8       ??_C@_1M@GIAKDKJK@?$AAs?$AAv?$AA?9?$AAS?$AAE?$AA?$AA@ 00000001800298a8     libucrt:lcidtoname_downlevel.obj
 0002:000038b8       ??_C@_1M@MKJKIKCL@?$AAt?$AAh?$AA?9?$AAT?$AAH?$AA?$AA@ 00000001800298b8     libucrt:lcidtoname_downlevel.obj
 0002:000038c8       ??_C@_1M@MFLCCMPB@?$AAt?$AAr?$AA?9?$AAT?$AAR?$AA?$AA@ 00000001800298c8     libucrt:lcidtoname_downlevel.obj
 0002:000038d8       ??_C@_1M@OIJHDKJN@?$AAu?$AAr?$AA?9?$AAP?$AAK?$AA?$AA@ 00000001800298d8     libucrt:lcidtoname_downlevel.obj
 0002:000038e8       ??_C@_1M@LHIPCIEK@?$AAi?$AAd?$AA?9?$AAI?$AAD?$AA?$AA@ 00000001800298e8     libucrt:lcidtoname_downlevel.obj
 0002:000038f8       ??_C@_1M@MFMOBGI@?$AAu?$AAk?$AA?9?$AAU?$AAA?$AA?$AA@ 00000001800298f8     libucrt:lcidtoname_downlevel.obj
 0002:00003908       ??_C@_1M@OBGLJIPL@?$AAb?$AAe?$AA?9?$AAB?$AAY?$AA?$AA@ 0000000180029908     libucrt:lcidtoname_downlevel.obj
 0002:00003918       ??_C@_1M@BCFAJEAD@?$AAs?$AAl?$AA?9?$AAS?$AAI?$AA?$AA@ 0000000180029918     libucrt:lcidtoname_downlevel.obj
 0002:00003928       ??_C@_1M@FKFFEDDN@?$AAe?$AAt?$AA?9?$AAE?$AAE?$AA?$AA@ 0000000180029928     libucrt:lcidtoname_downlevel.obj
 0002:00003938       ??_C@_1M@KGKKAACI@?$AAl?$AAv?$AA?9?$AAL?$AAV?$AA?$AA@ 0000000180029938     libucrt:lcidtoname_downlevel.obj
 0002:00003948       ??_C@_1M@IFGBIJO@?$AAl?$AAt?$AA?9?$AAL?$AAT?$AA?$AA@ 0000000180029948     libucrt:lcidtoname_downlevel.obj
 0002:00003958       ??_C@_1M@FGEAHEDM@?$AAf?$AAa?$AA?9?$AAI?$AAR?$AA?$AA@ 0000000180029958     libucrt:lcidtoname_downlevel.obj
 0002:00003968       ??_C@_1M@KBMAIBFN@?$AAv?$AAi?$AA?9?$AAV?$AAN?$AA?$AA@ 0000000180029968     libucrt:lcidtoname_downlevel.obj
 0002:00003978       ??_C@_1M@GPCBKDJK@?$AAh?$AAy?$AA?9?$AAA?$AAM?$AA?$AA@ 0000000180029978     libucrt:lcidtoname_downlevel.obj
 0002:00003988       ??_C@_1BG@BECMDDJB@?$AAa?$AAz?$AA?9?$AAA?$AAZ?$AA?9?$AAL?$AAa?$AAt?$AAn?$AA?$AA@ 0000000180029988     libucrt:lcidtoname_downlevel.obj
 0002:000039a0       ??_C@_1M@MAOFCAEA@?$AAe?$AAu?$AA?9?$AAE?$AAS?$AA?$AA@ 00000001800299a0     libucrt:lcidtoname_downlevel.obj
 0002:000039b0       ??_C@_1M@IGHABKPI@?$AAm?$AAk?$AA?9?$AAM?$AAK?$AA?$AA@ 00000001800299b0     libucrt:lcidtoname_downlevel.obj
 0002:000039c0       ??_C@_1M@IAIGNEJG@?$AAt?$AAn?$AA?9?$AAZ?$AAA?$AA?$AA@ 00000001800299c0     libucrt:lcidtoname_downlevel.obj
 0002:000039d0       ??_C@_1M@IIJCOJFA@?$AAx?$AAh?$AA?9?$AAZ?$AAA?$AA?$AA@ 00000001800299d0     libucrt:lcidtoname_downlevel.obj
 0002:000039e0       ??_C@_1M@LGPJHNJH@?$AAz?$AAu?$AA?9?$AAZ?$AAA?$AA?$AA@ 00000001800299e0     libucrt:lcidtoname_downlevel.obj
 0002:000039f0       ??_C@_1M@HOKAOIO@?$AAa?$AAf?$AA?9?$AAZ?$AAA?$AA?$AA@ 00000001800299f0     libucrt:lcidtoname_downlevel.obj
 0002:00003a00       ??_C@_1M@DPCLHLIE@?$AAk?$AAa?$AA?9?$AAG?$AAE?$AA?$AA@ 0000000180029a00     libucrt:lcidtoname_downlevel.obj
 0002:00003a10       ??_C@_1M@BLKMHJBI@?$AAf?$AAo?$AA?9?$AAF?$AAO?$AA?$AA@ 0000000180029a10     libucrt:lcidtoname_downlevel.obj
 0002:00003a20       ??_C@_1M@LGGJAPPB@?$AAh?$AAi?$AA?9?$AAI?$AAN?$AA?$AA@ 0000000180029a20     libucrt:lcidtoname_downlevel.obj
 0002:00003a30       ??_C@_1M@FIKPIHFE@?$AAm?$AAt?$AA?9?$AAM?$AAT?$AA?$AA@ 0000000180029a30     libucrt:lcidtoname_downlevel.obj
 0002:00003a40       ??_C@_1M@HEGGPBFA@?$AAs?$AAe?$AA?9?$AAN?$AAO?$AA?$AA@ 0000000180029a40     libucrt:lcidtoname_downlevel.obj
 0002:00003a50       ??_C@_1M@EIBJEEPA@?$AAm?$AAs?$AA?9?$AAM?$AAY?$AA?$AA@ 0000000180029a50     libucrt:lcidtoname_downlevel.obj
 0002:00003a60       ??_C@_1M@FHLBGMPP@?$AAk?$AAk?$AA?9?$AAK?$AAZ?$AA?$AA@ 0000000180029a60     libucrt:lcidtoname_downlevel.obj
 0002:00003a70       ??_C@_1M@NGJJLCGI@?$AAk?$AAy?$AA?9?$AAK?$AAG?$AA?$AA@ 0000000180029a70     libucrt:lcidtoname_downlevel.obj
 0002:00003a80       ??_C@_1M@GIENNBFC@?$AAs?$AAw?$AA?9?$AAK?$AAE?$AA?$AA@ 0000000180029a80     libucrt:lcidtoname_downlevel.obj
 0002:00003a90       ??_C@_1BG@NDGMJIMJ@?$AAu?$AAz?$AA?9?$AAU?$AAZ?$AA?9?$AAL?$AAa?$AAt?$AAn?$AA?$AA@ 0000000180029a90     libucrt:lcidtoname_downlevel.obj
 0002:00003aa8       ??_C@_1M@IDCCIHBC@?$AAt?$AAt?$AA?9?$AAR?$AAU?$AA?$AA@ 0000000180029aa8     libucrt:lcidtoname_downlevel.obj
 0002:00003ab8       ??_C@_1M@LOICPMOJ@?$AAb?$AAn?$AA?9?$AAI?$AAN?$AA?$AA@ 0000000180029ab8     libucrt:lcidtoname_downlevel.obj
 0002:00003ac8       ??_C@_1M@KPKKNEAH@?$AAp?$AAa?$AA?9?$AAI?$AAN?$AA?$AA@ 0000000180029ac8     libucrt:lcidtoname_downlevel.obj
 0002:00003ad8       ??_C@_1M@PJGPPBOG@?$AAg?$AAu?$AA?9?$AAI?$AAN?$AA?$AA@ 0000000180029ad8     libucrt:lcidtoname_downlevel.obj
 0002:00003ae8       ??_C@_1M@KMKMOPHI@?$AAt?$AAa?$AA?9?$AAI?$AAN?$AA?$AA@ 0000000180029ae8     libucrt:lcidtoname_downlevel.obj
 0002:00003af8       ??_C@_1M@KFEHEPAC@?$AAt?$AAe?$AA?9?$AAI?$AAN?$AA?$AA@ 0000000180029af8     libucrt:lcidtoname_downlevel.obj
 0002:00003b08       ??_C@_1M@CDCLMGHI@?$AAk?$AAn?$AA?9?$AAI?$AAN?$AA?$AA@ 0000000180029b08     libucrt:lcidtoname_downlevel.obj
 0002:00003b18       ??_C@_1M@MIODLDKF@?$AAm?$AAl?$AA?9?$AAI?$AAN?$AA?$AA@ 0000000180029b18     libucrt:lcidtoname_downlevel.obj
 0002:00003b28       ??_C@_1M@PBIEACPO@?$AAm?$AAr?$AA?9?$AAI?$AAN?$AA?$AA@ 0000000180029b28     libucrt:lcidtoname_downlevel.obj
 0002:00003b38       ??_C@_1M@NIDEAGPH@?$AAs?$AAa?$AA?9?$AAI?$AAN?$AA?$AA@ 0000000180029b38     libucrt:lcidtoname_downlevel.obj
 0002:00003b48       ??_C@_1M@FHIHCBIO@?$AAm?$AAn?$AA?9?$AAM?$AAN?$AA?$AA@ 0000000180029b48     libucrt:lcidtoname_downlevel.obj
 0002:00003b58       ??_C@_1M@JAIJPENP@?$AAc?$AAy?$AA?9?$AAG?$AAB?$AA?$AA@ 0000000180029b58     libucrt:lcidtoname_downlevel.obj
 0002:00003b68       ??_C@_1M@PHGFBEPN@?$AAg?$AAl?$AA?9?$AAE?$AAS?$AA?$AA@ 0000000180029b68     libucrt:lcidtoname_downlevel.obj
 0002:00003b78       ??_C@_1O@KPIPDNCP@?$AAk?$AAo?$AAk?$AA?9?$AAI?$AAN?$AA?$AA@ 0000000180029b78     libucrt:lcidtoname_downlevel.obj
 0002:00003b88       ??_C@_1O@KNHJLDJA@?$AAs?$AAy?$AAr?$AA?9?$AAS?$AAY?$AA?$AA@ 0000000180029b88     libucrt:lcidtoname_downlevel.obj
 0002:00003b98       ??_C@_1O@MKEKBLAH@?$AAd?$AAi?$AAv?$AA?9?$AAM?$AAV?$AA?$AA@ 0000000180029b98     libucrt:lcidtoname_downlevel.obj
 0002:00003ba8       ??_C@_1O@OHDCKDDF@?$AAq?$AAu?$AAz?$AA?9?$AAB?$AAO?$AA?$AA@ 0000000180029ba8     libucrt:lcidtoname_downlevel.obj
 0002:00003bb8       ??_C@_1M@LEPJNLFD@?$AAn?$AAs?$AA?9?$AAZ?$AAA?$AA?$AA@ 0000000180029bb8     libucrt:lcidtoname_downlevel.obj
 0002:00003bc8       ??_C@_1M@OMLEIIJB@?$AAm?$AAi?$AA?9?$AAN?$AAZ?$AA?$AA@ 0000000180029bc8     libucrt:lcidtoname_downlevel.obj
 0002:00003bd8       ??_C@_1M@PMPEAILG@?$AAa?$AAr?$AA?9?$AAI?$AAQ?$AA?$AA@ 0000000180029bd8     libucrt:lcidtoname_downlevel.obj
 0002:00003be8       ??_C@_1M@CNKPNOEE@?$AAd?$AAe?$AA?9?$AAC?$AAH?$AA?$AA@ 0000000180029be8     libucrt:lcidtoname_downlevel.obj
 0002:00003bf8       ??_C@_1M@LKMGMLKO@?$AAe?$AAn?$AA?9?$AAG?$AAB?$AA?$AA@ 0000000180029bf8     libucrt:lcidtoname_downlevel.obj
 0002:00003c08       ??_C@_1M@PGKJFFGL@?$AAe?$AAs?$AA?9?$AAM?$AAX?$AA?$AA@ 0000000180029c08     libucrt:lcidtoname_downlevel.obj
 0002:00003c18       ??_C@_1M@DNNANBDC@?$AAf?$AAr?$AA?9?$AAB?$AAE?$AA?$AA@ 0000000180029c18     libucrt:lcidtoname_downlevel.obj
 0002:00003c28       ??_C@_1M@HLGMDFHM@?$AAi?$AAt?$AA?9?$AAC?$AAH?$AA?$AA@ 0000000180029c28     libucrt:lcidtoname_downlevel.obj
 0002:00003c38       ??_C@_1M@CLLBGJH@?$AAn?$AAl?$AA?9?$AAB?$AAE?$AA?$AA@ 0000000180029c38     libucrt:lcidtoname_downlevel.obj
 0002:00003c48       ??_C@_1M@BODBOGLF@?$AAn?$AAn?$AA?9?$AAN?$AAO?$AA?$AA@ 0000000180029c48     libucrt:lcidtoname_downlevel.obj
 0002:00003c58       ??_C@_1M@HFFAHKAD@?$AAp?$AAt?$AA?9?$AAP?$AAT?$AA?$AA@ 0000000180029c58     libucrt:lcidtoname_downlevel.obj
 0002:00003c68       ??_C@_1BG@LNOAKHIE@?$AAs?$AAr?$AA?9?$AAS?$AAP?$AA?9?$AAL?$AAa?$AAt?$AAn?$AA?$AA@ 0000000180029c68     libucrt:lcidtoname_downlevel.obj
 0002:00003c80       ??_C@_1M@HBMHBGAK@?$AAs?$AAv?$AA?9?$AAF?$AAI?$AA?$AA@ 0000000180029c80     libucrt:lcidtoname_downlevel.obj
 0002:00003c90       ??_C@_1BG@DGCJGJBE@?$AAa?$AAz?$AA?9?$AAA?$AAZ?$AA?9?$AAC?$AAy?$AAr?$AAl?$AA?$AA@ 0000000180029c90     libucrt:lcidtoname_downlevel.obj
 0002:00003ca8       ??_C@_1M@KEJDAAHB@?$AAs?$AAe?$AA?9?$AAS?$AAE?$AA?$AA@ 0000000180029ca8     libucrt:lcidtoname_downlevel.obj
 0002:00003cb8       ??_C@_1M@HEIBJJAD@?$AAm?$AAs?$AA?9?$AAB?$AAN?$AA?$AA@ 0000000180029cb8     libucrt:lcidtoname_downlevel.obj
 0002:00003cc8       ??_C@_1BG@PBGJMCEM@?$AAu?$AAz?$AA?9?$AAU?$AAZ?$AA?9?$AAC?$AAy?$AAr?$AAl?$AA?$AA@ 0000000180029cc8     libucrt:lcidtoname_downlevel.obj
 0002:00003ce0       ??_C@_1O@LAOBCMDF@?$AAq?$AAu?$AAz?$AA?9?$AAE?$AAC?$AA?$AA@ 0000000180029ce0     libucrt:lcidtoname_downlevel.obj
 0002:00003cf0       ??_C@_1M@POEEMAIO@?$AAa?$AAr?$AA?9?$AAE?$AAG?$AA?$AA@ 0000000180029cf0     libucrt:lcidtoname_downlevel.obj
 0002:00003d00       ??_C@_1M@EFAKDEDL@?$AAz?$AAh?$AA?9?$AAH?$AAK?$AA?$AA@ 0000000180029d00     libucrt:lcidtoname_downlevel.obj
 0002:00003d10       ??_C@_1M@HKKIJHGI@?$AAd?$AAe?$AA?9?$AAA?$AAT?$AA?$AA@ 0000000180029d10     libucrt:lcidtoname_downlevel.obj
 0002:00003d20       ??_C@_1M@KBFBEHJF@?$AAe?$AAn?$AA?9?$AAA?$AAU?$AA?$AA@ 0000000180029d20     libucrt:lcidtoname_downlevel.obj
 0002:00003d30       ??_C@_1M@MNPLFAAH@?$AAe?$AAs?$AA?9?$AAE?$AAS?$AA?$AA@ 0000000180029d30     libucrt:lcidtoname_downlevel.obj
 0002:00003d40       ??_C@_1M@HJOOJFMA@?$AAf?$AAr?$AA?9?$AAC?$AAA?$AA?$AA@ 0000000180029d40     libucrt:lcidtoname_downlevel.obj
 0002:00003d50       ??_C@_1BG@JPOFPNAB@?$AAs?$AAr?$AA?9?$AAS?$AAP?$AA?9?$AAC?$AAy?$AAr?$AAl?$AA?$AA@ 0000000180029d50     libucrt:lcidtoname_downlevel.obj
 0002:00003d68       ??_C@_1M@LNFOCMOB@?$AAs?$AAe?$AA?9?$AAF?$AAI?$AA?$AA@ 0000000180029d68     libucrt:lcidtoname_downlevel.obj
 0002:00003d78       ??_C@_1O@MGJBOAMB@?$AAq?$AAu?$AAz?$AA?9?$AAP?$AAE?$AA?$AA@ 0000000180029d78     libucrt:lcidtoname_downlevel.obj
 0002:00003d88       ??_C@_1M@GJINLBOK@?$AAa?$AAr?$AA?9?$AAL?$AAY?$AA?$AA@ 0000000180029d88     libucrt:lcidtoname_downlevel.obj
 0002:00003d98       ??_C@_1M@GGMNHJNL@?$AAz?$AAh?$AA?9?$AAS?$AAG?$AA?$AA@ 0000000180029d98     libucrt:lcidtoname_downlevel.obj
 0002:00003da8       ??_C@_1M@HOIKODND@?$AAd?$AAe?$AA?9?$AAL?$AAU?$AA?$AA@ 0000000180029da8     libucrt:lcidtoname_downlevel.obj
 0002:00003db8       ??_C@_1M@DDOCCGFG@?$AAe?$AAn?$AA?9?$AAC?$AAA?$AA?$AA@ 0000000180029db8     libucrt:lcidtoname_downlevel.obj
 0002:00003dc8       ??_C@_1M@BNOEMJLF@?$AAe?$AAs?$AA?9?$AAG?$AAT?$AA?$AA@ 0000000180029dc8     libucrt:lcidtoname_downlevel.obj
 0002:00003dd8       ??_C@_1M@EOGNKEK@?$AAf?$AAr?$AA?9?$AAC?$AAH?$AA?$AA@ 0000000180029dd8     libucrt:lcidtoname_downlevel.obj
 0002:00003de8       ??_C@_1M@FLIDJFHL@?$AAh?$AAr?$AA?9?$AAB?$AAA?$AA?$AA@ 0000000180029de8     libucrt:lcidtoname_downlevel.obj
 0002:00003df8       ??_C@_1O@FMCELNAJ@?$AAs?$AAm?$AAj?$AA?9?$AAN?$AAO?$AA?$AA@ 0000000180029df8     libucrt:lcidtoname_downlevel.obj
 0002:00003e08       ??_C@_1M@JHGLJMGJ@?$AAa?$AAr?$AA?9?$AAD?$AAZ?$AA?$AA@ 0000000180029e08     libucrt:lcidtoname_downlevel.obj
 0002:00003e18       ??_C@_1M@JKKFDCNP@?$AAz?$AAh?$AA?9?$AAM?$AAO?$AA?$AA@ 0000000180029e18     libucrt:lcidtoname_downlevel.obj
 0002:00003e28       ??_C@_1M@GEEFALPE@?$AAd?$AAe?$AA?9?$AAL?$AAI?$AA?$AA@ 0000000180029e28     libucrt:lcidtoname_downlevel.obj
 0002:00003e38       ??_C@_1M@IGEOFBG@?$AAe?$AAn?$AA?9?$AAN?$AAZ?$AA?$AA@ 0000000180029e38     libucrt:lcidtoname_downlevel.obj
 0002:00003e48       ??_C@_1M@KDBONEHP@?$AAe?$AAs?$AA?9?$AAC?$AAR?$AA?$AA@ 0000000180029e48     libucrt:lcidtoname_downlevel.obj
 0002:00003e58       ??_C@_1M@FHMDOHNN@?$AAf?$AAr?$AA?9?$AAL?$AAU?$AA?$AA@ 0000000180029e58     libucrt:lcidtoname_downlevel.obj
 0002:00003e68       ??_C@_1BG@NFKKMAFG@?$AAb?$AAs?$AA?9?$AAB?$AAA?$AA?9?$AAL?$AAa?$AAt?$AAn?$AA?$AA@ 0000000180029e68     libucrt:lcidtoname_downlevel.obj
 0002:00003e80       ??_C@_1O@IMNBEMCI@?$AAs?$AAm?$AAj?$AA?9?$AAS?$AAE?$AA?$AA@ 0000000180029e80     libucrt:lcidtoname_downlevel.obj
 0002:00003e90       ??_C@_1M@DHHMBNDP@?$AAa?$AAr?$AA?9?$AAM?$AAA?$AA?$AA@ 0000000180029e90     libucrt:lcidtoname_downlevel.obj
 0002:00003ea0       ??_C@_1M@BNBLJCGH@?$AAe?$AAn?$AA?9?$AAI?$AAE?$AA?$AA@ 0000000180029ea0     libucrt:lcidtoname_downlevel.obj
 0002:00003eb0       ??_C@_1M@GEPAFMDL@?$AAe?$AAs?$AA?9?$AAP?$AAA?$AA?$AA@ 0000000180029eb0     libucrt:lcidtoname_downlevel.obj
 0002:00003ec0       ??_C@_1M@OJONDMDL@?$AAf?$AAr?$AA?9?$AAM?$AAC?$AA?$AA@ 0000000180029ec0     libucrt:lcidtoname_downlevel.obj
 0002:00003ed0       ??_C@_1BG@OBCNFJB@?$AAs?$AAr?$AA?9?$AAB?$AAA?$AA?9?$AAL?$AAa?$AAt?$AAn?$AA?$AA@ 0000000180029ed0     libucrt:lcidtoname_downlevel.obj
 0002:00003ee8       ??_C@_1O@KEMEEGPO@?$AAs?$AAm?$AAa?$AA?9?$AAN?$AAO?$AA?$AA@ 0000000180029ee8     libucrt:lcidtoname_downlevel.obj
 0002:00003ef8       ??_C@_1M@ELMGFODK@?$AAa?$AAr?$AA?9?$AAT?$AAN?$AA?$AA@ 0000000180029ef8     libucrt:lcidtoname_downlevel.obj
 0002:00003f08       ??_C@_1M@BHDLHFAF@?$AAe?$AAn?$AA?9?$AAZ?$AAA?$AA?$AA@ 0000000180029f08     libucrt:lcidtoname_downlevel.obj
 0002:00003f18       ??_C@_1M@BMGIGLIF@?$AAe?$AAs?$AA?9?$AAD?$AAO?$AA?$AA@ 0000000180029f18     libucrt:lcidtoname_downlevel.obj
 0002:00003f28       ??_C@_1BG@CMBHIPBE@?$AAs?$AAr?$AA?9?$AAB?$AAA?$AA?9?$AAC?$AAy?$AAr?$AAl?$AA?$AA@ 0000000180029f28     libucrt:lcidtoname_downlevel.obj
 0002:00003f40       ??_C@_1O@HEDBLHNP@?$AAs?$AAm?$AAa?$AA?9?$AAS?$AAE?$AA?$AA@ 0000000180029f40     libucrt:lcidtoname_downlevel.obj
 0002:00003f50       ??_C@_1M@DAGCADIM@?$AAa?$AAr?$AA?9?$AAO?$AAM?$AA?$AA@ 0000000180029f50     libucrt:lcidtoname_downlevel.obj
 0002:00003f60       ??_C@_1M@FODLMICG@?$AAe?$AAn?$AA?9?$AAJ?$AAM?$AA?$AA@ 0000000180029f60     libucrt:lcidtoname_downlevel.obj
 0002:00003f70       ??_C@_1M@DNMLCIHB@?$AAe?$AAs?$AA?9?$AAV?$AAE?$AA?$AA@ 0000000180029f70     libucrt:lcidtoname_downlevel.obj
 0002:00003f80       ??_C@_1O@EOKHMKJK@?$AAs?$AAm?$AAs?$AA?9?$AAF?$AAI?$AA?$AA@ 0000000180029f80     libucrt:lcidtoname_downlevel.obj
 0002:00003f90       ??_C@_1M@CAFJMKOF@?$AAa?$AAr?$AA?9?$AAY?$AAE?$AA?$AA@ 0000000180029f90     libucrt:lcidtoname_downlevel.obj
 0002:00003fa0       ??_C@_1M@CBFHIJLI@?$AAe?$AAn?$AA?9?$AAC?$AAB?$AA?$AA@ 0000000180029fa0     libucrt:lcidtoname_downlevel.obj
 0002:00003fb0       ??_C@_1M@BGNFLDN@?$AAe?$AAs?$AA?9?$AAC?$AAO?$AA?$AA@ 0000000180029fb0     libucrt:lcidtoname_downlevel.obj
 0002:00003fc0       ??_C@_1O@JMPHMAMC@?$AAs?$AAm?$AAn?$AA?9?$AAF?$AAI?$AA?$AA@ 0000000180029fc0     libucrt:lcidtoname_downlevel.obj
 0002:00003fd0       ??_C@_1M@JLANABKE@?$AAa?$AAr?$AA?9?$AAS?$AAY?$AA?$AA@ 0000000180029fd0     libucrt:lcidtoname_downlevel.obj
 0002:00003fe0       ??_C@_1M@HPKGCFGN@?$AAe?$AAn?$AA?9?$AAB?$AAZ?$AA?$AA@ 0000000180029fe0     libucrt:lcidtoname_downlevel.obj
 0002:00003ff0       ??_C@_1M@OLJCMLGM@?$AAe?$AAs?$AA?9?$AAP?$AAE?$AA?$AA@ 0000000180029ff0     libucrt:lcidtoname_downlevel.obj
 0002:00004000       ??_C@_1M@MKKGFKLE@?$AAa?$AAr?$AA?9?$AAJ?$AAO?$AA?$AA@ 000000018002a000     libucrt:lcidtoname_downlevel.obj
 0002:00004010       ??_C@_1M@EKPGLDNI@?$AAe?$AAn?$AA?9?$AAT?$AAT?$AA?$AA@ 000000018002a010     libucrt:lcidtoname_downlevel.obj
 0002:00004020       ??_C@_1M@OONGHFHE@?$AAe?$AAs?$AA?9?$AAA?$AAR?$AA?$AA@ 000000018002a020     libucrt:lcidtoname_downlevel.obj
 0002:00004030       ??_C@_1M@OOJFGBHE@?$AAa?$AAr?$AA?9?$AAL?$AAB?$AA?$AA@ 000000018002a030     libucrt:lcidtoname_downlevel.obj
 0002:00004040       ??_C@_1M@GCEJHNEG@?$AAe?$AAn?$AA?9?$AAZ?$AAW?$AA?$AA@ 000000018002a040     libucrt:lcidtoname_downlevel.obj
 0002:00004050       ??_C@_1M@JNOCAHJI@?$AAe?$AAs?$AA?9?$AAE?$AAC?$AA?$AA@ 000000018002a050     libucrt:lcidtoname_downlevel.obj
 0002:00004060       ??_C@_1M@JEFHPGGB@?$AAa?$AAr?$AA?9?$AAK?$AAW?$AA?$AA@ 000000018002a060     libucrt:lcidtoname_downlevel.obj
 0002:00004070       ??_C@_1M@MLKIBJOJ@?$AAe?$AAn?$AA?9?$AAP?$AAH?$AA?$AA@ 000000018002a070     libucrt:lcidtoname_downlevel.obj
 0002:00004080       ??_C@_1M@BDNIPEND@?$AAe?$AAs?$AA?9?$AAC?$AAL?$AA?$AA@ 000000018002a080     libucrt:lcidtoname_downlevel.obj
 0002:00004090       ??_C@_1M@MPNMEKBD@?$AAa?$AAr?$AA?9?$AAA?$AAE?$AA?$AA@ 000000018002a090     libucrt:lcidtoname_downlevel.obj
 0002:000040a0       ??_C@_1M@KBJALCPI@?$AAe?$AAs?$AA?9?$AAU?$AAY?$AA?$AA@ 000000018002a0a0     libucrt:lcidtoname_downlevel.obj
 0002:000040b0       ??_C@_1M@LLCCOAGA@?$AAa?$AAr?$AA?9?$AAB?$AAH?$AA?$AA@ 000000018002a0b0     libucrt:lcidtoname_downlevel.obj
 0002:000040c0       ??_C@_1M@PBFNCDEL@?$AAe?$AAs?$AA?9?$AAP?$AAY?$AA?$AA@ 000000018002a0c0     libucrt:lcidtoname_downlevel.obj
 0002:000040d0       ??_C@_1M@EDGINPNP@?$AAa?$AAr?$AA?9?$AAQ?$AAA?$AA?$AA@ 000000018002a0d0     libucrt:lcidtoname_downlevel.obj
 0002:000040e0       ??_C@_1M@MKDBIIJI@?$AAe?$AAs?$AA?9?$AAB?$AAO?$AA?$AA@ 000000018002a0e0     libucrt:lcidtoname_downlevel.obj
 0002:000040f0       ??_C@_1M@CPKKEBLD@?$AAe?$AAs?$AA?9?$AAS?$AAV?$AA?$AA@ 000000018002a0f0     libucrt:lcidtoname_downlevel.obj
 0002:00004100       ??_C@_1M@NDBGMMJL@?$AAe?$AAs?$AA?9?$AAH?$AAN?$AA?$AA@ 000000018002a100     libucrt:lcidtoname_downlevel.obj
 0002:00004110       ??_C@_1M@JIJIBHDP@?$AAe?$AAs?$AA?9?$AAN?$AAI?$AA?$AA@ 000000018002a110     libucrt:lcidtoname_downlevel.obj
 0002:00004120       ??_C@_1M@CGFMKEEK@?$AAe?$AAs?$AA?9?$AAP?$AAR?$AA?$AA@ 000000018002a120     libucrt:lcidtoname_downlevel.obj
 0002:00004130       ??_C@_1O@ICJHKIIK@?$AAz?$AAh?$AA?9?$AAC?$AAH?$AAT?$AA?$AA@ 000000018002a130     libucrt:lcidtoname_downlevel.obj
 0002:00004140       ??_C@_15CLNEJCE@?$AAs?$AAr?$AA?$AA@ 000000018002a140     libucrt:lcidtoname_downlevel.obj
 0002:00004f90       ??_C@_1M@KAHEKEIG@?$AAa?$AAf?$AA?9?$AAz?$AAa?$AA?$AA@ 000000018002af90     libucrt:lcidtoname_downlevel.obj
 0002:00004fa0       ??_C@_1M@GIECOABL@?$AAa?$AAr?$AA?9?$AAa?$AAe?$AA?$AA@ 000000018002afa0     libucrt:lcidtoname_downlevel.obj
 0002:00004fb0       ??_C@_1M@BMLMEKGI@?$AAa?$AAr?$AA?9?$AAb?$AAh?$AA?$AA@ 000000018002afb0     libucrt:lcidtoname_downlevel.obj
 0002:00004fc0       ??_C@_1M@DAPFDGGB@?$AAa?$AAr?$AA?9?$AAd?$AAz?$AA?$AA@ 000000018002afc0     libucrt:lcidtoname_downlevel.obj
 0002:00004fd0       ??_C@_1M@FJNKGKIG@?$AAa?$AAr?$AA?9?$AAe?$AAg?$AA?$AA@ 000000018002afd0     libucrt:lcidtoname_downlevel.obj
 0002:00004fe0       ??_C@_1M@FLGKKCLO@?$AAa?$AAr?$AA?9?$AAi?$AAq?$AA?$AA@ 000000018002afe0     libucrt:lcidtoname_downlevel.obj
 0002:00004ff0       ??_C@_1M@GNDIPALM@?$AAa?$AAr?$AA?9?$AAj?$AAo?$AA?$AA@ 000000018002aff0     libucrt:lcidtoname_downlevel.obj
 0002:00005000       ??_C@_1M@DDMJFMGJ@?$AAa?$AAr?$AA?9?$AAk?$AAw?$AA?$AA@ 000000018002b000     libucrt:lcidtoname_downlevel.obj
 0002:00005010       ??_C@_1M@EJALMLHM@?$AAa?$AAr?$AA?9?$AAl?$AAb?$AA?$AA@ 000000018002b010     libucrt:lcidtoname_downlevel.obj
 0002:00005020       ??_C@_1M@MOBDBLOC@?$AAa?$AAr?$AA?9?$AAl?$AAy?$AA?$AA@ 000000018002b020     libucrt:lcidtoname_downlevel.obj
 0002:00005030       ??_C@_1M@JAOCLHDH@?$AAa?$AAr?$AA?9?$AAm?$AAa?$AA?$AA@ 000000018002b030     libucrt:lcidtoname_downlevel.obj
 0002:00005040       ??_C@_1M@JHPMKJIE@?$AAa?$AAr?$AA?9?$AAo?$AAm?$AA?$AA@ 000000018002b040     libucrt:lcidtoname_downlevel.obj
 0002:00005050       ??_C@_1M@OEPGHFNH@?$AAa?$AAr?$AA?9?$AAq?$AAa?$AA?$AA@ 000000018002b050     libucrt:lcidtoname_downlevel.obj
 0002:00005060       ??_C@_1M@KJDONENM@?$AAa?$AAr?$AA?9?$AAs?$AAa?$AA?$AA@ 000000018002b060     libucrt:lcidtoname_downlevel.obj
 0002:00005070       ??_C@_1M@DMJDKLKM@?$AAa?$AAr?$AA?9?$AAs?$AAy?$AA?$AA@ 000000018002b070     libucrt:lcidtoname_downlevel.obj
 0002:00005080       ??_C@_1M@OMFIPEDC@?$AAa?$AAr?$AA?9?$AAt?$AAn?$AA?$AA@ 000000018002b080     libucrt:lcidtoname_downlevel.obj
 0002:00005090       ??_C@_1M@IHMHGAON@?$AAa?$AAr?$AA?9?$AAy?$AAe?$AA?$AA@ 000000018002b090     libucrt:lcidtoname_downlevel.obj
 0002:000050a0       ??_C@_1BG@KDCPGJGB@?$AAa?$AAz?$AA?9?$AAa?$AAz?$AA?9?$AAc?$AAy?$AAr?$AAl?$AA?$AA@ 000000018002b0a0     libucrt:lcidtoname_downlevel.obj
 0002:000050b8       ??_C@_1BG@IBCKDDOE@?$AAa?$AAz?$AA?9?$AAa?$AAz?$AA?9?$AAl?$AAa?$AAt?$AAn?$AA?$AA@ 000000018002b0b8     libucrt:lcidtoname_downlevel.obj
 0002:000050d0       ??_C@_1M@EGPFDCPD@?$AAb?$AAe?$AA?9?$AAb?$AAy?$AA?$AA@ 000000018002b0d0     libucrt:lcidtoname_downlevel.obj
 0002:000050e0       ??_C@_1M@PCMGMCGC@?$AAb?$AAg?$AA?9?$AAb?$AAg?$AA?$AA@ 000000018002b0e0     libucrt:lcidtoname_downlevel.obj
 0002:000050f0       ??_C@_1M@BJBMFGOB@?$AAb?$AAn?$AA?9?$AAi?$AAn?$AA?$AA@ 000000018002b0f0     libucrt:lcidtoname_downlevel.obj
 0002:00005100       ??_C@_1BG@EAKMMACD@?$AAb?$AAs?$AA?9?$AAb?$AAa?$AA?9?$AAl?$AAa?$AAt?$AAn?$AA?$AA@ 000000018002b100     libucrt:lcidtoname_downlevel.obj
 0002:00005118       ??_C@_1M@KGADAODK@?$AAc?$AAa?$AA?9?$AAe?$AAs?$AA?$AA@ 000000018002b118     libucrt:lcidtoname_downlevel.obj
 0002:00005128       ??_C@_1M@COAJPDHI@?$AAc?$AAs?$AA?9?$AAc?$AAz?$AA?$AA@ 000000018002b128     libucrt:lcidtoname_downlevel.obj
 0002:00005138       ??_C@_1M@DHBHFONH@?$AAc?$AAy?$AA?9?$AAg?$AAb?$AA?$AA@ 000000018002b138     libucrt:lcidtoname_downlevel.obj
 0002:00005148       ??_C@_1M@IMGKELGA@?$AAd?$AAa?$AA?9?$AAd?$AAk?$AA?$AA@ 000000018002b148     libucrt:lcidtoname_downlevel.obj
 0002:00005158       ??_C@_1M@NNDGDNGA@?$AAd?$AAe?$AA?9?$AAa?$AAt?$AA?$AA@ 000000018002b158     libucrt:lcidtoname_downlevel.obj
 0002:00005168       ??_C@_1M@IKDBHEEM@?$AAd?$AAe?$AA?9?$AAc?$AAh?$AA?$AA@ 000000018002b168     libucrt:lcidtoname_downlevel.obj
 0002:00005178       ??_C@_1M@GFFOJMCJ@?$AAd?$AAe?$AA?9?$AAd?$AAe?$AA?$AA@ 000000018002b178     libucrt:lcidtoname_downlevel.obj
 0002:00005188       ??_C@_1M@MDNLKBPM@?$AAd?$AAe?$AA?9?$AAl?$AAi?$AA?$AA@ 000000018002b188     libucrt:lcidtoname_downlevel.obj
 0002:00005198       ??_C@_1M@NJBEEJNL@?$AAd?$AAe?$AA?9?$AAl?$AAu?$AA?$AA@ 000000018002b198     libucrt:lcidtoname_downlevel.obj
 0002:000051a8       ??_C@_1O@GNNELBAP@?$AAd?$AAi?$AAv?$AA?9?$AAm?$AAv?$AA?$AA@ 000000018002b1a8     libucrt:lcidtoname_downlevel.obj
 0002:000051b8       ??_C@_1M@EJLEOGAE@?$AAe?$AAl?$AA?9?$AAg?$AAr?$AA?$AA@ 000000018002b1b8     libucrt:lcidtoname_downlevel.obj
 0002:000051c8       ??_C@_1M@GMPONJN@?$AAe?$AAn?$AA?9?$AAa?$AAu?$AA?$AA@ 000000018002b1c8     libucrt:lcidtoname_downlevel.obj
 0002:000051d8       ??_C@_1M@NIDIIPGF@?$AAe?$AAn?$AA?9?$AAb?$AAz?$AA?$AA@ 000000018002b1d8     libucrt:lcidtoname_downlevel.obj
 0002:000051e8       ??_C@_1M@JEHMIMFO@?$AAe?$AAn?$AA?9?$AAc?$AAa?$AA?$AA@ 000000018002b1e8     libucrt:lcidtoname_downlevel.obj
 0002:000051f8       ??_C@_1M@IGMJCDLA@?$AAe?$AAn?$AA?9?$AAc?$AAb?$AA?$AA@ 000000018002b1f8     libucrt:lcidtoname_downlevel.obj
 0002:00005208       ??_C@_1M@BNFIGBKG@?$AAe?$AAn?$AA?9?$AAg?$AAb?$AA?$AA@ 000000018002b208     libucrt:lcidtoname_downlevel.obj
 0002:00005218       ??_C@_1M@LKIFDIGP@?$AAe?$AAn?$AA?9?$AAi?$AAe?$AA?$AA@ 000000018002b218     libucrt:lcidtoname_downlevel.obj
 0002:00005228       ??_C@_1M@PJKFGCCO@?$AAe?$AAn?$AA?9?$AAj?$AAm?$AA?$AA@ 000000018002b228     libucrt:lcidtoname_downlevel.obj
 0002:00005238       ??_C@_1M@KPPKEPBO@?$AAe?$AAn?$AA?9?$AAn?$AAz?$AA?$AA@ 000000018002b238     libucrt:lcidtoname_downlevel.obj
 0002:00005248       ??_C@_1M@GMDGLDOB@?$AAe?$AAn?$AA?9?$AAp?$AAh?$AA?$AA@ 000000018002b248     libucrt:lcidtoname_downlevel.obj
 0002:00005258       ??_C@_1M@ONGIBJNA@?$AAe?$AAn?$AA?9?$AAt?$AAt?$AA?$AA@ 000000018002b258     libucrt:lcidtoname_downlevel.obj
 0002:00005268       ??_C@_1M@LLODPCMM@?$AAe?$AAn?$AA?9?$AAu?$AAs?$AA?$AA@ 000000018002b268     libucrt:lcidtoname_downlevel.obj
 0002:00005278       ??_C@_1M@LAKFNPAN@?$AAe?$AAn?$AA?9?$AAz?$AAa?$AA?$AA@ 000000018002b278     libucrt:lcidtoname_downlevel.obj
 0002:00005288       ??_C@_1M@MFNHNHEO@?$AAe?$AAn?$AA?9?$AAz?$AAw?$AA?$AA@ 000000018002b288     libucrt:lcidtoname_downlevel.obj
 0002:00005298       ??_C@_1M@EJEINPHM@?$AAe?$AAs?$AA?9?$AAa?$AAr?$AA?$AA@ 000000018002b298     libucrt:lcidtoname_downlevel.obj
 0002:000052a8       ??_C@_1M@GNKPCCJA@?$AAe?$AAs?$AA?9?$AAb?$AAo?$AA?$AA@ 000000018002b2a8     libucrt:lcidtoname_downlevel.obj
 0002:000052b8       ??_C@_1M@LEEGFONL@?$AAe?$AAs?$AA?9?$AAc?$AAl?$AA?$AA@ 000000018002b2b8     libucrt:lcidtoname_downlevel.obj
 0002:000052c8       ??_C@_1M@KGPDPBDF@?$AAe?$AAs?$AA?9?$AAc?$AAo?$AA?$AA@ 000000018002b2c8     libucrt:lcidtoname_downlevel.obj
 0002:000052d8       ??_C@_1M@EIAHOHH@?$AAe?$AAs?$AA?9?$AAc?$AAr?$AA?$AA@ 000000018002b2d8     libucrt:lcidtoname_downlevel.obj
 0002:000052e8       ??_C@_1M@LLPGMBIN@?$AAe?$AAs?$AA?9?$AAd?$AAo?$AA?$AA@ 000000018002b2e8     libucrt:lcidtoname_downlevel.obj
 0002:000052f8       ??_C@_1M@DKHMKNJA@?$AAe?$AAs?$AA?9?$AAe?$AAc?$AA?$AA@ 000000018002b2f8     libucrt:lcidtoname_downlevel.obj
 0002:00005308       ??_C@_1M@GKGFPKAP@?$AAe?$AAs?$AA?9?$AAe?$AAs?$AA?$AA@ 000000018002b308     libucrt:lcidtoname_downlevel.obj
 0002:00005318       ??_C@_1M@LKHKGDLN@?$AAe?$AAs?$AA?9?$AAg?$AAt?$AA?$AA@ 000000018002b318     libucrt:lcidtoname_downlevel.obj
 0002:00005328       ??_C@_1M@HEIIGGJD@?$AAe?$AAs?$AA?9?$AAh?$AAn?$AA?$AA@ 000000018002b328     libucrt:lcidtoname_downlevel.obj
 0002:00005338       ??_C@_1M@FBDHPPGD@?$AAe?$AAs?$AA?9?$AAm?$AAx?$AA?$AA@ 000000018002b338     libucrt:lcidtoname_downlevel.obj
 0002:00005348       ??_C@_1M@DPAGLNDH@?$AAe?$AAs?$AA?9?$AAn?$AAi?$AA?$AA@ 000000018002b348     libucrt:lcidtoname_downlevel.obj
 0002:00005358       ??_C@_1M@MDGOPGDD@?$AAe?$AAs?$AA?9?$AAp?$AAa?$AA?$AA@ 000000018002b358     libucrt:lcidtoname_downlevel.obj
 0002:00005368       ??_C@_1M@EMAMGBGE@?$AAe?$AAs?$AA?9?$AAp?$AAe?$AA?$AA@ 000000018002b368     libucrt:lcidtoname_downlevel.obj
 0002:00005378       ??_C@_1M@IBMCAOEC@?$AAe?$AAs?$AA?9?$AAp?$AAr?$AA?$AA@ 000000018002b378     libucrt:lcidtoname_downlevel.obj
 0002:00005388       ??_C@_1M@FGMDIJED@?$AAe?$AAs?$AA?9?$AAp?$AAy?$AA?$AA@ 000000018002b388     libucrt:lcidtoname_downlevel.obj
 0002:00005398       ??_C@_1M@IIDEOLLL@?$AAe?$AAs?$AA?9?$AAs?$AAv?$AA?$AA@ 000000018002b398     libucrt:lcidtoname_downlevel.obj
 0002:000053a8       ??_C@_1M@GAOBIPA@?$AAe?$AAs?$AA?9?$AAu?$AAy?$AA?$AA@ 000000018002b3a8     libucrt:lcidtoname_downlevel.obj
 0002:000053b8       ??_C@_1M@JKFFICHJ@?$AAe?$AAs?$AA?9?$AAv?$AAe?$AA?$AA@ 000000018002b3b8     libucrt:lcidtoname_downlevel.obj
 0002:000053c8       ??_C@_1M@PNMLOJDF@?$AAe?$AAt?$AA?9?$AAe?$AAe?$AA?$AA@ 000000018002b3c8     libucrt:lcidtoname_downlevel.obj
 0002:000053d8       ??_C@_1M@GHHLIKEI@?$AAe?$AAu?$AA?9?$AAe?$AAs?$AA?$AA@ 000000018002b3d8     libucrt:lcidtoname_downlevel.obj
 0002:000053e8       ??_C@_1M@PBNONODE@?$AAf?$AAa?$AA?9?$AAi?$AAr?$AA?$AA@ 000000018002b3e8     libucrt:lcidtoname_downlevel.obj
 0002:000053f8       ??_C@_1M@JEEHPMIL@?$AAf?$AAi?$AA?9?$AAf?$AAi?$AA?$AA@ 000000018002b3f8     libucrt:lcidtoname_downlevel.obj
 0002:00005408       ??_C@_1M@LMDCNDBA@?$AAf?$AAo?$AA?9?$AAf?$AAo?$AA?$AA@ 000000018002b408     libucrt:lcidtoname_downlevel.obj
 0002:00005418       ??_C@_1M@JKEOHLDK@?$AAf?$AAr?$AA?9?$AAb?$AAe?$AA?$AA@ 000000018002b418     libucrt:lcidtoname_downlevel.obj
 0002:00005428       ??_C@_1M@NOHADPMI@?$AAf?$AAr?$AA?9?$AAc?$AAa?$AA?$AA@ 000000018002b428     libucrt:lcidtoname_downlevel.obj
 0002:00005438       ??_C@_1M@KDHIHAEC@?$AAf?$AAr?$AA?9?$AAc?$AAh?$AA?$AA@ 000000018002b438     libucrt:lcidtoname_downlevel.obj
 0002:00005448       ??_C@_1M@MMBBFGAK@?$AAf?$AAr?$AA?9?$AAf?$AAr?$AA?$AA@ 000000018002b448     libucrt:lcidtoname_downlevel.obj
 0002:00005458       ??_C@_1M@PAFNENNF@?$AAf?$AAr?$AA?9?$AAl?$AAu?$AA?$AA@ 000000018002b458     libucrt:lcidtoname_downlevel.obj
 0002:00005468       ??_C@_1M@EOHDJGDD@?$AAf?$AAr?$AA?9?$AAm?$AAc?$AA?$AA@ 000000018002b468     libucrt:lcidtoname_downlevel.obj
 0002:00005478       ??_C@_1M@FAPLLOPF@?$AAg?$AAl?$AA?9?$AAe?$AAs?$AA?$AA@ 000000018002b478     libucrt:lcidtoname_downlevel.obj
 0002:00005488       ??_C@_1M@FOPBFLOO@?$AAg?$AAu?$AA?9?$AAi?$AAn?$AA?$AA@ 000000018002b488     libucrt:lcidtoname_downlevel.obj
 0002:00005498       ??_C@_1M@KBMCINPM@?$AAh?$AAe?$AA?9?$AAi?$AAl?$AA?$AA@ 000000018002b498     libucrt:lcidtoname_downlevel.obj
 0002:000054a8       ??_C@_1M@BBPHKFPJ@?$AAh?$AAi?$AA?9?$AAi?$AAn?$AA?$AA@ 000000018002b4a8     libucrt:lcidtoname_downlevel.obj
 0002:000054b8       ??_C@_1M@PMBNDPHD@?$AAh?$AAr?$AA?9?$AAb?$AAa?$AA?$AA@ 000000018002b4b8     libucrt:lcidtoname_downlevel.obj
 0002:000054c8       ??_C@_1M@BPCKOEGE@?$AAh?$AAr?$AA?9?$AAh?$AAr?$AA?$AA@ 000000018002b4c8     libucrt:lcidtoname_downlevel.obj
 0002:000054d8       ??_C@_1M@GACBMHKE@?$AAh?$AAu?$AA?9?$AAh?$AAu?$AA?$AA@ 000000018002b4d8     libucrt:lcidtoname_downlevel.obj
 0002:000054e8       ??_C@_1M@MILPAJJC@?$AAh?$AAy?$AA?9?$AAa?$AAm?$AA?$AA@ 000000018002b4e8     libucrt:lcidtoname_downlevel.obj
 0002:000054f8       ??_C@_1M@BABBICEC@?$AAi?$AAd?$AA?9?$AAi?$AAd?$AA?$AA@ 000000018002b4f8     libucrt:lcidtoname_downlevel.obj
 0002:00005508       ??_C@_1M@BIKNHHPF@?$AAi?$AAs?$AA?9?$AAi?$AAs?$AA?$AA@ 000000018002b508     libucrt:lcidtoname_downlevel.obj
 0002:00005518       ??_C@_1M@NMPCJPHE@?$AAi?$AAt?$AA?9?$AAc?$AAh?$AA?$AA@ 000000018002b518     libucrt:lcidtoname_downlevel.obj
 0002:00005528       ??_C@_1M@GHKGFEDF@?$AAi?$AAt?$AA?9?$AAi?$AAt?$AA?$AA@ 000000018002b528     libucrt:lcidtoname_downlevel.obj
 0002:00005538       ??_C@_1M@NIEJCJJA@?$AAj?$AAa?$AA?9?$AAj?$AAp?$AA?$AA@ 000000018002b538     libucrt:lcidtoname_downlevel.obj
 0002:00005548       ??_C@_1M@JILFNBIM@?$AAk?$AAa?$AA?9?$AAg?$AAe?$AA?$AA@ 000000018002b548     libucrt:lcidtoname_downlevel.obj
 0002:00005558       ??_C@_1M@PACPMGPH@?$AAk?$AAk?$AA?9?$AAk?$AAz?$AA?$AA@ 000000018002b558     libucrt:lcidtoname_downlevel.obj
 0002:00005568       ??_C@_1M@IELFGMHA@?$AAk?$AAn?$AA?9?$AAi?$AAn?$AA?$AA@ 000000018002b568     libucrt:lcidtoname_downlevel.obj
 0002:00005578       ??_C@_1O@IBBJHCH@?$AAk?$AAo?$AAk?$AA?9?$AAi?$AAn?$AA?$AA@ 000000018002b578     libucrt:lcidtoname_downlevel.obj
 0002:00005588       ??_C@_1M@DMHAEOGC@?$AAk?$AAo?$AA?9?$AAk?$AAr?$AA?$AA@ 000000018002b588     libucrt:lcidtoname_downlevel.obj
 0002:00005598       ??_C@_1M@HBAHBIGA@?$AAk?$AAy?$AA?9?$AAk?$AAg?$AA?$AA@ 000000018002b598     libucrt:lcidtoname_downlevel.obj
 0002:000055a8       ??_C@_1M@KPMILCJG@?$AAl?$AAt?$AA?9?$AAl?$AAt?$AA?$AA@ 000000018002b5a8     libucrt:lcidtoname_downlevel.obj
 0002:000055b8       ??_C@_1M@BDEKKCA@?$AAl?$AAv?$AA?9?$AAl?$AAv?$AA?$AA@ 000000018002b5b8     libucrt:lcidtoname_downlevel.obj
 0002:000055c8       ??_C@_1M@ELCKCCJJ@?$AAm?$AAi?$AA?9?$AAn?$AAz?$AA?$AA@ 000000018002b5c8     libucrt:lcidtoname_downlevel.obj
 0002:000055d8       ??_C@_1M@CBOOLAPA@?$AAm?$AAk?$AA?9?$AAm?$AAk?$AA?$AA@ 000000018002b5d8     libucrt:lcidtoname_downlevel.obj
 0002:000055e8       ??_C@_1M@GPHNBJKN@?$AAm?$AAl?$AA?9?$AAi?$AAn?$AA?$AA@ 000000018002b5e8     libucrt:lcidtoname_downlevel.obj
 0002:000055f8       ??_C@_1M@PABJILIG@?$AAm?$AAn?$AA?9?$AAm?$AAn?$AA?$AA@ 000000018002b5f8     libucrt:lcidtoname_downlevel.obj
 0002:00005608       ??_C@_1M@FGBKKIPG@?$AAm?$AAr?$AA?9?$AAi?$AAn?$AA?$AA@ 000000018002b608     libucrt:lcidtoname_downlevel.obj
 0002:00005618       ??_C@_1M@NDBPDDAL@?$AAm?$AAs?$AA?9?$AAb?$AAn?$AA?$AA@ 000000018002b618     libucrt:lcidtoname_downlevel.obj
 0002:00005628       ??_C@_1M@OPIHOOPI@?$AAm?$AAs?$AA?9?$AAm?$AAy?$AA?$AA@ 000000018002b628     libucrt:lcidtoname_downlevel.obj
 0002:00005638       ??_C@_1M@PPDBCNFM@?$AAm?$AAt?$AA?9?$AAm?$AAt?$AA?$AA@ 000000018002b638     libucrt:lcidtoname_downlevel.obj
 0002:00005648       ??_C@_1M@KDJDKMDD@?$AAn?$AAb?$AA?9?$AAn?$AAo?$AA?$AA@ 000000018002b648     libucrt:lcidtoname_downlevel.obj
 0002:00005658       ??_C@_1M@KFCFLMJP@?$AAn?$AAl?$AA?9?$AAb?$AAe?$AA?$AA@ 000000018002b658     libucrt:lcidtoname_downlevel.obj
 0002:00005668       ??_C@_1M@KPOPDDGO@?$AAn?$AAl?$AA?9?$AAn?$AAl?$AA?$AA@ 000000018002b668     libucrt:lcidtoname_downlevel.obj
 0002:00005678       ??_C@_1M@LJKPEMLN@?$AAn?$AAn?$AA?9?$AAn?$AAo?$AA?$AA@ 000000018002b678     libucrt:lcidtoname_downlevel.obj
 0002:00005688       ??_C@_1M@BDGHHBFL@?$AAn?$AAs?$AA?9?$AAz?$AAa?$AA?$AA@ 000000018002b688     libucrt:lcidtoname_downlevel.obj
 0002:00005698       ??_C@_1M@IDEHOAP@?$AAp?$AAa?$AA?9?$AAi?$AAn?$AA?$AA@ 000000018002b698     libucrt:lcidtoname_downlevel.obj
 0002:000056a8       ??_C@_1M@HDBKGOGH@?$AAp?$AAl?$AA?9?$AAp?$AAl?$AA?$AA@ 000000018002b6a8     libucrt:lcidtoname_downlevel.obj
 0002:000056b8       ??_C@_1M@LJLLCMEH@?$AAp?$AAt?$AA?9?$AAb?$AAr?$AA?$AA@ 000000018002b6b8     libucrt:lcidtoname_downlevel.obj
 0002:000056c8       ??_C@_1M@NCMONAAL@?$AAp?$AAt?$AA?9?$AAp?$AAt?$AA?$AA@ 000000018002b6c8     libucrt:lcidtoname_downlevel.obj
 0002:000056d8       ??_C@_1O@EAKMAJDN@?$AAq?$AAu?$AAz?$AA?9?$AAb?$AAo?$AA?$AA@ 000000018002b6d8     libucrt:lcidtoname_downlevel.obj
 0002:000056e8       ??_C@_1O@BHHPIGDN@?$AAq?$AAu?$AAz?$AA?9?$AAe?$AAc?$AA?$AA@ 000000018002b6e8     libucrt:lcidtoname_downlevel.obj
 0002:000056f8       ??_C@_1O@GBAPEKMJ@?$AAq?$AAu?$AAz?$AA?9?$AAp?$AAe?$AA?$AA@ 000000018002b6f8     libucrt:lcidtoname_downlevel.obj
 0002:00005708       ??_C@_1M@CLGLEFBO@?$AAr?$AAo?$AA?9?$AAr?$AAo?$AA?$AA@ 000000018002b708     libucrt:lcidtoname_downlevel.obj
 0002:00005718       ??_C@_1M@CEEDODME@?$AAr?$AAu?$AA?9?$AAr?$AAu?$AA?$AA@ 000000018002b718     libucrt:lcidtoname_downlevel.obj
 0002:00005728       ??_C@_1M@HPKKKMPP@?$AAs?$AAa?$AA?9?$AAi?$AAn?$AA?$AA@ 000000018002b728     libucrt:lcidtoname_downlevel.obj
 0002:00005738       ??_C@_1M@BKMAIGOJ@?$AAs?$AAe?$AA?9?$AAf?$AAi?$AA?$AA@ 000000018002b738     libucrt:lcidtoname_downlevel.obj
 0002:00005748       ??_C@_1M@NDPIFLFI@?$AAs?$AAe?$AA?9?$AAn?$AAo?$AA?$AA@ 000000018002b748     libucrt:lcidtoname_downlevel.obj
 0002:00005758       ??_C@_1M@DANKKHJ@?$AAs?$AAe?$AA?9?$AAs?$AAe?$AA?$AA@ 000000018002b758     libucrt:lcidtoname_downlevel.obj
 0002:00005768       ??_C@_1M@PNBLONPJ@?$AAs?$AAk?$AA?9?$AAs?$AAk?$AA?$AA@ 000000018002b768     libucrt:lcidtoname_downlevel.obj
 0002:00005778       ??_C@_1M@LFMODOAL@?$AAs?$AAl?$AA?9?$AAs?$AAi?$AA?$AA@ 000000018002b778     libucrt:lcidtoname_downlevel.obj
 0002:00005788       ??_C@_1O@DFKOMPG@?$AAs?$AAm?$AAa?$AA?9?$AAn?$AAo?$AA?$AA@ 000000018002b788     libucrt:lcidtoname_downlevel.obj
 0002:00005798       ??_C@_1O@NDKPBNNH@?$AAs?$AAm?$AAa?$AA?9?$AAs?$AAe?$AA?$AA@ 000000018002b798     libucrt:lcidtoname_downlevel.obj
 0002:000057a8       ??_C@_1O@PLLKBHAB@?$AAs?$AAm?$AAj?$AA?9?$AAn?$AAo?$AA?$AA@ 000000018002b7a8     libucrt:lcidtoname_downlevel.obj
 0002:000057b8       ??_C@_1O@CLEPOGCA@?$AAs?$AAm?$AAj?$AA?9?$AAs?$AAe?$AA?$AA@ 000000018002b7b8     libucrt:lcidtoname_downlevel.obj
 0002:000057c8       ??_C@_1O@DLGJGKMK@?$AAs?$AAm?$AAn?$AA?9?$AAf?$AAi?$AA?$AA@ 000000018002b7c8     libucrt:lcidtoname_downlevel.obj
 0002:000057d8       ??_C@_1O@OJDJGAJC@?$AAs?$AAm?$AAs?$AA?9?$AAf?$AAi?$AA?$AA@ 000000018002b7d8     libucrt:lcidtoname_downlevel.obj
 0002:000057e8       ??_C@_1M@BOFOGHPB@?$AAs?$AAq?$AA?9?$AAa?$AAl?$AA?$AA@ 000000018002b7e8     libucrt:lcidtoname_downlevel.obj
 0002:000057f8       ??_C@_1BG@LJBBIPGB@?$AAs?$AAr?$AA?9?$AAb?$AAa?$AA?9?$AAc?$AAy?$AAr?$AAl?$AA?$AA@ 000000018002b7f8     libucrt:lcidtoname_downlevel.obj
 0002:00005810       ??_C@_1BG@JLBENFOE@?$AAs?$AAr?$AA?9?$AAb?$AAa?$AA?9?$AAl?$AAa?$AAt?$AAn?$AA?$AA@ 000000018002b810     libucrt:lcidtoname_downlevel.obj
 0002:00005828       ??_C@_1BG@KODPNHE@?$AAs?$AAr?$AA?9?$AAs?$AAp?$AA?9?$AAc?$AAy?$AAr?$AAl?$AA?$AA@ 000000018002b828     libucrt:lcidtoname_downlevel.obj
 0002:00005840       ??_C@_1BG@CIOGKHPB@?$AAs?$AAr?$AA?9?$AAs?$AAp?$AA?9?$AAl?$AAa?$AAt?$AAn?$AA?$AA@ 000000018002b840     libucrt:lcidtoname_downlevel.obj
 0002:00005858       ??_C@_1M@NGFJLMAC@?$AAs?$AAv?$AA?9?$AAf?$AAi?$AA?$AA@ 000000018002b858     libucrt:lcidtoname_downlevel.obj
 0002:00005868       ??_C@_1M@MPJEJAJC@?$AAs?$AAv?$AA?9?$AAs?$AAe?$AA?$AA@ 000000018002b868     libucrt:lcidtoname_downlevel.obj
 0002:00005878       ??_C@_1M@MPNDHLFK@?$AAs?$AAw?$AA?9?$AAk?$AAe?$AA?$AA@ 000000018002b878     libucrt:lcidtoname_downlevel.obj
 0002:00005888       ??_C@_1O@KOHBJJI@?$AAs?$AAy?$AAr?$AA?9?$AAs?$AAy?$AA?$AA@ 000000018002b888     libucrt:lcidtoname_downlevel.obj
 0002:00005898       ??_C@_1M@LDCEFHA@?$AAt?$AAa?$AA?9?$AAi?$AAn?$AA?$AA@ 000000018002b898     libucrt:lcidtoname_downlevel.obj
 0002:000058a8       ??_C@_1M@CNJOFAK@?$AAt?$AAe?$AA?9?$AAi?$AAn?$AA?$AA@ 000000018002b8a8     libucrt:lcidtoname_downlevel.obj
 0002:000058b8       ??_C@_1M@GNAECACD@?$AAt?$AAh?$AA?9?$AAt?$AAh?$AA?$AA@ 000000018002b8b8     libucrt:lcidtoname_downlevel.obj
 0002:000058c8       ??_C@_1M@CHBIHOJO@?$AAt?$AAn?$AA?9?$AAz?$AAa?$AA?$AA@ 000000018002b8c8     libucrt:lcidtoname_downlevel.obj
 0002:000058d8       ??_C@_1M@GCCMIGPJ@?$AAt?$AAr?$AA?9?$AAt?$AAr?$AA?$AA@ 000000018002b8d8     libucrt:lcidtoname_downlevel.obj
 0002:000058e8       ??_C@_1M@CELMCNBK@?$AAt?$AAt?$AA?9?$AAr?$AAu?$AA?$AA@ 000000018002b8e8     libucrt:lcidtoname_downlevel.obj
 0002:000058f8       ??_C@_1M@KLMCELGA@?$AAu?$AAk?$AA?9?$AAu?$AAa?$AA?$AA@ 000000018002b8f8     libucrt:lcidtoname_downlevel.obj
 0002:00005908       ??_C@_1M@EPAJJAJF@?$AAu?$AAr?$AA?9?$AAp?$AAk?$AA?$AA@ 000000018002b908     libucrt:lcidtoname_downlevel.obj
 0002:00005918       ??_C@_1BG@GEGPMCDJ@?$AAu?$AAz?$AA?9?$AAu?$AAz?$AA?9?$AAc?$AAy?$AAr?$AAl?$AA?$AA@ 000000018002b918     libucrt:lcidtoname_downlevel.obj
 0002:00005930       ??_C@_1BG@EGGKJILM@?$AAu?$AAz?$AA?9?$AAu?$AAz?$AA?9?$AAl?$AAa?$AAt?$AAn?$AA?$AA@ 000000018002b930     libucrt:lcidtoname_downlevel.obj
 0002:00005948       ??_C@_1M@GFOCLFF@?$AAv?$AAi?$AA?9?$AAv?$AAn?$AA?$AA@ 000000018002b948     libucrt:lcidtoname_downlevel.obj
 0002:00005958       ??_C@_1M@CPAMEDFI@?$AAx?$AAh?$AA?9?$AAz?$AAa?$AA?$AA@ 000000018002b958     libucrt:lcidtoname_downlevel.obj
 0002:00005968       ??_C@_1O@EBKIFIGN@?$AAz?$AAh?$AA?9?$AAc?$AAh?$AAs?$AA?$AA@ 000000018002b968     libucrt:lcidtoname_downlevel.obj
 0002:00005978       ??_C@_1O@NMHPGANE@?$AAz?$AAh?$AA?9?$AAc?$AAh?$AAt?$AA?$AA@ 000000018002b978     libucrt:lcidtoname_downlevel.obj
 0002:00005988       ??_C@_1M@LPINJOMC@?$AAz?$AAh?$AA?9?$AAc?$AAn?$AA?$AA@ 000000018002b988     libucrt:lcidtoname_downlevel.obj
 0002:00005998       ??_C@_1M@OCJEJODD@?$AAz?$AAh?$AA?9?$AAh?$AAk?$AA?$AA@ 000000018002b998     libucrt:lcidtoname_downlevel.obj
 0002:000059a8       ??_C@_1M@DNDLJINH@?$AAz?$AAh?$AA?9?$AAm?$AAo?$AA?$AA@ 000000018002b9a8     libucrt:lcidtoname_downlevel.obj
 0002:000059b8       ??_C@_1M@MBFDNDND@?$AAz?$AAh?$AA?9?$AAs?$AAg?$AA?$AA@ 000000018002b9b8     libucrt:lcidtoname_downlevel.obj
 0002:000059c8       ??_C@_1M@IMEPLEPE@?$AAz?$AAh?$AA?9?$AAt?$AAw?$AA?$AA@ 000000018002b9c8     libucrt:lcidtoname_downlevel.obj
 0002:000059d8       ??_C@_1M@BBGHNHJP@?$AAz?$AAu?$AA?9?$AAz?$AAa?$AA?$AA@ 000000018002b9d8     libucrt:lcidtoname_downlevel.obj
 0002:000059e4       ??_C@_00CNPNBAHC@?$AA@     000000018002b9e4     libucrt:mbrtowc.obj
 0002:00005c40       ??_C@_1BA@BALFACEM@?$AAC?$AAO?$AAN?$AAO?$AAU?$AAT?$AA$?$AA?$AA@ 000000018002bc40     libucrt:initcon.obj
 0002:00005c50       __log10_256_lead           000000018002bc50     libucrt:log10_256_lead_tail_table.obj
 0002:00006460       __log10_256_tail           000000018002c460     libucrt:log10_256_lead_tail_table.obj
 0002:00006c70       __log_F_inv_qword          000000018002cc70     libucrt:log_f_inv_qword_table.obj
 0002:00007480       ??_C@_05HGHHAHAP@log10?$AA@ 000000018002d480     libucrt:log_special.obj
 0002:000074a0       ??_C@_0N@PEOMNEPL@calculateNFP@ 000000018002d4a0     addon.obj
 0002:000074b0       ??_C@_0BO@LFGFAPKD@c?3?2projects?2deepnest?2addon?4cc@ 000000018002d4b0     addon.obj
 0002:000074d0       ??_C@_05ONJGPJEO@addon@    000000018002d4d0     addon.obj
 0002:000074d8       ??_C@_01FHEEJDEE@A@        000000018002d4d8     minkowski.obj
 0002:000074dc       ??_C@_01HMGJMAIH@B@        000000018002d4dc     minkowski.obj
 0002:000074e0       ??_C@_01FJMABOPO@x@        000000018002d4e0     minkowski.obj
 0002:000074e4       ??_C@_01EANLCPLP@y@        000000018002d4e4     minkowski.obj
 0002:000074e8       ??_C@_08GOINNFB@children@  000000018002d4e8     minkowski.obj
 0002:000074f8       ??_C@_0BD@OLBABOEK@vector?$DMT?$DO?5too?5long@ 000000018002d4f8     minkowski.obj
 0002:00007510       ??_C@_0BB@MOGOBHAF@list?$DMT?$DO?5too?5long@ 000000018002d510     minkowski.obj
 0002:00007528       ??_C@_0BE@JONHPENG@map?1set?$DMT?$DO?5too?5long@ 000000018002d528     minkowski.obj
 0002:00007540       __real@3fe0000000000000    000000018002d540     minkowski.obj
 0002:00007548       __real@3ff0000000000000    000000018002d548     minkowski.obj
 0002:00007550       __real@41a999999fcccccd    000000018002d550     minkowski.obj
 0002:00007560       __xmm@7fffffffffffffff7fffffffffffffff 000000018002d560     minkowski.obj
 0002:000075d0       _load_config_used          000000018002d5d0     LIBCMT:loadcfg.obj
 0002:000076d0       ??_R4exception@std@@6B@    000000018002d6d0     libcpmt:xthrow.obj
 0002:000076f8       ??_R3exception@std@@8      000000018002d6f8     libcpmt:xthrow.obj
 0002:00007710       ??_R2exception@std@@8      000000018002d710     libcpmt:xthrow.obj
 0002:00007720       ??_R1A@?0A@EA@exception@std@@8 000000018002d720     libcpmt:xthrow.obj
 0002:00007748       ??_R4bad_alloc@std@@6B@    000000018002d748     libcpmt:xthrow.obj
 0002:00007770       ??_R3bad_alloc@std@@8      000000018002d770     libcpmt:xthrow.obj
 0002:00007788       ??_R2bad_alloc@std@@8      000000018002d788     libcpmt:xthrow.obj
 0002:000077a0       ??_R1A@?0A@EA@bad_alloc@std@@8 000000018002d7a0     libcpmt:xthrow.obj
 0002:000077c8       ??_R4logic_error@std@@6B@  000000018002d7c8     libcpmt:xthrow.obj
 0002:000077f0       ??_R3logic_error@std@@8    000000018002d7f0     libcpmt:xthrow.obj
 0002:00007808       ??_R2logic_error@std@@8    000000018002d808     libcpmt:xthrow.obj
 0002:00007820       ??_R1A@?0A@EA@logic_error@std@@8 000000018002d820     libcpmt:xthrow.obj
 0002:00007848       ??_R4length_error@std@@6B@ 000000018002d848     libcpmt:xthrow.obj
 0002:00007870       ??_R3length_error@std@@8   000000018002d870     libcpmt:xthrow.obj
 0002:00007888       ??_R2length_error@std@@8   000000018002d888     libcpmt:xthrow.obj
 0002:000078a8       ??_R1A@?0A@EA@length_error@std@@8 000000018002d8a8     libcpmt:xthrow.obj
 0002:000078d0       ??_R4type_info@@6B@        000000018002d8d0     LIBCMT:std_type_info_static.obj
 0002:000078f8       ??_R3type_info@@8          000000018002d8f8     LIBCMT:std_type_info_static.obj
 0002:00007910       ??_R2type_info@@8          000000018002d910     LIBCMT:std_type_info_static.obj
 0002:00007920       ??_R1A@?0A@EA@type_info@@8 000000018002d920     LIBCMT:std_type_info_static.obj
 0002:00007948       ??_R4bad_array_new_length@std@@6B@ 000000018002d948     LIBCMT:throw_bad_alloc.obj
 0002:00007970       ??_R3bad_array_new_length@std@@8 000000018002d970     LIBCMT:throw_bad_alloc.obj
 0002:00007988       ??_R2bad_array_new_length@std@@8 000000018002d988     LIBCMT:throw_bad_alloc.obj
 0002:000079a8       ??_R1A@?0A@EA@bad_array_new_length@std@@8 000000018002d9a8     LIBCMT:throw_bad_alloc.obj
 0002:00007cf0       __rtc_iaa                  000000018002dcf0     LIBCMT:initsect.obj
 0002:00007cf8       __rtc_izz                  000000018002dcf8     LIBCMT:initsect.obj
 0002:00007d00       __rtc_taa                  000000018002dd00     LIBCMT:initsect.obj
 0002:00007d08       __rtc_tzz                  000000018002dd08     LIBCMT:initsect.obj
 0002:0000a4c0       _TI2?AVbad_alloc@std@@     00000001800304c0     libcpmt:xthrow.obj
 0002:0000a4e0       _CTA2?AVbad_alloc@std@@    00000001800304e0     libcpmt:xthrow.obj
 0002:0000a4f8       _CT??_R0?AVbad_alloc@std@@@8??0bad_alloc@std@@QEAA@AEBV01@@Z24 00000001800304f8     libcpmt:xthrow.obj
 0002:0000a520       _CT??_R0?AVexception@std@@@8??0exception@std@@QEAA@AEBV01@@Z24 0000000180030520     libcpmt:xthrow.obj
 0002:0000a548       _CT??_R0?AVlogic_error@std@@@8??0logic_error@std@@QEAA@AEBV01@@Z24 0000000180030548     libcpmt:xthrow.obj
 0002:0000a570       _TI3?AVlength_error@std@@  0000000180030570     libcpmt:xthrow.obj
 0002:0000a590       _CTA3?AVlength_error@std@@ 0000000180030590     libcpmt:xthrow.obj
 0002:0000a5b0       _CT??_R0?AVlength_error@std@@@8??0length_error@std@@QEAA@AEBV01@@Z24 00000001800305b0     libcpmt:xthrow.obj
 0002:0000a5d8       _TI3?AVbad_array_new_length@std@@ 00000001800305d8     LIBCMT:throw_bad_alloc.obj
 0002:0000a5f8       _CTA3?AVbad_array_new_length@std@@ 00000001800305f8     LIBCMT:throw_bad_alloc.obj
 0002:0000a618       _CT??_R0?AVbad_array_new_length@std@@@8??0bad_array_new_length@std@@QEAA@AEBV01@@Z24 0000000180030618     LIBCMT:throw_bad_alloc.obj
 0002:0000a690       __IMPORT_DESCRIPTOR_KERNEL32 0000000180030690     kernel32:KERNEL32.dll
 0002:0000a6a4       __IMPORT_DESCRIPTOR_node   00000001800306a4     iojs:node.dll
 0002:0000a6b8       __NULL_IMPORT_DESCRIPTOR   00000001800306b8     kernel32:KERNEL32.dll
 0003:00000000       __security_cookie_complement 0000000180032000     LIBCMT:gs_cookie.obj
 0003:00000008       __security_cookie          0000000180032008     LIBCMT:gs_cookie.obj
 0003:00000010       __scrt_native_dllmain_reason 0000000180032010     LIBCMT:utility.obj
 0003:00000018       __isa_available            0000000180032018     LIBCMT:cpu_disp.obj
 0003:0000001c       __isa_enabled              000000018003201c     LIBCMT:cpu_disp.obj
 0003:00000020       __memcpy_nt_iters          0000000180032020     LIBCMT:cpu_disp.obj
 0003:00000040       __abort_behavior           0000000180032040     libucrt:abort.obj
 0003:00000050       __acrt_initial_locale_data 0000000180032050     libucrt:nlsdata.obj
 0003:000001a8       __acrt_initial_locale_pointers 00000001800321a8     libucrt:nlsdata.obj
 0003:000001b8       __acrt_wide_c_locale_string 00000001800321b8     libucrt:nlsdata.obj
 0003:000004d0       __acrt_initial_multibyte_data 00000001800324d0     libucrt:mbctype.obj
 0003:00000700       _iob                       0000000180032700     libucrt:_file.obj
 0003:00000808       __globallocalestatus       0000000180032808     libucrt:glstatus.obj
 0003:00000810       __acrt_lconv_c             0000000180032810     libucrt:localeconv.obj
 0003:000008a8       __acrt_lconv_static_decimal 00000001800328a8     libucrt:localeconv.obj
 0003:000008ac       __acrt_lconv_static_W_decimal 00000001800328ac     libucrt:localeconv.obj
 0003:000008b0       _lookuptrailbytes          00000001800328b0     libucrt:read.obj
 0003:000009d0       _fltused                   00000001800329d0     LIBCMT:fltused.obj
 0003:00000a20       ??_R0?AVbad_alloc@std@@@8  0000000180032a20     libcpmt:xthrow.obj
 0003:00000a48       ??_R0?AVexception@std@@@8  0000000180032a48     libcpmt:xthrow.obj
 0003:00000a70       ??_R0?AVlogic_error@std@@@8 0000000180032a70     libcpmt:xthrow.obj
 0003:00000a98       ??_R0?AVlength_error@std@@@8 0000000180032a98     libcpmt:xthrow.obj
 0003:00000ac0       ??_R0?AVtype_info@@@8      0000000180032ac0     LIBCMT:std_type_info_static.obj
 0003:00000ae0       ??_R0?AVbad_array_new_length@std@@@8 0000000180032ae0     LIBCMT:throw_bad_alloc.obj
 0003:00001090       ?__type_info_root_node@@3U__type_info_node@@A 0000000180033090     LIBCMT:tncleanup.obj
 0003:000010a0       ?_OptionsStorage@?1??__local_stdio_printf_options@@9@4_KA 00000001800330a0     LIBCMT:default_local_stdio_options.obj
 0003:000010a8       ?_OptionsStorage@?1??__local_stdio_scanf_options@@9@4_KA 00000001800330a8     LIBCMT:default_local_stdio_options.obj
 0003:000010b0       __scrt_current_native_startup_state 00000001800330b0     LIBCMT:utility.obj
 0003:000010b8       __scrt_native_startup_lock 00000001800330b8     LIBCMT:utility.obj
 0003:000010f8       __scrt_debugger_hook_flag  00000001800330f8     LIBCMT:utility_desktop.obj
 0003:000010fc       __favor                    00000001800330fc     LIBCMT:cpu_disp.obj
 0003:00001100       ?__WinRTOutOfMemoryExceptionCallback@@3P6APEAXXZEA 0000000180033100     libvcruntime:ehhelpers.obj
 0003:00001108       ?pArgList@UnDecorator@@0PEAVReplicator@@EA 0000000180033108     libvcruntime:undname.obj
 0003:00001110       ?pZNameList@UnDecorator@@0PEAVReplicator@@EA 0000000180033110     libvcruntime:undname.obj
 0003:00001118       ?pTemplateArgList@UnDecorator@@0PEAVReplicator@@EA 0000000180033118     libvcruntime:undname.obj
 0003:00001120       ?gName@UnDecorator@@0PEBDEB 0000000180033120     libvcruntime:undname.obj
 0003:00001128       ?name@UnDecorator@@0PEBDEB 0000000180033128     libvcruntime:undname.obj
 0003:00001130       ?disableFlags@UnDecorator@@0KA 0000000180033130     libvcruntime:undname.obj
 0003:00001134       ?fExplicitTemplateParams@UnDecorator@@0_NA 0000000180033134     libvcruntime:undname.obj
 0003:00001135       ?fGetTemplateArgumentList@UnDecorator@@0_NA 0000000180033135     libvcruntime:undname.obj
 0003:00001138       ?m_pGetParameter@UnDecorator@@0P6APEADJ@ZEA 0000000180033138     libvcruntime:undname.obj
 0003:00001140       ?m_CHPENameOffset@UnDecorator@@0KA 0000000180033140     libvcruntime:undname.obj
 0003:00001144       ?m_recursionLevel@UnDecorator@@0KA 0000000180033144     libvcruntime:undname.obj
 0003:00001270       __pPurecall                0000000180033270     libvcruntime:purevirt_data.obj
 0003:00001298       ?c_exit_complete@?1???R<lambda_6e4b09c48022b2350581041d5f6b0c4c>@@QEBA@XZ@4_NA 0000000180033298     libucrt:exit.obj
 0003:000013a8       _environ_table             00000001800333a8     libucrt:environment_initialization.obj
 0003:000013b0       _wenviron_table            00000001800333b0     libucrt:environment_initialization.obj
 0003:000013b8       __dcrt_initial_wide_environment 00000001800333b8     libucrt:environment_initialization.obj
 0003:000013c0       __dcrt_initial_narrow_environment 00000001800333c0     libucrt:environment_initialization.obj
 0003:000013c8       __acrt_atexit_table        00000001800333c8     libucrt:onexit.obj
 0003:000013e0       __acrt_at_quick_exit_table 00000001800333e0     libucrt:onexit.obj
 0003:000013f8       __acrt_locale_changed_data 00000001800333f8     libucrt:wsetlocale.obj
 0003:00001400       __acrt_current_locale_data 0000000180033400     libucrt:nlsdata.obj
 0003:00001648       _mbctype                   0000000180033648     libucrt:mbctype.obj
 0003:00001650       _mbcasemap                 0000000180033650     libucrt:mbctype.obj
 0003:00001658       __acrt_current_multibyte_data 0000000180033658     libucrt:mbctype.obj
 0003:00001668       _pgmptr                    0000000180033668     libucrt:argv_data.obj
 0003:00001670       __argc                     0000000180033670     libucrt:argv_data.obj
 0003:00001678       __argv                     0000000180033678     libucrt:argv_data.obj
 0003:00001680       __wargv                    0000000180033680     libucrt:argv_data.obj
 0003:00001688       _acmdln                    0000000180033688     libucrt:argv_data.obj
 0003:00001690       _wcmdln                    0000000180033690     libucrt:argv_data.obj
 0003:00001850       __acrt_heap                0000000180033850     libucrt:heap_handle.obj
 0003:00001860       __pioinfo                  0000000180033860     libucrt:ioinit.obj
 0003:00001c60       _nhandle                   0000000180033c60     libucrt:ioinit.obj
 0003:00001c90       _nstream                   0000000180033c90     libucrt:_file.obj
 0003:00001c98       __piob                     0000000180033c98     libucrt:_file.obj
 0003:00001ca0       __acrt_stdout_buffer       0000000180033ca0     libucrt:_sftbuf.obj
 0003:00001ca8       __acrt_stderr_buffer       0000000180033ca8     libucrt:_sftbuf.obj
 0003:00001cb8       __acrt_lconv_static_null   0000000180033cb8     libucrt:localeconv.obj
 0003:00001cbc       __acrt_lconv_static_W_null 0000000180033cbc     libucrt:localeconv.obj
 0003:00001cd0       __fma3_is_available        0000000180033cd0     libucrt:fma3_available.obj
 0003:00001cd4       __use_fma3_lib             0000000180033cd4     libucrt:fma3_available.obj
 0003:00001cd8       ?inputscale@@3NA           0000000180033cd8     minkowski.obj
 0003:00001ce0       __scrt_ucrt_dll_is_in_use  0000000180033ce0     <common>
 0003:00001ce8       __dyn_tls_init_callback    0000000180033ce8     <common>

 entry point at        0001:00019f88

 Static symbols

 0000:fffc7000       .debug$S                   0000000180000000     kernel32:KERNEL32.dll
 0000:fffc7000       .debug$S                   0000000180000000     iojs:node.dll
 0000:fffc7000       .debug$S                   0000000180000000     iojs:node.dll
 0000:fffc7000       .debug$S                   0000000180000000     iojs:node.dll
 0000:fffc7000       .debug$S                   0000000180000000     iojs:node.dll
 0000:fffc7000       .debug$S                   0000000180000000     iojs:node.dll
 0000:fffc7000       .debug$S                   0000000180000000     iojs:node.dll
 0000:fffc7000       .debug$S                   0000000180000000     iojs:node.dll
 0000:fffc7000       .debug$S                   0000000180000000     iojs:node.dll
 0000:fffc7000       .debug$S                   0000000180000000     iojs:node.dll
 0000:fffc7000       .debug$S                   0000000180000000     iojs:node.dll
 0000:fffc7000       .debug$S                   0000000180000000     iojs:node.dll
 0000:fffc7000       .debug$S                   0000000180000000     iojs:node.dll
 0000:fffc7000       .debug$S                   0000000180000000     iojs:node.dll
 0000:fffc7000       .debug$S                   0000000180000000     iojs:node.dll
 0000:fffc7000       .debug$S                   0000000180000000     iojs:node.dll
 0000:fffc7000       .debug$S                   0000000180000000     iojs:node.dll
 0000:fffc7000       .debug$S                   0000000180000000     iojs:node.dll
 0000:fffc7000       .debug$S                   0000000180000000     iojs:node.dll
 0000:fffc7000       .debug$S                   0000000180000000     iojs:node.dll
 0000:fffc7000       .debug$S                   0000000180000000     iojs:node.dll
 0000:fffc7000       .debug$S                   0000000180000000     iojs:node.dll
 0000:fffc7000       .debug$S                   0000000180000000     iojs:node.dll
 0000:fffc7000       .debug$S                   0000000180000000     iojs:node.dll
 0000:fffc7000       .debug$S                   0000000180000000     iojs:node.dll
 0000:fffc7000       .debug$S                   0000000180000000     iojs:node.dll
 0000:fffc7000       .debug$S                   0000000180000000     iojs:node.dll
 0000:fffc7000       .debug$S                   0000000180000000     iojs:node.dll
 0000:fffc7000       .debug$S                   0000000180000000     iojs:node.dll
 0000:fffc7000       .debug$S                   0000000180000000     iojs:node.dll
 0000:fffc7000       .debug$S                   0000000180000000     iojs:node.dll
 0000:fffc7000       .debug$S                   0000000180000000     iojs:node.dll
 0000:fffc7000       .debug$S                   0000000180000000     iojs:node.dll
 0000:fffc7000       .debug$S                   0000000180000000     iojs:node.dll
 0000:fffc7000       .debug$S                   0000000180000000     iojs:node.dll
 0000:fffc7000       .debug$S                   0000000180000000     iojs:node.dll
 0000:fffc7000       .debug$S                   0000000180000000     iojs:node.dll
 0000:fffc7000       .debug$S                   0000000180000000     kernel32:KERNEL32.dll
 0000:fffc7000       .debug$S                   0000000180000000     kernel32:KERNEL32.dll
 0000:fffc7000       .debug$S                   0000000180000000     addon.exp
 0000:fffc7000       .debug$S                   0000000180000000     kernel32:KERNEL32.dll
 0000:fffc7000       .debug$S                   0000000180000000     kernel32:KERNEL32.dll
 0000:fffc7000       .debug$S                   0000000180000000     kernel32:KERNEL32.dll
 0000:fffc7000       .debug$S                   0000000180000000     kernel32:KERNEL32.dll
 0000:fffc7000       .debug$S                   0000000180000000     kernel32:KERNEL32.dll
 0000:fffc7000       .debug$S                   0000000180000000     kernel32:KERNEL32.dll
 0000:fffc7000       .debug$S                   0000000180000000     kernel32:KERNEL32.dll
 0000:fffc7000       .debug$S                   0000000180000000     kernel32:KERNEL32.dll
 0000:fffc7000       .debug$S                   0000000180000000     kernel32:KERNEL32.dll
 0000:fffc7000       .debug$S                   0000000180000000     kernel32:KERNEL32.dll
 0000:fffc7000       .debug$S                   0000000180000000     kernel32:KERNEL32.dll
 0000:fffc7000       .debug$S                   0000000180000000     kernel32:KERNEL32.dll
 0000:fffc7000       .debug$S                   0000000180000000     kernel32:KERNEL32.dll
 0000:fffc7000       .debug$S                   0000000180000000     kernel32:KERNEL32.dll
 0000:fffc7000       .debug$S                   0000000180000000     kernel32:KERNEL32.dll
 0000:fffc7000       .debug$S                   0000000180000000     kernel32:KERNEL32.dll
 0000:fffc7000       .debug$S                   0000000180000000     kernel32:KERNEL32.dll
 0000:fffc7000       .debug$S                   0000000180000000     kernel32:KERNEL32.dll
 0000:fffc7000       .debug$S                   0000000180000000     kernel32:KERNEL32.dll
 0000:fffc7000       .debug$S                   0000000180000000     kernel32:KERNEL32.dll
 0000:fffc7000       .debug$S                   0000000180000000     kernel32:KERNEL32.dll
 0000:fffc7000       .debug$S                   0000000180000000     kernel32:KERNEL32.dll
 0000:fffc7000       .debug$S                   0000000180000000     kernel32:KERNEL32.dll
 0000:fffc7000       .debug$S                   0000000180000000     kernel32:KERNEL32.dll
 0000:fffc7000       .debug$S                   0000000180000000     kernel32:KERNEL32.dll
 0000:fffc7000       .debug$S                   0000000180000000     kernel32:KERNEL32.dll
 0000:fffc7000       .debug$S                   0000000180000000     kernel32:KERNEL32.dll
 0000:fffc7000       .debug$S                   0000000180000000     kernel32:KERNEL32.dll
 0000:fffc7000       .debug$S                   0000000180000000     kernel32:KERNEL32.dll
 0000:fffc7000       .debug$S                   0000000180000000     kernel32:KERNEL32.dll
 0000:fffc7000       .debug$S                   0000000180000000     kernel32:KERNEL32.dll
 0000:fffc7000       .debug$S                   0000000180000000     kernel32:KERNEL32.dll
 0000:fffc7000       .debug$S                   0000000180000000     kernel32:KERNEL32.dll
 0000:fffc7000       .debug$S                   0000000180000000     kernel32:KERNEL32.dll
 0000:fffc7000       .debug$S                   0000000180000000     kernel32:KERNEL32.dll
 0000:fffc7000       .debug$S                   0000000180000000     kernel32:KERNEL32.dll
 0000:fffc7000       .debug$S                   0000000180000000     kernel32:KERNEL32.dll
 0000:fffc7000       .debug$S                   0000000180000000     kernel32:KERNEL32.dll
 0000:fffc7000       .debug$S                   0000000180000000     kernel32:KERNEL32.dll
 0000:fffc7000       .debug$S                   0000000180000000     kernel32:KERNEL32.dll
 0000:fffc7000       .debug$S                   0000000180000000     kernel32:KERNEL32.dll
 0000:fffc7000       .debug$S                   0000000180000000     kernel32:KERNEL32.dll
 0000:fffc7000       .debug$S                   0000000180000000     kernel32:KERNEL32.dll
 0000:fffc7000       .debug$S                   0000000180000000     kernel32:KERNEL32.dll
 0000:fffc7000       .debug$S                   0000000180000000     kernel32:KERNEL32.dll
 0000:fffc7000       .debug$S                   0000000180000000     kernel32:KERNEL32.dll
 0000:fffc7000       .debug$S                   0000000180000000     kernel32:KERNEL32.dll
 0000:fffc7000       .debug$S                   0000000180000000     kernel32:KERNEL32.dll
 0000:fffc7000       .debug$S                   0000000180000000     kernel32:KERNEL32.dll
 0000:fffc7000       .debug$S                   0000000180000000     kernel32:KERNEL32.dll
 0000:fffc7000       .debug$S                   0000000180000000     kernel32:KERNEL32.dll
 0000:fffc7000       .debug$S                   0000000180000000     kernel32:KERNEL32.dll
 0000:fffc7000       .debug$S                   0000000180000000     kernel32:KERNEL32.dll
 0000:fffc7000       .debug$S                   0000000180000000     kernel32:KERNEL32.dll
 0000:fffc7000       .debug$S                   0000000180000000     kernel32:KERNEL32.dll
 0000:fffc7000       .debug$S                   0000000180000000     kernel32:KERNEL32.dll
 0000:fffc7000       .debug$S                   0000000180000000     kernel32:KERNEL32.dll
 0000:fffc7000       .debug$S                   0000000180000000     kernel32:KERNEL32.dll
 0000:fffc7000       .debug$S                   0000000180000000     kernel32:KERNEL32.dll
 0000:fffc7000       .debug$S                   0000000180000000     kernel32:KERNEL32.dll
 0000:fffc7000       .debug$S                   0000000180000000     kernel32:KERNEL32.dll
 0000:fffc7000       .debug$S                   0000000180000000     kernel32:KERNEL32.dll
 0000:fffc7000       .debug$S                   0000000180000000     kernel32:KERNEL32.dll
 0000:fffc7000       .debug$S                   0000000180000000     kernel32:KERNEL32.dll
 0000:fffc7000       .debug$S                   0000000180000000     kernel32:KERNEL32.dll
 0000:fffc7000       .debug$S                   0000000180000000     kernel32:KERNEL32.dll
 0000:fffc7000       .debug$S                   0000000180000000     kernel32:KERNEL32.dll
 0000:fffc7000       .debug$S                   0000000180000000     kernel32:KERNEL32.dll
 0000:fffc7000       .debug$S                   0000000180000000     kernel32:KERNEL32.dll
 0000:fffc7000       .debug$S                   0000000180000000     kernel32:KERNEL32.dll
 0000:fffc7000       .debug$S                   0000000180000000     kernel32:KERNEL32.dll
 0000:fffc7000       .debug$S                   0000000180000000     kernel32:KERNEL32.dll
 0000:fffc7000       .debug$S                   0000000180000000     kernel32:KERNEL32.dll
 0000:fffc7000       .debug$S                   0000000180000000     kernel32:KERNEL32.dll
 0000:fffc7000       .debug$S                   0000000180000000     kernel32:KERNEL32.dll
 0000:fffc7000       .debug$S                   0000000180000000     kernel32:KERNEL32.dll
 0000:fffc7000       .debug$S                   0000000180000000     kernel32:KERNEL32.dll
 0000:fffc7000       .debug$S                   0000000180000000     kernel32:KERNEL32.dll
 0000:fffc7000       .debug$S                   0000000180000000     kernel32:KERNEL32.dll
 0000:fffc7000       .debug$S                   0000000180000000     kernel32:KERNEL32.dll
 0000:fffc7000       .debug$S                   0000000180000000     kernel32:KERNEL32.dll
 0000:fffc7000       .debug$S                   0000000180000000     kernel32:KERNEL32.dll
 0001:00000000       ?FunctionCallbackWrapper@imp@Nan@@YAXAEBV?$FunctionCallbackInfo@VValue@v8@@@v8@@@Z 0000000180001000 f   addon.obj
 0001:000002d0       _register_addon            00000001800012d0 f   addon.obj
 0001:00005630       ??$point_sequence_area@V?$_Vector_const_iterator@V?$_Vector_val@U?$_Simple_types@V?$point_data@H@polygon@boost@@@std@@@std@@@std@@O@polygon@boost@@YAOV?$_Vector_const_iterator@V?$_Vector_val@U?$_Simple_types@V?$point_data@H@polygon@boost@@@std@@@std@@@std@@0@Z 0000000180006630 f   minkowski.obj
 0001:00019be0       $$000000                   000000018001abe0     LIBCMT:amdsecgs.obj
 0001:00019c58       ?dllmain_crt_dispatch@@YAHQEAUHINSTANCE__@@KQEAX@Z 000000018001ac58 f   LIBCMT:dll_dllmain.obj
 0001:00019ca8       ?dllmain_crt_process_attach@@YAHQEAUHINSTANCE__@@QEAX@Z 000000018001aca8 f   LIBCMT:dll_dllmain.obj
 0001:00019dc4       ?dllmain_crt_process_detach@@YAH_N@Z 000000018001adc4 f   LIBCMT:dll_dllmain.obj
 0001:00019e54       ?dllmain_dispatch@@YAHQEAUHINSTANCE__@@KQEAX@Z 000000018001ae54 f   LIBCMT:dll_dllmain.obj
 0001:0001a1ac       capture_current_context    000000018001b1ac f   LIBCMT:gs_report.obj
 0001:0001a21c       capture_previous_context   000000018001b21c f   LIBCMT:gs_report.obj
 0001:0001af50       $$000000                   000000018001bf50     libvcruntime:memset.obj
 0001:0001b04c       MsetTab                    000000018001c04c     libvcruntime:memset.obj
 0001:0001b110       $$000000                   000000018001c110     libvcruntime:notify.obj
 0001:0001b438       ?try_get_function@@YAPEAXW4function_id@?A0x14c33c87@@QEBDQEBW4module_id@2@2@Z 000000018001c438 f   libvcruntime:winapi_downlevel.obj
 0001:0001b820       $$000000                   000000018001c820     libvcruntime:memcpy.obj
 0001:0001b8d7       MoveSmall                  000000018001c8d7     libvcruntime:memcpy.obj
 0001:0001bc80       $$000000                   000000018001cc80     libvcruntime:handlers.obj
 0001:0001c334       ??$?RV<lambda_d80eeec6fff315bfe5c115232f3240e3>@@AEAV<lambda_6e4b09c48022b2350581041d5f6b0c4c>@@V<lambda_2358e3775559c9db80273638284d5e45>@@@?$__crt_seh_guarded_call@X@@QEAAX$$QEAV<lambda_d80eeec6fff315bfe5c115232f3240e3>@@AEAV<lambda_6e4b09c48022b2350581041d5f6b0c4c>@@$$QEAV<lambda_2358e3775559c9db80273638284d5e45>@@@Z 000000018001d334 f   libucrt:exit.obj
 0001:0001c36c       ??R<lambda_6e4b09c48022b2350581041d5f6b0c4c>@@QEBA@XZ 000000018001d36c f   libucrt:exit.obj
 0001:0001c430       ?atexit_exception_filter@@YAHK@Z 000000018001d430 f   libucrt:exit.obj
 0001:0001c43c       ?common_exit@@YAXHW4_crt_exit_cleanup_mode@@W4_crt_exit_return_mode@@@Z 000000018001d43c f   libucrt:exit.obj
 0001:0001c4f8       ?exit_or_terminate_process@@YAXI@Z 000000018001d4f8 f   libucrt:exit.obj
 0001:0001c544       ?try_cor_exit_process@@YAXI@Z 000000018001d544 f   libucrt:exit.obj
 0001:0001c5cc       ??$parse_command_line@D@@YAXPEADPEAPEAD0PEA_K2@Z 000000018001d5cc f   libucrt:argv_parsing.obj
 0001:0001c978       ??$common_initialize_environment_nolock@D@@YAHXZ 000000018001d978 f   libucrt:environment_initialization.obj
 0001:0001c9e4       ??$create_environment@D@@YAQEAPEADQEAD@Z 000000018001d9e4 f   libucrt:environment_initialization.obj
 0001:0001caec       ??$free_environment@D@@YAXQEAPEAD@Z 000000018001daec f   libucrt:environment_initialization.obj
 0001:0001caec       ??$free_environment@_W@@YAXQEAPEA_W@Z 000000018001daec f   libucrt:environment_initialization.obj
 0001:0001cb30       ??$uninitialize_environment_internal@D@@YAXAEAPEAPEAD@Z 000000018001db30 f   libucrt:environment_initialization.obj
 0001:0001cb4c       ??$uninitialize_environment_internal@_W@@YAXAEAPEAPEA_W@Z 000000018001db4c f   libucrt:environment_initialization.obj
 0001:0001cba8       ??$?RV<lambda_7777bce6b2f8c936911f934f8298dc43>@@AEAV<lambda_f03950bc5685219e0bcd2087efbe011e>@@V<lambda_3883c3dff614d5e0c5f61bb1ac94921c>@@@?$__crt_seh_guarded_call@H@@QEAAH$$QEAV<lambda_7777bce6b2f8c936911f934f8298dc43>@@AEAV<lambda_f03950bc5685219e0bcd2087efbe011e>@@$$QEAV<lambda_3883c3dff614d5e0c5f61bb1ac94921c>@@@Z 000000018001dba8 f   libucrt:onexit.obj
 0001:0001cbe4       ??R<lambda_f03950bc5685219e0bcd2087efbe011e>@@QEBAHXZ 000000018001dbe4 f   libucrt:onexit.obj
 0001:0001cd60       initialize_global_variables 000000018001dd60 f   libucrt:initialization.obj
 0001:0001cd74       initialize_c               000000018001dd74 f   libucrt:initialization.obj
 0001:0001cd98       uninitialize_c             000000018001dd98 f   libucrt:initialization.obj
 0001:0001cd98       initialize_environment     000000018001dd98 f   libucrt:initialization.obj
 0001:0001cd98       report_memory_leaks        000000018001dd98 f   libucrt:initialization.obj
 0001:0001cd98       initialize_global_state_isolation 000000018001dd98 f   libucrt:initialization.obj
 0001:0001cd98       uninitialize_global_state_isolation 000000018001dd98 f   libucrt:initialization.obj
 0001:0001cd9c       uninitialize_environment   000000018001dd9c f   libucrt:initialization.obj
 0001:0001cdac       initialize_pointers        000000018001ddac f   libucrt:initialization.obj
 0001:0001cdec       uninitialize_vcruntime     000000018001ddec f   libucrt:initialization.obj
 0001:0001cdf4       uninitialize_allocated_memory 000000018001ddf4 f   libucrt:initialization.obj
 0001:0001ce34       uninitialize_allocated_io_buffers 000000018001de34 f   libucrt:initialization.obj
 0001:0001cf90       $$000000                   000000018001df90     libucrt:strncmp.obj
 0001:0001d0ac       ??$?RV<lambda_0ae27a3a962d80f24befdcbee591983d>@@AEAV<lambda_8d0ee55de4b1038c4002e0adecdf1839>@@V<lambda_dc504788e8f1664fe9b84e20bfb512f2>@@@?$__crt_seh_guarded_call@X@@QEAAX$$QEAV<lambda_0ae27a3a962d80f24befdcbee591983d>@@AEAV<lambda_8d0ee55de4b1038c4002e0adecdf1839>@@$$QEAV<lambda_dc504788e8f1664fe9b84e20bfb512f2>@@@Z 000000018001e0ac f   libucrt:per_thread_data.obj
 0001:0001d0ec       ??$?RV<lambda_2d41944a1d46af3157314b8a01080d33>@@AEAV<lambda_8f455de75cd7d7f24b4096f044d8b9e6>@@V<lambda_aa500f224e6afead328df44964fe2772>@@@?$__crt_seh_guarded_call@X@@QEAAX$$QEAV<lambda_2d41944a1d46af3157314b8a01080d33>@@AEAV<lambda_8f455de75cd7d7f24b4096f044d8b9e6>@@$$QEAV<lambda_aa500f224e6afead328df44964fe2772>@@@Z 000000018001e0ec f   libucrt:per_thread_data.obj
 0001:0001d12c       ??$?RV<lambda_aa87e3671a710a21b5dc78c0bdf72e11>@@AEAV<lambda_92619d2358a28f41a33ba319515a20b9>@@V<lambda_6992ecaafeb10aed2b74cb1fae11a551>@@@?$__crt_seh_guarded_call@X@@QEAAX$$QEAV<lambda_aa87e3671a710a21b5dc78c0bdf72e11>@@AEAV<lambda_92619d2358a28f41a33ba319515a20b9>@@$$QEAV<lambda_6992ecaafeb10aed2b74cb1fae11a551>@@@Z 000000018001e12c f   libucrt:per_thread_data.obj
 0001:0001d174       ??$?RV<lambda_f2e299630e499de9f9a165e60fcd3db5>@@AEAV<lambda_2ae9d31cdba2644fcbeaf08da7c24588>@@V<lambda_40d01ff24d0e7b3814fdbdcee8eab3c7>@@@?$__crt_seh_guarded_call@X@@QEAAX$$QEAV<lambda_f2e299630e499de9f9a165e60fcd3db5>@@AEAV<lambda_2ae9d31cdba2644fcbeaf08da7c24588>@@$$QEAV<lambda_40d01ff24d0e7b3814fdbdcee8eab3c7>@@@Z 000000018001e174 f   libucrt:per_thread_data.obj
 0001:0001d1d4       ?construct_ptd_array@@YAXQEAU__acrt_ptd@@@Z 000000018001e1d4 f   libucrt:per_thread_data.obj
 0001:0001d2a4       ?destroy_fls@@YAXPEAX@Z    000000018001e2a4 f   libucrt:per_thread_data.obj
 0001:0001d2c4       ?destroy_ptd_array@@YAXQEAU__acrt_ptd@@@Z 000000018001e2c4 f   libucrt:per_thread_data.obj
 0001:0001d3bc       ?replace_current_thread_locale_nolock@@YAXQEAU__acrt_ptd@@QEAU__crt_locale_data@@@Z 000000018001e3bc f   libucrt:per_thread_data.obj
 0001:0001d850       ??$?RV<lambda_410d79af7f07d98d83a3f525b3859a53>@@AEAV<lambda_3e16ef9562a7dcce91392c22ab16ea36>@@V<lambda_38119f0e861e05405d8a144b9b982f0a>@@@?$__crt_seh_guarded_call@X@@QEAAX$$QEAV<lambda_410d79af7f07d98d83a3f525b3859a53>@@AEAV<lambda_3e16ef9562a7dcce91392c22ab16ea36>@@$$QEAV<lambda_38119f0e861e05405d8a144b9b982f0a>@@@Z 000000018001e850 f   libucrt:wsetlocale.obj
 0001:0001db08       ?<lambda_invoker_cdecl>@<lambda_c2303d2482d7c3675ea2e24c4cfb6115>@@CAHPEBX0@Z 000000018001eb08 f   libucrt:argv_wildcards.obj
 0001:0001de20       ??$common_expand_argv_wildcards@D@@YAHQEAPEADQEAPEAPEAD@Z 000000018001ee20 f   libucrt:argv_wildcards.obj
 0001:0001e02c       ??$copy_and_add_argument_to_buffer@D@@YAHQEBD0_KAEAV?$argument_list@D@?A0x5f5c8891@@@Z 000000018001f02c f   libucrt:argv_wildcards.obj
 0001:0001e1b4       ??$expand_argument_wildcards@D@@YAHQEAD0AEAV?$argument_list@D@?A0x5f5c8891@@@Z 000000018001f1b4 f   libucrt:argv_wildcards.obj
 0001:0001e700       ??$?RV<lambda_efdfa57d1f175319df784efa44bb7b81>@@AEAV<lambda_5f0a4c1567f8adc6734073e5d1e1b35c>@@V<lambda_2e8a7d3640ea6ccb4c2413664c2db6fd>@@@?$__crt_seh_guarded_call@X@@QEAAX$$QEAV<lambda_efdfa57d1f175319df784efa44bb7b81>@@AEAV<lambda_5f0a4c1567f8adc6734073e5d1e1b35c>@@$$QEAV<lambda_2e8a7d3640ea6ccb4c2413664c2db6fd>@@@Z 000000018001f700 f   libucrt:mbctype.obj
 0001:0001e8bc       ?getSystemCP@@YAHH@Z       000000018001f8bc f   libucrt:mbctype.obj
 0001:0001e93c       ?setSBCS@@YAXPEAU__crt_multibyte_data@@@Z 000000018001f93c f   libucrt:mbctype.obj
 0001:0001e9cc       ?setSBUpLow@@YAXPEAU__crt_multibyte_data@@@Z 000000018001f9cc f   libucrt:mbctype.obj
 0001:0001ebb0       ?setmbcp_internal@@YAHH_NQEAU__acrt_ptd@@QEAPEAU__crt_multibyte_data@@@Z 000000018001fbb0 f   libucrt:mbctype.obj
 0001:0001ed74       ?update_thread_multibyte_data_internal@@YAPEAU__crt_multibyte_data@@QEAU__acrt_ptd@@QEAPEAU1@@Z 000000018001fd74 f   libucrt:mbctype.obj
 0001:0001f164       ?x_ismbbtype_l@@YAHPEAU__crt_locale_pointers@@IHH@Z 0000000180020164 f   libucrt:ismbbyte.obj
 0001:0001f4a8       ?try_get_function@@YAPEAXW4function_id@?A0x391cf84c@@QEBDQEBW4module_id@2@2@Z 00000001800204a8 f   libucrt:winapi_thunks.obj
 0001:0001fa68       ?initialize_inherited_file_handles_nolock@@YAXXZ 0000000180020a68 f   libucrt:ioinit.obj
 0001:0001fb58       ?initialize_stdio_handles_nolock@@YAXXZ 0000000180020b58 f   libucrt:ioinit.obj
 0001:0001fd9c       ??$?RV<lambda_450d765d439847d4c735a33c368b5fc0>@@AEAV<lambda_44731a7d0e6d81c3e6aa82d741081786>@@V<lambda_601a2a7da3b7a96e9554ac7215c4b07c>@@@?$__crt_seh_guarded_call@P6AXH@Z@@QEAAP6AXH@Z$$QEAV<lambda_450d765d439847d4c735a33c368b5fc0>@@AEAV<lambda_44731a7d0e6d81c3e6aa82d741081786>@@$$QEAV<lambda_601a2a7da3b7a96e9554ac7215c4b07c>@@@Z 0000000180020d9c f   libucrt:signal.obj
 0001:000200f8       ??$?RV<lambda_842d9ff0dc9ef11c61343bbaebe7f885>@@AEAV<lambda_c5860995281e5c4ce005b3de8f5874ee>@@V<lambda_d90129c13df834fdcbf8d2b88dafcf2d>@@@?$__crt_seh_guarded_call@X@@QEAAX$$QEAV<lambda_842d9ff0dc9ef11c61343bbaebe7f885>@@AEAV<lambda_c5860995281e5c4ce005b3de8f5874ee>@@$$QEAV<lambda_d90129c13df834fdcbf8d2b88dafcf2d>@@@Z 00000001800210f8 f   libucrt:fflush.obj
 0001:00020194       ??$?RV<lambda_886d6c58226a84441f68b9f2b8217b83>@@AEAV<lambda_ab61a845afdef5b7c387490eaf3616ee>@@V<lambda_f7f22ab5edc0698d5f6905b0d3f44752>@@@?$__crt_seh_guarded_call@X@@QEAAX$$QEAV<lambda_886d6c58226a84441f68b9f2b8217b83>@@AEAV<lambda_ab61a845afdef5b7c387490eaf3616ee>@@$$QEAV<lambda_f7f22ab5edc0698d5f6905b0d3f44752>@@@Z 0000000180021194 f   libucrt:fflush.obj
 0001:00020274       ?common_flush_all@@YAH_N@Z 0000000180021274 f   libucrt:fflush.obj
 0001:00020b6c       ?__acrt_LCMapStringA_stat@@YAHPEAU__crt_locale_pointers@@PEB_WKPEBDHPEADHHH@Z 0000000180021b6c f   libucrt:lcmapstringa.obj
 0001:00021094       ?free_crt_array_internal@@YAXQEAPEBX_K@Z 0000000180022094 f   libucrt:inittime.obj
 0001:00021824       fallbackMethod             0000000180022824 f   libucrt:strpbrk.obj
 0001:00021bf4       $LN78                      0000000180022bf4     libucrt:strpbrk.obj
 0001:00021c30       $LN77                      0000000180022c30     libucrt:strpbrk.obj
 0001:00021c70       $LN76                      0000000180022c70     libucrt:strpbrk.obj
 0001:00021d4c       ?initialize_multibyte@@YAHXZ 0000000180022d4c f   libucrt:multibyte_initializer.obj
 0001:00021e1c       ?GetTableIndexFromLocaleName@@YAHPEB_W@Z 0000000180022e1c f   libucrt:lcidtoname_downlevel.obj
 0001:0002225c       ??$?RV<lambda_a37b2b86f63e897a80ea819b0eb08c01>@@AEAV<lambda_38ce7e780aa69e748d6df282ebc68efe>@@V<lambda_99fb1378e971ab6e7edea83e3a7a83a2>@@@?$__crt_seh_guarded_call@H@@QEAAH$$QEAV<lambda_a37b2b86f63e897a80ea819b0eb08c01>@@AEAV<lambda_38ce7e780aa69e748d6df282ebc68efe>@@$$QEAV<lambda_99fb1378e971ab6e7edea83e3a7a83a2>@@@Z 000000018002325c f   libucrt:commit.obj
 0001:0002237c       ?write_double_translated_ansi_nolock@@YA?AUwrite_result@?A0x17268360@@HQEBDI@Z 000000018002337c f   libucrt:write.obj
 0001:00022858       ?write_text_ansi_nolock@@YA?AUwrite_result@?A0x17268360@@HQEBDI@Z 0000000180023858 f   libucrt:write.obj
 0001:0002295c       ?write_text_utf16le_nolock@@YA?AUwrite_result@?A0x17268360@@HQEBDI@Z 000000018002395c f   libucrt:write.obj
 0001:00022a78       ?write_text_utf8_nolock@@YA?AUwrite_result@?A0x17268360@@HQEBDI@Z 0000000180023a78 f   libucrt:write.obj
 0001:000232d8       ??$common_lseek_nolock@_J@@YA_JH_JH@Z 00000001800242d8 f   libucrt:lseek.obj
 0001:00023680       $$000000                   0000000180024680     libucrt:log10.obj
 0001:00023d5c       ??$?RV<lambda_751a882b2c74d4b022dec766aa51a29a>@@AEAV<lambda_628dfdc04ba53c8bfc02c9951375f3f5>@@V<lambda_f6c7be5f7998530c34de24c7437d6b54>@@@?$__crt_seh_guarded_call@H@@QEAAH$$QEAV<lambda_751a882b2c74d4b022dec766aa51a29a>@@AEAV<lambda_628dfdc04ba53c8bfc02c9951375f3f5>@@$$QEAV<lambda_f6c7be5f7998530c34de24c7437d6b54>@@@Z 0000000180024d5c f   libucrt:close.obj
 0001:00023f50       _call_matherr              0000000180024f50 f   libucrt:libm_error.obj
 0001:00023fb8       _exception_enabled         0000000180024fb8 f   libucrt:libm_error.obj
 0001:00024230       _log_special_common        0000000180025230 f   libucrt:log_special.obj
 0001:000242d0       $$000000                   00000001800252d0     libucrt:fpsr.obj
 0001:000248c0       $$000000                   00000001800258c0     LIBCMT:chkstk.obj
 0001:00024930       $$000000                   0000000180025930     libvcruntime:memcmp.obj
 0001:00024a10       $$000000                   0000000180025a10     LIBCMT:guard_dispatch.obj
 0001:00024a30       ?fin$0@?0??dllmain_crt_process_attach@@YAHQEAUHINSTANCE__@@QEAX@Z@4HA 0000000180025a30 f   LIBCMT:dll_dllmain.obj
 0001:00024a47       ?fin$0@?0??dllmain_crt_process_detach@@YAH_N@Z@4HA 0000000180025a47 f   LIBCMT:dll_dllmain.obj
 0001:00024a63       ?filt$0@?0??dllmain_dispatch@@YAHQEAUHINSTANCE__@@KQEAX@Z@4HA 0000000180025a63 f   LIBCMT:dll_dllmain.obj
 0001:00024a99       __scrt_is_nonwritable_in_current_image$filt$0 0000000180025a99 f   LIBCMT:utility.obj
 0001:00024ab1       __DestructExceptionObject$filt$0 0000000180025ab1 f   libvcruntime:ehhelpers.obj
 0001:00024ac9       _query_new_handler$fin$0   0000000180025ac9 f   libucrt:new_handler.obj
 0001:00024adf       ?fin$0@?0???$?RV<lambda_d80eeec6fff315bfe5c115232f3240e3>@@AEAV<lambda_6e4b09c48022b2350581041d5f6b0c4c>@@V<lambda_2358e3775559c9db80273638284d5e45>@@@?$__crt_seh_guarded_call@X@@QEAAX$$QEAV<lambda_d80eeec6fff315bfe5c115232f3240e3>@@AEAV<lambda_6e4b09c48022b2350581041d5f6b0c4c>@@$$QEAV<lambda_2358e3775559c9db80273638284d5e45>@@@Z@4HA 0000000180025adf f   libucrt:exit.obj
 0001:00024adf       ?fin$0@?0???$?RV<lambda_2d41944a1d46af3157314b8a01080d33>@@AEAV<lambda_8f455de75cd7d7f24b4096f044d8b9e6>@@V<lambda_aa500f224e6afead328df44964fe2772>@@@?$__crt_seh_guarded_call@X@@QEAAX$$QEAV<lambda_2d41944a1d46af3157314b8a01080d33>@@AEAV<lambda_8f455de75cd7d7f24b4096f044d8b9e6>@@$$QEAV<lambda_aa500f224e6afead328df44964fe2772>@@@Z@4HA 0000000180025adf f   libucrt:per_thread_data.obj
 0001:00024adf       ?fin$0@?0???$?RV<lambda_aa87e3671a710a21b5dc78c0bdf72e11>@@AEAV<lambda_92619d2358a28f41a33ba319515a20b9>@@V<lambda_6992ecaafeb10aed2b74cb1fae11a551>@@@?$__crt_seh_guarded_call@X@@QEAAX$$QEAV<lambda_aa87e3671a710a21b5dc78c0bdf72e11>@@AEAV<lambda_92619d2358a28f41a33ba319515a20b9>@@$$QEAV<lambda_6992ecaafeb10aed2b74cb1fae11a551>@@@Z@4HA 0000000180025adf f   libucrt:per_thread_data.obj
 0001:00024adf       ?fin$0@?0???$?RV<lambda_7777bce6b2f8c936911f934f8298dc43>@@AEAV<lambda_f03950bc5685219e0bcd2087efbe011e>@@V<lambda_3883c3dff614d5e0c5f61bb1ac94921c>@@@?$__crt_seh_guarded_call@H@@QEAAH$$QEAV<lambda_7777bce6b2f8c936911f934f8298dc43>@@AEAV<lambda_f03950bc5685219e0bcd2087efbe011e>@@$$QEAV<lambda_3883c3dff614d5e0c5f61bb1ac94921c>@@@Z@4HA 0000000180025adf f   libucrt:onexit.obj
 0001:00024adf       ?fin$0@?0???$?RV<lambda_efdfa57d1f175319df784efa44bb7b81>@@AEAV<lambda_5f0a4c1567f8adc6734073e5d1e1b35c>@@V<lambda_2e8a7d3640ea6ccb4c2413664c2db6fd>@@@?$__crt_seh_guarded_call@X@@QEAAX$$QEAV<lambda_efdfa57d1f175319df784efa44bb7b81>@@AEAV<lambda_5f0a4c1567f8adc6734073e5d1e1b35c>@@$$QEAV<lambda_2e8a7d3640ea6ccb4c2413664c2db6fd>@@@Z@4HA 0000000180025adf f   libucrt:mbctype.obj
 0001:00024adf       ?fin$0@?0???$?RV<lambda_f2e299630e499de9f9a165e60fcd3db5>@@AEAV<lambda_2ae9d31cdba2644fcbeaf08da7c24588>@@V<lambda_40d01ff24d0e7b3814fdbdcee8eab3c7>@@@?$__crt_seh_guarded_call@X@@QEAAX$$QEAV<lambda_f2e299630e499de9f9a165e60fcd3db5>@@AEAV<lambda_2ae9d31cdba2644fcbeaf08da7c24588>@@$$QEAV<lambda_40d01ff24d0e7b3814fdbdcee8eab3c7>@@@Z@4HA 0000000180025adf f   libucrt:per_thread_data.obj
 0001:00024adf       ?fin$0@?0???$?RV<lambda_450d765d439847d4c735a33c368b5fc0>@@AEAV<lambda_44731a7d0e6d81c3e6aa82d741081786>@@V<lambda_601a2a7da3b7a96e9554ac7215c4b07c>@@@?$__crt_seh_guarded_call@P6AXH@Z@@QEAAP6AXH@Z$$QEAV<lambda_450d765d439847d4c735a33c368b5fc0>@@AEAV<lambda_44731a7d0e6d81c3e6aa82d741081786>@@$$QEAV<lambda_601a2a7da3b7a96e9554ac7215c4b07c>@@@Z@4HA 0000000180025adf f   libucrt:signal.obj
 0001:00024adf       ?fin$0@?0???$?RV<lambda_0ae27a3a962d80f24befdcbee591983d>@@AEAV<lambda_8d0ee55de4b1038c4002e0adecdf1839>@@V<lambda_dc504788e8f1664fe9b84e20bfb512f2>@@@?$__crt_seh_guarded_call@X@@QEAAX$$QEAV<lambda_0ae27a3a962d80f24befdcbee591983d>@@AEAV<lambda_8d0ee55de4b1038c4002e0adecdf1839>@@$$QEAV<lambda_dc504788e8f1664fe9b84e20bfb512f2>@@@Z@4HA 0000000180025adf f   libucrt:per_thread_data.obj
 0001:00024af9       ?filt$0@?0???R<lambda_6e4b09c48022b2350581041d5f6b0c4c>@@QEBA@XZ@4HA 0000000180025af9 f   libucrt:exit.obj
 0001:00024b14       ?fin$0@?0???$?RV<lambda_410d79af7f07d98d83a3f525b3859a53>@@AEAV<lambda_3e16ef9562a7dcce91392c22ab16ea36>@@V<lambda_38119f0e861e05405d8a144b9b982f0a>@@@?$__crt_seh_guarded_call@X@@QEAAX$$QEAV<lambda_410d79af7f07d98d83a3f525b3859a53>@@AEAV<lambda_3e16ef9562a7dcce91392c22ab16ea36>@@$$QEAV<lambda_38119f0e861e05405d8a144b9b982f0a>@@@Z@4HA 0000000180025b14 f   libucrt:wsetlocale.obj
 0001:00024b2e       ?fin$0@?0??update_thread_multibyte_data_internal@@YAPEAU__crt_multibyte_data@@QEAU__acrt_ptd@@QEAPEAU1@@Z@4HA 0000000180025b2e f   libucrt:mbctype.obj
 0001:00024b47       __acrt_lowio_ensure_fh_exists$fin$0 0000000180025b47 f   libucrt:osfinfo.obj
 0001:00024b47       __acrt_initialize_lowio$fin$0 0000000180025b47 f   libucrt:ioinit.obj
 0001:00024b60       raise$fin$0                0000000180025b60 f   libucrt:signal.obj
 0001:00024b81       ?fin$0@?0???$?RV<lambda_842d9ff0dc9ef11c61343bbaebe7f885>@@AEAV<lambda_c5860995281e5c4ce005b3de8f5874ee>@@V<lambda_d90129c13df834fdcbf8d2b88dafcf2d>@@@?$__crt_seh_guarded_call@X@@QEAAX$$QEAV<lambda_842d9ff0dc9ef11c61343bbaebe7f885>@@AEAV<lambda_c5860995281e5c4ce005b3de8f5874ee>@@$$QEAV<lambda_d90129c13df834fdcbf8d2b88dafcf2d>@@@Z@4HA 0000000180025b81 f   libucrt:fflush.obj
 0001:00024b9c       ?fin$0@?0???$?RV<lambda_886d6c58226a84441f68b9f2b8217b83>@@AEAV<lambda_ab61a845afdef5b7c387490eaf3616ee>@@V<lambda_f7f22ab5edc0698d5f6905b0d3f44752>@@@?$__crt_seh_guarded_call@X@@QEAAX$$QEAV<lambda_886d6c58226a84441f68b9f2b8217b83>@@AEAV<lambda_ab61a845afdef5b7c387490eaf3616ee>@@$$QEAV<lambda_f7f22ab5edc0698d5f6905b0d3f44752>@@@Z@4HA 0000000180025b9c f   libucrt:fflush.obj
 0001:00024bb9       __acrt_update_thread_locale_data$fin$0 0000000180025bb9 f   libucrt:locale_refcounting.obj
 0001:00024bd2       ?fin$0@?0???$?RV<lambda_751a882b2c74d4b022dec766aa51a29a>@@AEAV<lambda_628dfdc04ba53c8bfc02c9951375f3f5>@@V<lambda_f6c7be5f7998530c34de24c7437d6b54>@@@?$__crt_seh_guarded_call@H@@QEAAH$$QEAV<lambda_751a882b2c74d4b022dec766aa51a29a>@@AEAV<lambda_628dfdc04ba53c8bfc02c9951375f3f5>@@$$QEAV<lambda_f6c7be5f7998530c34de24c7437d6b54>@@@Z@4HA 0000000180025bd2 f   libucrt:close.obj
 0001:00024bd2       ?fin$0@?0???$?RV<lambda_a37b2b86f63e897a80ea819b0eb08c01>@@AEAV<lambda_38ce7e780aa69e748d6df282ebc68efe>@@V<lambda_99fb1378e971ab6e7edea83e3a7a83a2>@@@?$__crt_seh_guarded_call@H@@QEAAH$$QEAV<lambda_a37b2b86f63e897a80ea819b0eb08c01>@@AEAV<lambda_38ce7e780aa69e748d6df282ebc68efe>@@$$QEAV<lambda_99fb1378e971ab6e7edea83e3a7a83a2>@@@Z@4HA 0000000180025bd2 f   libucrt:commit.obj
 0001:00024bec       _write$fin$0               0000000180025bec f   libucrt:write.obj
 0001:00024c03       _fcloseall$fin$0           0000000180025c03 f   libucrt:closeall.obj
 0001:00024c1c       fclose$fin$0               0000000180025c1c f   libucrt:fclose.obj
 0001:00024c34       _ctrlfp$filt$0             0000000180025c34 f   libucrt:fpctrl.obj
 0001:00024c60       _IsNonwritableInCurrentImage$filt$0 0000000180025c60 f   LIBCMT:pesect.obj
 0002:00000440       GS_ExceptionPointers       0000000180026440     LIBCMT:gs_report.obj
 0002:00000480       ?ExceptionTemplate@?1??_CxxThrowException@@9@4UEHExceptionRecord@@B 0000000180026480     libvcruntime:throw.obj
 0002:000004d0       ?tokenTable@@3QBQEBDB      00000001800264d0     libvcruntime:undname.obj
 0002:00000550       ?nameTable@@3QBQEBDB       0000000180026550     libvcruntime:undname.obj
 0002:000007e0       ?rttiTable@@3QBQEBDB       00000001800267e0     libvcruntime:undname.obj
 0002:00000e98       ?module_names@?A0x14c33c87@@3QBQEB_WB 0000000180026e98     libvcruntime:winapi_downlevel.obj
 0002:00000f68       ?candidate_modules@?1??try_get_FlsAlloc@@YAP6AKP6AXPEAX@Z@ZXZ@4QBW4module_id@?A0x14c33c87@@B 0000000180026f68     libvcruntime:winapi_downlevel.obj
 0002:00000f80       ?candidate_modules@?1??try_get_FlsFree@@YAP6AHK@ZXZ@4QBW4module_id@?A0x14c33c87@@B 0000000180026f80     libvcruntime:winapi_downlevel.obj
 0002:00000f90       ?candidate_modules@?1??try_get_FlsGetValue@@YAP6APEAXK@ZXZ@4QBW4module_id@?A0x14c33c87@@B 0000000180026f90     libvcruntime:winapi_downlevel.obj
 0002:00000fa8       ?candidate_modules@?1??try_get_FlsSetValue@@YAP6AHKPEAX@ZXZ@4QBW4module_id@?A0x14c33c87@@B 0000000180026fa8     libvcruntime:winapi_downlevel.obj
 0002:00000fc0       ?candidate_modules@?1??try_get_InitializeCriticalSectionEx@@YAP6AHPEAU_RTL_CRITICAL_SECTION@@KK@ZXZ@4QBW4module_id@?A0x14c33c87@@B 0000000180026fc0     libvcruntime:winapi_downlevel.obj
 0002:000010f0       __acrt_initializers        00000001800270f0     libucrt:initialization.obj
 0002:000011f0       ?errtable@@3QBUerrentry@?A0x31fdb9ec@@B 00000001800271f0     libucrt:errno.obj
 0002:000019e0       ?_mb_locale_names@@3QBQEB_WB 00000001800279e0     libucrt:mbctype.obj
 0002:00001a40       ?module_names@?A0x391cf84c@@3QBQEB_WB 0000000180027a40     libucrt:winapi_thunks.obj
 0002:00001fe8       ?candidate_modules@?1??try_get_AreFileApisANSI@@YAP6AHXZXZ@4QBW4module_id@?A0x391cf84c@@B 0000000180027fe8     libucrt:winapi_thunks.obj
 0002:00002000       ?candidate_modules@?1??try_get_FlsAlloc@@YAP6AKP6AXPEAX@Z@ZXZ@4QBW4module_id@?A0x391cf84c@@B 0000000180028000     libucrt:winapi_thunks.obj
 0002:00002018       ?candidate_modules@?1??try_get_FlsFree@@YAP6AHK@ZXZ@4QBW4module_id@?A0x391cf84c@@B 0000000180028018     libucrt:winapi_thunks.obj
 0002:00002028       ?candidate_modules@?1??try_get_FlsGetValue@@YAP6APEAXK@ZXZ@4QBW4module_id@?A0x391cf84c@@B 0000000180028028     libucrt:winapi_thunks.obj
 0002:00002040       ?candidate_modules@?1??try_get_FlsSetValue@@YAP6AHKPEAX@ZXZ@4QBW4module_id@?A0x391cf84c@@B 0000000180028040     libucrt:winapi_thunks.obj
 0002:00002058       ?candidate_modules@?1??try_get_InitializeCriticalSectionEx@@YAP6AHPEAU_RTL_CRITICAL_SECTION@@KK@ZXZ@4QBW4module_id@?A0x391cf84c@@B 0000000180028058     libucrt:winapi_thunks.obj
 0002:00002080       ?candidate_modules@?1??try_get_LCMapStringEx@@YAP6AHPEB_WK0HPEA_WHPEAU_nlsversioninfo@@PEAX_J@ZXZ@4QBW4module_id@?A0x391cf84c@@B 0000000180028080     libucrt:winapi_thunks.obj
 0002:00002098       ?candidate_modules@?1??try_get_LocaleNameToLCID@@YAP6AKPEB_WK@ZXZ@4QBW4module_id@?A0x391cf84c@@B 0000000180028098     libucrt:winapi_thunks.obj
 0002:000020b4       ?candidate_modules@?1??try_get_AppPolicyGetProcessTerminationMethod@@YAP6AJPEAXPEAW4AppPolicyProcessTerminationMethod@@@ZXZ@4QBW4module_id@?A0x391cf84c@@B 00000001800280b4     libucrt:winapi_thunks.obj
 0002:000026f0       ?LcidToLocaleNameTable@?A0x881e4c05@@3QBULcidToLocaleName@1@B 00000001800286f0     libucrt:lcidtoname_downlevel.obj
 0002:00004150       ?LocaleNameToIndexTable@?A0x881e4c05@@3QBULocaleNameIndex@1@B 000000018002a150     libucrt:lcidtoname_downlevel.obj
 0002:000059f0       __real_ninf                000000018002b9f0     libucrt:log10.obj
 0002:00005a00       __real_inf                 000000018002ba00     libucrt:log10.obj
 0002:00005a10       __real_neg_qnan            000000018002ba10     libucrt:log10.obj
 0002:00005a20       __real_qnanbit             000000018002ba20     libucrt:log10.obj
 0002:00005a30       __int_1023                 000000018002ba30     libucrt:log10.obj
 0002:00005a40       __mask_001                 000000018002ba40     libucrt:log10.obj
 0002:00005a50       __mask_mant                000000018002ba50     libucrt:log10.obj
 0002:00005a60       __mask_mant_top8           000000018002ba60     libucrt:log10.obj
 0002:00005a70       __mask_mant9               000000018002ba70     libucrt:log10.obj
 0002:00005a80       __real_log10_e             000000018002ba80     libucrt:log10.obj
 0002:00005a90       __real_log10_e_lead        000000018002ba90     libucrt:log10.obj
 0002:00005aa0       __real_log10_e_tail        000000018002baa0     libucrt:log10.obj
 0002:00005ab0       __real_log10_2_lead        000000018002bab0     libucrt:log10.obj
 0002:00005ac0       __real_log10_2_tail        000000018002bac0     libucrt:log10.obj
 0002:00005ad0       __real_two                 000000018002bad0     libucrt:log10.obj
 0002:00005ae0       __real_one                 000000018002bae0     libucrt:log10.obj
 0002:00005af0       __real_half                000000018002baf0     libucrt:log10.obj
 0002:00005b00       __mask_100                 000000018002bb00     libucrt:log10.obj
 0002:00005b10       __real_1_over_512          000000018002bb10     libucrt:log10.obj
 0002:00005b20       __real_1_over_2            000000018002bb20     libucrt:log10.obj
 0002:00005b30       __real_1_over_3            000000018002bb30     libucrt:log10.obj
 0002:00005b40       __real_1_over_4            000000018002bb40     libucrt:log10.obj
 0002:00005b50       __real_1_over_5            000000018002bb50     libucrt:log10.obj
 0002:00005b60       __real_1_over_6            000000018002bb60     libucrt:log10.obj
 0002:00005b70       __real_neg_1023            000000018002bb70     libucrt:log10.obj
 0002:00005b80       __mask_2045                000000018002bb80     libucrt:log10.obj
 0002:00005b90       __real_threshold           000000018002bb90     libucrt:log10.obj
 0002:00005ba0       __real_near_one_lt         000000018002bba0     libucrt:log10.obj
 0002:00005bb0       __real_near_one_gt         000000018002bbb0     libucrt:log10.obj
 0002:00005bc0       __real_min_norm            000000018002bbc0     libucrt:log10.obj
 0002:00005bd0       __real_notsign             000000018002bbd0     libucrt:log10.obj
 0002:00005be0       __real_ca1                 000000018002bbe0     libucrt:log10.obj
 0002:00005bf0       __real_ca2                 000000018002bbf0     libucrt:log10.obj
 0002:00005c00       __real_ca3                 000000018002bc00     libucrt:log10.obj
 0002:00005c10       __real_ca4                 000000018002bc10     libucrt:log10.obj
 0002:00005c20       __mask_lower               000000018002bc20     libucrt:log10.obj
 0002:00005c30       __flag_x_zero              000000018002bc30     libucrt:log10.obj
 0002:00005c34       __flag_x_neg               000000018002bc34     libucrt:log10.obj
 0002:00005c38       __flag_x_nan               000000018002bc38     libucrt:log10.obj
 0002:00007490       __real@433fffffffffffff    000000018002d490     libucrt:fpsr.obj
 0002:00007498       __real@c33fffffffffffff    000000018002d498     libucrt:fpsr.obj
 0002:000074d6       ?piecewise_construct@std@@3Upiecewise_construct_t@1@B 000000018002d4d6     addon.obj
 0002:000074d7       ?piecewise_construct@std@@3Upiecewise_construct_t@1@B 000000018002d4d7     minkowski.obj
 0002:00007d10       $unwind$?FunctionCallbackWrapper@imp@Nan@@YAXAEBV?$FunctionCallbackInfo@VValue@v8@@@v8@@@Z 000000018002dd10     addon.obj
 0002:00007d20       $unwind$?InitAll@@YAXV?$Local@VObject@v8@@@v8@@@Z 000000018002dd20     addon.obj
 0002:00007d34       $unwind$?convolve_two_polygon_sets@@YAXAEAV?$polygon_set_data@H@polygon@boost@@AEBV123@1@Z 000000018002dd34     minkowski.obj
 0002:00007d4c       $chain$0$?convolve_two_polygon_sets@@YAXAEAV?$polygon_set_data@H@polygon@boost@@AEBV123@1@Z 000000018002dd4c     minkowski.obj
 0002:00007d60       $chain$1$?convolve_two_polygon_sets@@YAXAEAV?$polygon_set_data@H@polygon@boost@@AEBV123@1@Z 000000018002dd60     minkowski.obj
 0002:00007d74       $chain$2$?convolve_two_polygon_sets@@YAXAEAV?$polygon_set_data@H@polygon@boost@@AEBV123@1@Z 000000018002dd74     minkowski.obj
 0002:00007d84       $chain$3$?convolve_two_polygon_sets@@YAXAEAV?$polygon_set_data@H@polygon@boost@@AEBV123@1@Z 000000018002dd84     minkowski.obj
 0002:00007d94       $unwind$__acrt_LocaleNameToLCID 000000018002dd94     libucrt:winapi_thunks.obj
 0002:00007d94       $unwind$_close_nolock      000000018002dd94     libucrt:close.obj
 0002:00007d94       $unwind$??$common_initialize_environment_nolock@D@@YAHXZ 000000018002dd94     libucrt:environment_initialization.obj
 0002:00007d94       $unwind$??_Gbad_array_new_length@std@@UEAAPEAXI@Z 000000018002dd94     LIBCMT:throw_bad_alloc.obj
 0002:00007d94       $unwind$__acrt_errno_map_os_error 000000018002dd94     libucrt:errno.obj
 0002:00007d94       $unwind$?replace_current_thread_locale_nolock@@YAXQEAU__acrt_ptd@@QEAU__crt_locale_data@@@Z 000000018002dd94     libucrt:per_thread_data.obj
 0002:00007d94       $unwind$??1?$polygon_with_holes_data@H@polygon@boost@@QEAA@XZ 000000018002dd94     minkowski.obj
 0002:00007d94       $unwind$?insert_clean@?$polygon_set_data@H@polygon@boost@@QEAAXAEBU?$pair@U?$pair@V?$point_data@H@polygon@boost@@V123@@std@@H@std@@_N@Z 000000018002dd94     minkowski.obj
 0002:00007d94       $unwind$__acrt_uninitialize_lowio 000000018002dd94     libucrt:ioinit.obj
 0002:00007d94       $unwind$__acrt_execute_uninitializers 000000018002dd94     libucrt:shared_initialization.obj
 0002:00007d94       $unwind$_realloc_base      000000018002dd94     libucrt:realloc_base.obj
 0002:00007d94       $unwind$?_Extract@?$_Tree_val@U?$_Tree_simple_types@U?$pair@$$CBVvertex_half_edge@?$scanline_base@H@polygon@boost@@PEAVactive_tail_arbitrary@?$polygon_arbitrary_formation@H@34@@std@@@std@@@std@@QEAAPEAU?$_Tree_node@U?$pair@$$CBVvertex_half_edge@?$scanline_base@H@polygon@boost@@PEAVactive_tail_arbitrary@?$polygon_arbitrary_formation@H@34@@std@@PEAX@2@V?$_Tree_const_iterator@V?$_Tree_val@U?$_Tree_simple_types@U?$pair@$$CBVvertex_half_edge@?$scanline_base@H@polygon@boost@@PEAVactive_tail_arbitrary@?$polygon_arbitrary_formation@H@34@@std@@@std@@@std@@@2@@Z 000000018002dd94     minkowski.obj
 0002:00007d94       $unwind$?erase@?$_Tree@V?$_Tmap_traits@Vvertex_half_edge@?$scanline_base@H@polygon@boost@@PEAVactive_tail_arbitrary@?$polygon_arbitrary_formation@H@34@Vless_vertex_half_edge@234@V?$allocator@U?$pair@$$CBVvertex_half_edge@?$scanline_base@H@polygon@boost@@PEAVactive_tail_arbitrary@?$polygon_arbitrary_formation@H@34@@std@@@std@@$0A@@std@@@std@@QEAA?AV?$_Tree_iterator@V?$_Tree_val@U?$_Tree_simple_types@U?$pair@$$CBVvertex_half_edge@?$scanline_base@H@polygon@boost@@PEAVactive_tail_arbitrary@?$polygon_arbitrary_formation@H@34@@std@@@std@@@std@@@2@V?$_Tree_const_iterator@V?$_Tree_val@U?$_Tree_simple_types@U?$pair@$$CBVvertex_half_edge@?$scanline_base@H@polygon@boost@@PEAVactive_tail_arbitrary@?$polygon_arbitrary_formation@H@34@@std@@@std@@@std@@@2@@Z 000000018002dd94     minkowski.obj
 0002:00007d94       $unwind$_initterm_e        000000018002dd94     libucrt:initterm.obj
 0002:00007d94       $unwind$??$construct@V?$polygon_data@H@polygon@boost@@AEBV123@@?$_Default_allocator_traits@V?$allocator@U?$_List_node@V?$polygon_data@H@polygon@boost@@PEAX@std@@@std@@@std@@SAXAEAV?$allocator@U?$_List_node@V?$polygon_data@H@polygon@boost@@PEAX@std@@@1@QEAV?$polygon_data@H@polygon@boost@@AEBV345@@Z 000000018002dd94     minkowski.obj
 0002:00007d94       $unwind$??_Glength_error@std@@UEAAPEAXI@Z 000000018002dd94     libcpmt:xthrow.obj
 0002:00007d94       $unwind$strncpy_s          000000018002dd94     libucrt:strncpy_s.obj
 0002:00007d94       $unwind$??_Gbad_alloc@std@@UEAAPEAXI@Z 000000018002dd94     libcpmt:xthrow.obj
 0002:00007d94       $unwind$__vcrt_FlsSetValue 000000018002dd94     libvcruntime:winapi_downlevel.obj
 0002:00007d94       $unwind$_updatetlocinfoEx_nolock 000000018002dd94     libucrt:locale_refcounting.obj
 0002:00007d94       $unwind$??_Glogic_error@std@@UEAAPEAXI@Z 000000018002dd94     libcpmt:xthrow.obj
 0002:00007d94       $unwind$_fclose_nolock     000000018002dd94     libucrt:fclose.obj
 0002:00007d94       $unwind$?_Extract@?$_Tree_val@U?$_Tree_simple_types@V?$point_data@H@polygon@boost@@@std@@@std@@QEAAPEAU?$_Tree_node@V?$point_data@H@polygon@boost@@PEAX@2@V?$_Tree_const_iterator@V?$_Tree_val@U?$_Tree_simple_types@V?$point_data@H@polygon@boost@@@std@@@std@@@2@@Z 000000018002dd94     minkowski.obj
 0002:00007d94       $unwind$?_Extract@?$_Tree_val@U?$_Tree_simple_types@U?$pair@$$CBHV?$vector@U?$pair@U?$pair@V?$point_data@H@polygon@boost@@V123@@std@@H@std@@V?$allocator@U?$pair@U?$pair@V?$point_data@H@polygon@boost@@V123@@std@@H@std@@@2@@std@@@std@@@std@@@std@@QEAAPEAU?$_Tree_node@U?$pair@$$CBHV?$vector@U?$pair@U?$pair@V?$point_data@H@polygon@boost@@V123@@std@@H@std@@V?$allocator@U?$pair@U?$pair@V?$point_data@H@polygon@boost@@V123@@std@@H@std@@@2@@std@@@std@@PEAX@2@V?$_Tree_const_iterator@V?$_Tree_val@U?$_Tree_simple_types@U?$pair@$$CBHV?$vector@U?$pair@U?$pair@V?$point_data@H@polygon@boost@@V123@@std@@H@std@@V?$allocator@U?$pair@U?$pair@V?$point_data@H@polygon@boost@@V123@@std@@H@std@@@2@@std@@@std@@@std@@@std@@@2@@Z 000000018002dd94     minkowski.obj
 0002:00007d94       $unwind$?_Extract@?$_Tree_val@U?$_Tree_simple_types@U?$pair@$$CBU?$pair@V?$point_data@H@polygon@boost@@V123@@std@@V?$vector@U?$pair@HH@std@@V?$allocator@U?$pair@HH@std@@@2@@2@@std@@@std@@@std@@QEAAPEAU?$_Tree_node@U?$pair@$$CBU?$pair@V?$point_data@H@polygon@boost@@V123@@std@@V?$vector@U?$pair@HH@std@@V?$allocator@U?$pair@HH@std@@@2@@2@@std@@PEAX@2@V?$_Tree_const_iterator@V?$_Tree_val@U?$_Tree_simple_types@U?$pair@$$CBU?$pair@V?$point_data@H@polygon@boost@@V123@@std@@V?$vector@U?$pair@HH@std@@V?$allocator@U?$pair@HH@std@@@2@@2@@std@@@std@@@std@@@2@@Z 000000018002dd94     minkowski.obj
 0002:00007d94       $unwind$__acrt_FlsSetValue 000000018002dd94     libucrt:winapi_thunks.obj
 0002:00007d94       $unwind$_RTC_Terminate     000000018002dd94     LIBCMT:initsect.obj
 0002:00007d94       $unwind$??$construct@V?$polygon_data@H@polygon@boost@@AEBV123@@?$_Default_allocator_traits@V?$allocator@V?$polygon_data@H@polygon@boost@@@std@@@std@@SAXAEAV?$allocator@V?$polygon_data@H@polygon@boost@@@1@QEAV?$polygon_data@H@polygon@boost@@AEBV345@@Z 000000018002dd94     minkowski.obj
 0002:00007d94       $unwind$_RTC_Initialize    000000018002dd94     LIBCMT:initsect.obj
 0002:00007d94       $unwind$??_Gexception@std@@UEAAPEAXI@Z 000000018002dd94     libcpmt:xthrow.obj
 0002:00007da0       $unwind$?calculateNFP@@YAXAEBV?$FunctionCallbackInfo@VValue@v8@@@Nan@@@Z 000000018002dda0     minkowski.obj
 0002:00007dec       $unwind$??0?$polygon_with_holes_data@H@polygon@boost@@QEAA@AEBV012@@Z 000000018002ddec     minkowski.obj
 0002:00007dec       $unwind$_invalid_parameter 000000018002ddec     libucrt:invalid_parameter.obj
 0002:00007e00       $unwind$_malloc_base       000000018002de00     libucrt:malloc_base.obj
 0002:00007e00       $unwind$??0bad_alloc@std@@QEAA@AEBV01@@Z 000000018002de00     libcpmt:xthrow.obj
 0002:00007e00       $unwind$?_Buy@?$vector@V?$point_data@H@polygon@boost@@V?$allocator@V?$point_data@H@polygon@boost@@@std@@@std@@AEAA_N_K@Z 000000018002de00     minkowski.obj
 0002:00007e00       $unwind$__acrt_stdio_free_buffer_nolock 000000018002de00     libucrt:_freebuf.obj
 0002:00007e00       $unwind$?_Umove@?$vector@U?$pair@U?$pair@V?$point_data@H@polygon@boost@@V123@@std@@V?$vector@U?$pair@HH@std@@V?$allocator@U?$pair@HH@std@@@2@@2@@std@@V?$allocator@U?$pair@U?$pair@V?$point_data@H@polygon@boost@@V123@@std@@V?$vector@U?$pair@HH@std@@V?$allocator@U?$pair@HH@std@@@2@@2@@std@@@2@@std@@AEAAPEAU?$pair@U?$pair@V?$point_data@H@polygon@boost@@V123@@std@@V?$vector@U?$pair@HH@std@@V?$allocator@U?$pair@HH@std@@@2@@2@@2@PEAU32@00@Z 000000018002de00     minkowski.obj
 0002:00007e00       $unwind$__acrt_get_process_end_policy 000000018002de00     libucrt:win_policies.obj
 0002:00007e00       $unwind$__std_exception_destroy 000000018002de00     libvcruntime:std_exception.obj
 0002:00007e00       $unwind$??0logic_error@std@@QEAA@AEBV01@@Z 000000018002de00     libcpmt:xthrow.obj
 0002:00007e00       $unwind$__std_type_info_destroy_list 000000018002de00     libvcruntime:std_type_info.obj
 0002:00007e00       $unwind$?_Tidy@?$vector@U?$pair@U?$pair@V?$point_data@H@polygon@boost@@V123@@std@@H@std@@V?$allocator@U?$pair@U?$pair@V?$point_data@H@polygon@boost@@V123@@std@@H@std@@@2@@std@@AEAAXXZ 000000018002de00     minkowski.obj
 0002:00007e00       $unwind$__acrt_uninitialize_stdio 000000018002de00     libucrt:_file.obj
 0002:00007e00       $unwind$_callnewh          000000018002de00     libucrt:new_handler.obj
 0002:00007e00       $unwind$__acrt_initialize_locks 000000018002de00     libucrt:locks.obj
 0002:00007e00       $unwind$??0length_error@std@@QEAA@AEBV01@@Z 000000018002de00     libcpmt:xthrow.obj
 0002:00007e00       $unwind$_fflush_nolock     000000018002de00     libucrt:fflush.obj
 0002:00007e00       $unwind$__vcrt_FlsGetValue 000000018002de00     libvcruntime:winapi_downlevel.obj
 0002:00007e00       $unwind$__acrt_uninitialize_locks 000000018002de00     libucrt:locks.obj
 0002:00007e00       $unwind$__vcrt_FlsAlloc    000000018002de00     libvcruntime:winapi_downlevel.obj
 0002:00007e00       $unwind$strcpy_s           000000018002de00     libucrt:strcpy_s.obj
 0002:00007e00       $unwind$??2@YAPEAX_K@Z     000000018002de00     LIBCMT:new_scalar.obj
 0002:00007e00       $unwind$__vcrt_uninitialize_locks 000000018002de00     libvcruntime:locks.obj
 0002:00007e00       $unwind$__acrt_getptd_head 000000018002de00     libucrt:per_thread_data.obj
 0002:00007e00       $unwind$?_Tidy@?$vector@V?$point_data@H@polygon@boost@@V?$allocator@V?$point_data@H@polygon@boost@@@std@@@std@@AEAAXXZ 000000018002de00     minkowski.obj
 0002:00007e00       $unwind$__scrt_uninitialize_crt 000000018002de00     LIBCMT:utility.obj
 0002:00007e00       $unwind$__scrt_initialize_crt 000000018002de00     LIBCMT:utility.obj
 0002:00007e00       $unwind$?_Destroy_if_node@?$_Tree@V?$_Tmap_traits@HV?$vector@U?$pair@U?$pair@V?$point_data@H@polygon@boost@@V123@@std@@H@std@@V?$allocator@U?$pair@U?$pair@V?$point_data@H@polygon@boost@@V123@@std@@H@std@@@2@@std@@U?$less@H@2@V?$allocator@U?$pair@$$CBHV?$vector@U?$pair@U?$pair@V?$point_data@H@polygon@boost@@V123@@std@@H@std@@V?$allocator@U?$pair@U?$pair@V?$point_data@H@polygon@boost@@V123@@std@@H@std@@@2@@std@@@std@@@2@$0A@@std@@@std@@IEAAXPEAU?$_Tree_node@U?$pair@$$CBHV?$vector@U?$pair@U?$pair@V?$point_data@H@polygon@boost@@V123@@std@@H@std@@V?$allocator@U?$pair@U?$pair@V?$point_data@H@polygon@boost@@V123@@std@@H@std@@@2@@std@@@std@@PEAX@2@@Z 000000018002de00     minkowski.obj
 0002:00007e00       $unwind$_calloc_base       000000018002de00     libucrt:calloc_base.obj
 0002:00007e00       $unwind$uninitialize_allocated_memory 000000018002de00     libucrt:initialization.obj
 0002:00007e00       $unwind$__scrt_release_startup_lock 000000018002de00     LIBCMT:utility.obj
 0002:00007e00       $unwind$initialize_pointers 000000018002de00     libucrt:initialization.obj
 0002:00007e00       $unwind$?try_cor_exit_process@@YAXI@Z 000000018002de00     libucrt:exit.obj
 0002:00007e00       $unwind$?_Buy@?$vector@U?$pair@HH@std@@V?$allocator@U?$pair@HH@std@@@2@@std@@AEAA_N_K@Z 000000018002de00     minkowski.obj
 0002:00007e00       $unwind$__acrt_freeptd     000000018002de00     libucrt:per_thread_data.obj
 0002:00007e00       $unwind$?exit_or_terminate_process@@YAXI@Z 000000018002de00     libucrt:exit.obj
 0002:00007e00       $unwind$__vcrt_FlsFree     000000018002de00     libvcruntime:winapi_downlevel.obj
 0002:00007e00       $unwind$?_Tidy@?$vector@U?$pair@HH@std@@V?$allocator@U?$pair@HH@std@@@2@@std@@AEAAXXZ 000000018002de00     minkowski.obj
 0002:00007e00       $unwind$__vcrt_initialize_locks 000000018002de00     libvcruntime:locks.obj
 0002:00007e00       $unwind$__acrt_allocate_buffer_for_argv 000000018002de00     libucrt:argv_parsing.obj
 0002:00007e00       $unwind$__acrt_update_multibyte_info 000000018002de00     libucrt:locale_update.obj
 0002:00007e00       $unwind$__acrt_AppPolicyGetProcessTerminationMethodInternal 000000018002de00     libucrt:winapi_thunks.obj
 0002:00007e00       $unwind$__acrt_update_locale_info 000000018002de00     libucrt:locale_update.obj
 0002:00007e00       $unwind$?_Destroy_if_node@?$_Tree@V?$_Tmap_traits@U?$pair@V?$point_data@H@polygon@boost@@V123@@std@@V?$vector@U?$pair@HH@std@@V?$allocator@U?$pair@HH@std@@@2@@2@Vless_half_edge@?$scanline_base@H@polygon@boost@@V?$allocator@U?$pair@$$CBU?$pair@V?$point_data@H@polygon@boost@@V123@@std@@V?$vector@U?$pair@HH@std@@V?$allocator@U?$pair@HH@std@@@2@@2@@std@@@2@$0A@@std@@@std@@IEAAXPEAU?$_Tree_node@U?$pair@$$CBU?$pair@V?$point_data@H@polygon@boost@@V123@@std@@V?$vector@U?$pair@HH@std@@V?$allocator@U?$pair@HH@std@@@2@@2@@std@@PEAX@2@@Z 000000018002de00     minkowski.obj
 0002:00007e00       $unwind$??0bad_array_new_length@std@@QEAA@AEBV01@@Z 000000018002de00     LIBCMT:throw_bad_alloc.obj
 0002:00007e00       $unwind$__raise_securityfailure 000000018002de00     LIBCMT:gs_report.obj
 0002:00007e00       $unwind$??0exception@std@@QEAA@AEBV01@@Z 000000018002de00     libcpmt:xthrow.obj
 0002:00007e00       $unwind$??_Gtype_info@@UEAAPEAXI@Z 000000018002de00     LIBCMT:std_type_info_static.obj
 0002:00007e00       $unwind$_clrfp             000000018002de00     libucrt:fpctrl.obj
 0002:00007e00       $unwind$__acrt_uninitialize_winapi_thunks 000000018002de00     libucrt:winapi_thunks.obj
 0002:00007e00       $unwind$_set_statfp        000000018002de00     libucrt:fpctrl.obj
 0002:00007e00       $unwind$__acrt_FlsGetValue 000000018002de00     libucrt:winapi_thunks.obj
 0002:00007e00       $unwind$__vcrt_freeptd     000000018002de00     libvcruntime:per_thread_data.obj
 0002:00007e00       $unwind$__acrt_FlsFree     000000018002de00     libucrt:winapi_thunks.obj
 0002:00007e00       $unwind$__acrt_FlsAlloc    000000018002de00     libucrt:winapi_thunks.obj
 0002:00007e08       $unwind$?clear@?$list@V?$polygon_data@H@polygon@boost@@V?$allocator@V?$polygon_data@H@polygon@boost@@@std@@@std@@QEAAXXZ 000000018002de08     minkowski.obj
 0002:00007e18       $chain$0$?clear@?$list@V?$polygon_data@H@polygon@boost@@V?$allocator@V?$polygon_data@H@polygon@boost@@@std@@@std@@QEAAXXZ 000000018002de18     minkowski.obj
 0002:00007e2c       $chain$1$?clear@?$list@V?$polygon_data@H@polygon@boost@@V?$allocator@V?$polygon_data@H@polygon@boost@@@std@@@std@@QEAAXXZ 000000018002de2c     minkowski.obj
 0002:00007e3c       $chain$2$?clear@?$list@V?$polygon_data@H@polygon@boost@@V?$allocator@V?$polygon_data@H@polygon@boost@@@std@@@std@@QEAAXXZ 000000018002de3c     minkowski.obj
 0002:00007e50       $chain$0$?_Buy@?$vector@V?$point_data@H@polygon@boost@@V?$allocator@V?$point_data@H@polygon@boost@@@std@@@std@@AEAA_N_K@Z 000000018002de50     minkowski.obj
 0002:00007e50       $chain$0$?_Buy@?$vector@U?$pair@HH@std@@V?$allocator@U?$pair@HH@std@@@2@@std@@AEAA_N_K@Z 000000018002de50     minkowski.obj
 0002:00007e64       $chain$1$?_Buy@?$vector@U?$pair@HH@std@@V?$allocator@U?$pair@HH@std@@@2@@std@@AEAA_N_K@Z 000000018002de64     minkowski.obj
 0002:00007e64       $chain$1$?_Buy@?$vector@V?$point_data@H@polygon@boost@@V?$allocator@V?$point_data@H@polygon@boost@@@std@@@std@@AEAA_N_K@Z 000000018002de64     minkowski.obj
 0002:00007e74       $chain$2$?_Buy@?$vector@V?$point_data@H@polygon@boost@@V?$allocator@V?$point_data@H@polygon@boost@@@std@@@std@@AEAA_N_K@Z 000000018002de74     minkowski.obj
 0002:00007e74       $chain$2$?_Buy@?$vector@U?$pair@HH@std@@V?$allocator@U?$pair@HH@std@@@2@@std@@AEAA_N_K@Z 000000018002de74     minkowski.obj
 0002:00007e88       $unwind$__acrt_uninitialize_critical 000000018002de88     libucrt:initialization.obj
 0002:00007e88       $unwind$__acrt_thread_attach 000000018002de88     libucrt:initialization.obj
 0002:00007e88       $unwind$??$_Sort_heap_unchecked@PEAV?$point_data@H@polygon@boost@@Vless_point_down_slope@?$line_intersection@H@23@@std@@YAXPEAV?$point_data@H@polygon@boost@@0Vless_point_down_slope@?$line_intersection@H@23@@Z 000000018002de88     minkowski.obj
 0002:00007e88       $unwind$??$uninitialize_environment_internal@D@@YAXAEAPEAPEAD@Z 000000018002de88     libucrt:environment_initialization.obj
 0002:00007e88       $unwind$__acrt_thread_detach 000000018002de88     libucrt:initialization.obj
 0002:00007e88       $unwind$?_Xlength@?$vector@Vvertex_half_edge@?$scanline_base@H@polygon@boost@@V?$allocator@Vvertex_half_edge@?$scanline_base@H@polygon@boost@@@std@@@std@@CAXXZ 000000018002de88     minkowski.obj
 0002:00007e88       $unwind$__dcrt_uninitialize_environments_nolock 000000018002de88     libucrt:environment_initialization.obj
 0002:00007e88       $unwind$?deallocate@?$allocator@V?$polygon_data@H@polygon@boost@@@std@@QEAAXQEAV?$polygon_data@H@polygon@boost@@_K@Z 000000018002de88     minkowski.obj
 0002:00007e88       $unwind$__scrt_initialize_default_local_stdio_options 000000018002de88     LIBCMT:default_local_stdio_options.obj
 0002:00007e88       $unwind$?dllmain_crt_dispatch@@YAHQEAUHINSTANCE__@@KQEAX@Z 000000018002de88     LIBCMT:dll_dllmain.obj
 0002:00007e88       $unwind$__acrt_initialize_heap 000000018002de88     libucrt:heap_handle.obj
 0002:00007e88       $unwind$initialize_c       000000018002de88     libucrt:initialization.obj
 0002:00007e88       $unwind$__dcrt_terminate_console_output 000000018002de88     libucrt:initcon.obj
 0002:00007e88       $unwind$__acrt_uninitialize 000000018002de88     libucrt:initialization.obj
 0002:00007e88       $unwind$??$uninitialize_environment_internal@_W@@YAXAEAPEAPEA_W@Z 000000018002de88     libucrt:environment_initialization.obj
 0002:00007e88       $unwind$uninitialize_environment 000000018002de88     libucrt:initialization.obj
 0002:00007e88       $unwind$__scrt_acquire_startup_lock 000000018002de88     LIBCMT:utility.obj
 0002:00007e88       $unwind$?deallocate@?$allocator@PEAVactive_tail_arbitrary@?$polygon_arbitrary_formation@H@polygon@boost@@@std@@QEAAXQEAPEAVactive_tail_arbitrary@?$polygon_arbitrary_formation@H@polygon@boost@@_K@Z 000000018002de88     minkowski.obj
 0002:00007e88       $unwind$?deallocate@?$allocator@U?$pair@U?$pair@V?$point_data@H@polygon@boost@@V123@@std@@V?$vector@U?$pair@HH@std@@V?$allocator@U?$pair@HH@std@@@2@@2@@std@@@std@@QEAAXQEAU?$pair@U?$pair@V?$point_data@H@polygon@boost@@V123@@std@@V?$vector@U?$pair@HH@std@@V?$allocator@U?$pair@HH@std@@@2@@2@@2@_K@Z 000000018002de88     minkowski.obj
 0002:00007e88       $unwind$__acrt_update_thread_multibyte_data 000000018002de88     libucrt:mbctype.obj
 0002:00007e88       $unwind$?_Xlength@?$vector@U?$pair@U?$pair@V?$point_data@H@polygon@boost@@V123@@std@@H@std@@V?$allocator@U?$pair@U?$pair@V?$point_data@H@polygon@boost@@V123@@std@@H@std@@@2@@std@@CAXXZ 000000018002de88     minkowski.obj
 0002:00007e88       $unwind$?_Xlength@?$vector@V?$polygon_data@H@polygon@boost@@V?$allocator@V?$polygon_data@H@polygon@boost@@@std@@@std@@CAXXZ 000000018002de88     minkowski.obj
 0002:00007e88       $unwind$?_Xlength@?$vector@U?$pair@Vvertex_half_edge@?$scanline_base@H@polygon@boost@@PEAVactive_tail_arbitrary@?$polygon_arbitrary_formation@H@34@@std@@V?$allocator@U?$pair@Vvertex_half_edge@?$scanline_base@H@polygon@boost@@PEAVactive_tail_arbitrary@?$polygon_arbitrary_formation@H@34@@std@@@2@@std@@CAXXZ 000000018002de88     minkowski.obj
 0002:00007e88       $unwind$?_Xlength@?$vector@V?$point_data@H@polygon@boost@@V?$allocator@V?$point_data@H@polygon@boost@@@std@@@std@@CAXXZ 000000018002de88     minkowski.obj
 0002:00007e88       $unwind$?deallocate@?$allocator@U?$pair@V?$point_data@H@polygon@boost@@H@std@@@std@@QEAAXQEAU?$pair@V?$point_data@H@polygon@boost@@H@2@_K@Z 000000018002de88     minkowski.obj
 0002:00007e88       $unwind$?_Xlength@?$vector@V?$set@V?$point_data@H@polygon@boost@@U?$less@V?$point_data@H@polygon@boost@@@std@@V?$allocator@V?$point_data@H@polygon@boost@@@5@@std@@V?$allocator@V?$set@V?$point_data@H@polygon@boost@@U?$less@V?$point_data@H@polygon@boost@@@std@@V?$allocator@V?$point_data@H@polygon@boost@@@5@@std@@@2@@std@@CAXXZ 000000018002de88     minkowski.obj
 0002:00007e88       $unwind$?deallocate@?$allocator@H@std@@QEAAXQEAH_K@Z 000000018002de88     minkowski.obj
 0002:00007e88       $unwind$_statfp            000000018002de88     libucrt:fpctrl.obj
 0002:00007e88       $unwind$__scrt_dllmain_before_initialize_c 000000018002de88     LIBCMT:utility.obj
 0002:00007e88       $unwind$?deallocate@?$allocator@U?$pair@Vvertex_half_edge@?$scanline_base@H@polygon@boost@@PEAVactive_tail_arbitrary@?$polygon_arbitrary_formation@H@34@@std@@@std@@QEAAXQEAU?$pair@Vvertex_half_edge@?$scanline_base@H@polygon@boost@@PEAVactive_tail_arbitrary@?$polygon_arbitrary_formation@H@34@@2@_K@Z 000000018002de88     minkowski.obj
 0002:00007e88       $unwind$__scrt_dllmain_after_initialize_c 000000018002de88     LIBCMT:utility.obj
 0002:00007e88       $unwind$?_Xlength@?$vector@U?$pair@U?$pair@V?$point_data@H@polygon@boost@@V123@@std@@V?$vector@U?$pair@HH@std@@V?$allocator@U?$pair@HH@std@@@2@@2@@std@@V?$allocator@U?$pair@U?$pair@V?$point_data@H@polygon@boost@@V123@@std@@V?$vector@U?$pair@HH@std@@V?$allocator@U?$pair@HH@std@@@2@@2@@std@@@2@@std@@CAXXZ 000000018002de88     minkowski.obj
 0002:00007e88       $unwind$__scrt_dllmain_uninitialize_c 000000018002de88     LIBCMT:utility.obj
 0002:00007e88       $unwind$?copyHoles@active_tail_arbitrary@?$polygon_arbitrary_formation@H@polygon@boost@@QEAAXAEAV1234@@Z 000000018002de88     minkowski.obj
 0002:00007e88       $unwind$__scrt_dllmain_uninitialize_critical 000000018002de88     LIBCMT:utility.obj
 0002:00007e88       $unwind$abort              000000018002de88     libucrt:abort.obj
 0002:00007e88       $unwind$__scrt_dllmain_crt_thread_attach 000000018002de88     LIBCMT:utility.obj
 0002:00007e88       $unwind$_fileno            000000018002de88     libucrt:fileno.obj
 0002:00007e88       $unwind$__scrt_dllmain_crt_thread_detach 000000018002de88     LIBCMT:utility.obj
 0002:00007e88       $unwind$__pctype_func      000000018002de88     libucrt:ctype.obj
 0002:00007e88       $unwind$?_Xlength@?$vector@U?$pair@V?$point_data@H@polygon@boost@@H@std@@V?$allocator@U?$pair@V?$point_data@H@polygon@boost@@H@std@@@2@@std@@CAXXZ 000000018002de88     minkowski.obj
 0002:00007e88       $unwind$_isatty            000000018002de88     libucrt:isatty.obj
 0002:00007e88       $unwind$__acrt_initialize_multibyte 000000018002de88     libucrt:mbctype.obj
 0002:00007e88       $unwind$?deallocate@?$allocator@U?$pair@HU?$pair@_K_K@std@@@std@@@std@@QEAAXQEAU?$pair@HU?$pair@_K_K@std@@@2@_K@Z 000000018002de88     minkowski.obj
 0002:00007e88       $unwind$uninitialize_allocated_io_buffers 000000018002de88     libucrt:initialization.obj
 0002:00007e88       $unwind$?_Xlength@?$vector@U?$pair@HH@std@@V?$allocator@U?$pair@HH@std@@@2@@std@@CAXXZ 000000018002de88     minkowski.obj
 0002:00007e88       $unwind$__acrt_initialize_command_line 000000018002de88     libucrt:argv_data.obj
 0002:00007e88       $unwind$_invoke_watson     000000018002de88     libucrt:invalid_parameter.obj
 0002:00007e88       $unwind$__acrt_release_locale_ref 000000018002de88     libucrt:locale_refcounting.obj
 0002:00007e88       $unwind$??$_Allocate@$0BA@U_Default_allocate_traits@std@@$0A@@std@@YAPEAX_K@Z 000000018002de88     minkowski.obj
 0002:00007e88       $unwind$__acrt_initialize_ptd 000000018002de88     libucrt:per_thread_data.obj
 0002:00007e88       $unwind$__acrt_uninitialize_ptd 000000018002de88     libucrt:per_thread_data.obj
 0002:00007e88       $unwind$__vcrt_initialize  000000018002de88     libvcruntime:initialization.obj
 0002:00007e88       $unwind$?_Xlength@?$vector@PEAVactive_tail_arbitrary@?$polygon_arbitrary_formation@H@polygon@boost@@V?$allocator@PEAVactive_tail_arbitrary@?$polygon_arbitrary_formation@H@polygon@boost@@@std@@@std@@CAXXZ 000000018002de88     minkowski.obj
 0002:00007e88       $unwind$__vcrt_uninitialize 000000018002de88     libvcruntime:initialization.obj
 0002:00007e88       $unwind$__report_rangecheckfailure 000000018002de88     LIBCMT:gs_report.obj
 0002:00007e88       $unwind$__vcrt_uninitialize_critical 000000018002de88     libvcruntime:initialization.obj
 0002:00007e88       $unwind$?_Xlength@?$vector@V?$_Tree_iterator@V?$_Tree_val@U?$_Tree_simple_types@U?$pair@$$CBVvertex_half_edge@?$scanline_base@H@polygon@boost@@PEAVactive_tail_arbitrary@?$polygon_arbitrary_formation@H@34@@std@@@std@@@std@@@std@@V?$allocator@V?$_Tree_iterator@V?$_Tree_val@U?$_Tree_simple_types@U?$pair@$$CBVvertex_half_edge@?$scanline_base@H@polygon@boost@@PEAVactive_tail_arbitrary@?$polygon_arbitrary_formation@H@34@@std@@@std@@@std@@@std@@@2@@std@@CAXXZ 000000018002de88     minkowski.obj
 0002:00007e88       $unwind$__vcrt_thread_attach 000000018002de88     libvcruntime:initialization.obj
 0002:00007e88       $unwind$?_Xlength@?$vector@V?$_Tree_iterator@V?$_Tree_val@U?$_Tree_simple_types@U?$pair@$$CBU?$pair@V?$point_data@H@polygon@boost@@V123@@std@@V?$vector@U?$pair@HH@std@@V?$allocator@U?$pair@HH@std@@@2@@2@@std@@@std@@@std@@@std@@V?$allocator@V?$_Tree_iterator@V?$_Tree_val@U?$_Tree_simple_types@U?$pair@$$CBU?$pair@V?$point_data@H@polygon@boost@@V123@@std@@V?$vector@U?$pair@HH@std@@V?$allocator@U?$pair@HH@std@@@2@@2@@std@@@std@@@std@@@std@@@2@@std@@CAXXZ 000000018002de88     minkowski.obj
 0002:00007e88       $unwind$__vcrt_thread_detach 000000018002de88     libvcruntime:initialization.obj
 0002:00007e88       $unwind$__acrt_AreFileApisANSI 000000018002de88     libucrt:winapi_thunks.obj
 0002:00007e88       $unwind$__GSHandlerCheck   000000018002de88     LIBCMT:gshandler.obj
 0002:00007e88       $unwind$?deallocate@?$allocator@V?$_Tree_iterator@V?$_Tree_val@U?$_Tree_simple_types@U?$pair@$$CBVvertex_half_edge@?$scanline_base@H@polygon@boost@@PEAVactive_tail_arbitrary@?$polygon_arbitrary_formation@H@34@@std@@@std@@@std@@@std@@@std@@QEAAXQEAV?$_Tree_iterator@V?$_Tree_val@U?$_Tree_simple_types@U?$pair@$$CBVvertex_half_edge@?$scanline_base@H@polygon@boost@@PEAVactive_tail_arbitrary@?$polygon_arbitrary_formation@H@34@@std@@@std@@@std@@@2@_K@Z 000000018002de88     minkowski.obj
 0002:00007e88       $unwind$?_Xlength@?$vector@U?$pair@HU?$pair@_K_K@std@@@std@@V?$allocator@U?$pair@HU?$pair@_K_K@std@@@std@@@2@@std@@CAXXZ 000000018002de88     minkowski.obj
 0002:00007e88       $unwind$_errno             000000018002de88     libucrt:errno.obj
 0002:00007e88       $unwind$__acrt_DownlevelLocaleNameToLCID 000000018002de88     libucrt:lcidtoname_downlevel.obj
 0002:00007e88       $unwind$?_Xlength@?$vector@HV?$allocator@H@std@@@std@@CAXXZ 000000018002de88     minkowski.obj
 0002:00007e88       $unwind$_set_errno_from_matherr 000000018002de88     libucrt:fpexcept.obj
 0002:00007e88       $unwind$?_Xlength@?$vector@V?$polygon_with_holes_data@H@polygon@boost@@V?$allocator@V?$polygon_with_holes_data@H@polygon@boost@@@std@@@std@@CAXXZ 000000018002de88     minkowski.obj
 0002:00007e88       $unwind$__vcrt_initialize_ptd 000000018002de88     libvcruntime:per_thread_data.obj
 0002:00007e88       $unwind$__doserrno         000000018002de88     libucrt:errno.obj
 0002:00007e88       $unwind$__vcrt_uninitialize_ptd 000000018002de88     libvcruntime:per_thread_data.obj
 0002:00007e88       $unwind$_msize_base        000000018002de88     libucrt:msize.obj
 0002:00007e88       $unwind$?_Xlength@?$vector@U?$pair@U?$pair@U?$pair@V?$point_data@H@polygon@boost@@V123@@std@@H@std@@PEAVactive_tail_arbitrary@?$polygon_arbitrary_formation@H@polygon@boost@@@std@@V?$allocator@U?$pair@U?$pair@U?$pair@V?$point_data@H@polygon@boost@@V123@@std@@H@std@@PEAVactive_tail_arbitrary@?$polygon_arbitrary_formation@H@polygon@boost@@@std@@@2@@std@@CAXXZ 000000018002de88     minkowski.obj
 0002:00007e88       $unwind$?initialize_multibyte@@YAHXZ 000000018002de88     libucrt:multibyte_initializer.obj
 0002:00007e88       $unwind$_get_osfhandle     000000018002de88     libucrt:osfinfo.obj
 0002:00007e88       $unwind$?_Xlength@?$vector@U?$pair@U?$pair@V?$point_data@H@polygon@boost@@V123@@std@@U?$pair@HH@2@@std@@V?$allocator@U?$pair@U?$pair@V?$point_data@H@polygon@boost@@V123@@std@@U?$pair@HH@2@@std@@@2@@std@@CAXXZ 000000018002de88     minkowski.obj
 0002:00007e88       $unwind$__vcrt_freefls     000000018002de88     libvcruntime:per_thread_data.obj
 0002:00007e90       $unwind$??$convolve_point_sequence_with_polygons@V?$_Vector_const_iterator@V?$_Vector_val@U?$_Simple_types@V?$point_data@H@polygon@boost@@@std@@@std@@@std@@@@YAXAEAV?$polygon_set_data@H@polygon@boost@@V?$_Vector_const_iterator@V?$_Vector_val@U?$_Simple_types@V?$point_data@H@polygon@boost@@@std@@@std@@@std@@1AEBV?$vector@V?$polygon_with_holes_data@H@polygon@boost@@V?$allocator@V?$polygon_with_holes_data@H@polygon@boost@@@std@@@4@@Z 000000018002de90     minkowski.obj
 0002:00007ea4       $chain$1$??$convolve_point_sequence_with_polygons@V?$_Vector_const_iterator@V?$_Vector_val@U?$_Simple_types@V?$point_data@H@polygon@boost@@@std@@@std@@@std@@@@YAXAEAV?$polygon_set_data@H@polygon@boost@@V?$_Vector_const_iterator@V?$_Vector_val@U?$_Simple_types@V?$point_data@H@polygon@boost@@@std@@@std@@@std@@1AEBV?$vector@V?$polygon_with_holes_data@H@polygon@boost@@V?$allocator@V?$polygon_with_holes_data@H@polygon@boost@@@std@@@4@@Z 000000018002dea4     minkowski.obj
 0002:00007ebc       $chain$2$??$convolve_point_sequence_with_polygons@V?$_Vector_const_iterator@V?$_Vector_val@U?$_Simple_types@V?$point_data@H@polygon@boost@@@std@@@std@@@std@@@@YAXAEAV?$polygon_set_data@H@polygon@boost@@V?$_Vector_const_iterator@V?$_Vector_val@U?$_Simple_types@V?$point_data@H@polygon@boost@@@std@@@std@@@std@@1AEBV?$vector@V?$polygon_with_holes_data@H@polygon@boost@@V?$allocator@V?$polygon_with_holes_data@H@polygon@boost@@@std@@@4@@Z 000000018002debc     minkowski.obj
 0002:00007ecc       $unwind$??$convolve@V?$polygon_with_holes_data@H@polygon@boost@@V?$point_data@H@23@@polygon@boost@@YAAEAV?$polygon_with_holes_data@H@01@AEAV201@AEBV?$point_data@H@01@@Z 000000018002decc     minkowski.obj
 0002:00007ee0       $chain$1$??$convolve@V?$polygon_with_holes_data@H@polygon@boost@@V?$point_data@H@23@@polygon@boost@@YAAEAV?$polygon_with_holes_data@H@01@AEAV201@AEBV?$point_data@H@01@@Z 000000018002dee0     minkowski.obj
 0002:00007ef8       $chain$4$??$convolve@V?$polygon_with_holes_data@H@polygon@boost@@V?$point_data@H@23@@polygon@boost@@YAAEAV?$polygon_with_holes_data@H@01@AEAV201@AEBV?$point_data@H@01@@Z 000000018002def8     minkowski.obj
 0002:00007ef8       $chain$2$??$convolve@V?$polygon_with_holes_data@H@polygon@boost@@V?$point_data@H@23@@polygon@boost@@YAAEAV?$polygon_with_holes_data@H@01@AEAV201@AEBV?$point_data@H@01@@Z 000000018002def8     minkowski.obj
 0002:00007f08       $chain$3$??$convolve@V?$polygon_with_holes_data@H@polygon@boost@@V?$point_data@H@23@@polygon@boost@@YAAEAV?$polygon_with_holes_data@H@01@AEAV201@AEBV?$point_data@H@01@@Z 000000018002df08     minkowski.obj
 0002:00007f20       $unwind$??$_Emplace_reallocate@AEBV?$point_data@H@polygon@boost@@@?$vector@V?$point_data@H@polygon@boost@@V?$allocator@V?$point_data@H@polygon@boost@@@std@@@std@@QEAAPEAV?$point_data@H@polygon@boost@@QEAV234@AEBV234@@Z 000000018002df20     minkowski.obj
 0002:00007f20       $unwind$??$_Emplace_reallocate@V?$point_data@H@polygon@boost@@@?$vector@V?$point_data@H@polygon@boost@@V?$allocator@V?$point_data@H@polygon@boost@@@std@@@std@@QEAAPEAV?$point_data@H@polygon@boost@@QEAV234@$$QEAV234@@Z 000000018002df20     minkowski.obj
 0002:00007f30       $chain$1$??$_Emplace_reallocate@AEBV?$point_data@H@polygon@boost@@@?$vector@V?$point_data@H@polygon@boost@@V?$allocator@V?$point_data@H@polygon@boost@@@std@@@std@@QEAAPEAV?$point_data@H@polygon@boost@@QEAV234@AEBV234@@Z 000000018002df30     minkowski.obj
 0002:00007f30       $chain$1$??$_Emplace_reallocate@V?$point_data@H@polygon@boost@@@?$vector@V?$point_data@H@polygon@boost@@V?$allocator@V?$point_data@H@polygon@boost@@@std@@@std@@QEAAPEAV?$point_data@H@polygon@boost@@QEAV234@$$QEAV234@@Z 000000018002df30     minkowski.obj
 0002:00007f48       $chain$3$??$_Emplace_reallocate@V?$point_data@H@polygon@boost@@@?$vector@V?$point_data@H@polygon@boost@@V?$allocator@V?$point_data@H@polygon@boost@@@std@@@std@@QEAAPEAV?$point_data@H@polygon@boost@@QEAV234@$$QEAV234@@Z 000000018002df48     minkowski.obj
 0002:00007f48       $chain$3$??$_Emplace_reallocate@AEBV?$point_data@H@polygon@boost@@@?$vector@V?$point_data@H@polygon@boost@@V?$allocator@V?$point_data@H@polygon@boost@@@std@@@std@@QEAAPEAV?$point_data@H@polygon@boost@@QEAV234@AEBV234@@Z 000000018002df48     minkowski.obj
 0002:00007f60       $chain$4$??$_Emplace_reallocate@AEBV?$point_data@H@polygon@boost@@@?$vector@V?$point_data@H@polygon@boost@@V?$allocator@V?$point_data@H@polygon@boost@@@std@@@std@@QEAAPEAV?$point_data@H@polygon@boost@@QEAV234@AEBV234@@Z 000000018002df60     minkowski.obj
 0002:00007f60       $chain$4$??$_Emplace_reallocate@V?$point_data@H@polygon@boost@@@?$vector@V?$point_data@H@polygon@boost@@V?$allocator@V?$point_data@H@polygon@boost@@@std@@@std@@QEAAPEAV?$point_data@H@polygon@boost@@QEAV234@$$QEAV234@@Z 000000018002df60     minkowski.obj
 0002:00007f70       $unwind$?try_get_function@@YAPEAXW4function_id@?A0x14c33c87@@QEBDQEBW4module_id@2@2@Z 000000018002df70     libvcruntime:winapi_downlevel.obj
 0002:00007f70       $unwind$??$assign@V?$_List_const_iterator@V?$_List_val@U?$_List_simple_types@V?$polygon_data@H@polygon@boost@@@std@@@std@@@std@@X@?$list@V?$polygon_data@H@polygon@boost@@V?$allocator@V?$polygon_data@H@polygon@boost@@@std@@@std@@QEAAXV?$_List_const_iterator@V?$_List_val@U?$_List_simple_types@V?$polygon_data@H@polygon@boost@@@std@@@std@@@1@0@Z 000000018002df70     minkowski.obj
 0002:00007f70       $unwind$?try_get_function@@YAPEAXW4function_id@?A0x391cf84c@@QEBDQEBW4module_id@2@2@Z 000000018002df70     libucrt:winapi_thunks.obj
 0002:00007f8c       $unwind$?_Change_array@?$vector@HV?$allocator@H@std@@@std@@AEAAXQEAH_K1@Z 000000018002df8c     minkowski.obj
 0002:00007f8c       $unwind$?_Change_array@?$vector@V?$point_data@H@polygon@boost@@V?$allocator@V?$point_data@H@polygon@boost@@@std@@@std@@AEAAXQEAV?$point_data@H@polygon@boost@@_K1@Z 000000018002df8c     minkowski.obj
 0002:00007f8c       $unwind$?clear@?$_Tree@V?$_Tmap_traits@Vvertex_half_edge@?$scanline_base@H@polygon@boost@@PEAVactive_tail_arbitrary@?$polygon_arbitrary_formation@H@34@Vless_vertex_half_edge@234@V?$allocator@U?$pair@$$CBVvertex_half_edge@?$scanline_base@H@polygon@boost@@PEAVactive_tail_arbitrary@?$polygon_arbitrary_formation@H@34@@std@@@std@@$0A@@std@@@std@@QEAAXXZ 000000018002df8c     minkowski.obj
 0002:00007f8c       $unwind$_initterm          000000018002df8c     libucrt:initterm.obj
 0002:00007f8c       $unwind$?setSBCS@@YAXPEAU__crt_multibyte_data@@@Z 000000018002df8c     libucrt:mbctype.obj
 0002:00007f8c       $unwind$__acrt_free_locale 000000018002df8c     libucrt:locale_refcounting.obj
 0002:00007f8c       $unwind$_seh_filter_exe    000000018002df8c     libucrt:exception_filter.obj
 0002:00007f8c       $unwind$__scrt_dllmain_exception_filter 000000018002df8c     LIBCMT:utility.obj
 0002:00007f8c       $unwind$_recalloc_base     000000018002df8c     libucrt:recalloc.obj
 0002:00007f8c       $unwind$__acrt_lowio_create_handle_array 000000018002df8c     libucrt:osfinfo.obj
 0002:00007f8c       $unwind$?_Change_array@?$vector@U?$pair@HH@std@@V?$allocator@U?$pair@HH@std@@@2@@std@@AEAAXQEAU?$pair@HH@2@_K1@Z 000000018002df8c     minkowski.obj
 0002:00007f8c       $unwind$?_Change_array@?$vector@PEAVactive_tail_arbitrary@?$polygon_arbitrary_formation@H@polygon@boost@@V?$allocator@PEAVactive_tail_arbitrary@?$polygon_arbitrary_formation@H@polygon@boost@@@std@@@std@@AEAAXQEAPEAVactive_tail_arbitrary@?$polygon_arbitrary_formation@H@polygon@boost@@_K1@Z 000000018002df8c     minkowski.obj
 0002:00007fa0       $unwind$??$_Insert_at@AEBV?$point_data@H@polygon@boost@@U_Not_a_node_tag@std@@@?$_Tree@V?$_Tset_traits@V?$point_data@H@polygon@boost@@U?$less@V?$point_data@H@polygon@boost@@@std@@V?$allocator@V?$point_data@H@polygon@boost@@@5@$0A@@std@@@std@@IEAA?AV?$_Tree_const_iterator@V?$_Tree_val@U?$_Tree_simple_types@V?$point_data@H@polygon@boost@@@std@@@std@@@1@_NPEAU?$_Tree_node@V?$point_data@H@polygon@boost@@PEAX@1@AEBV?$point_data@H@polygon@boost@@U_Not_a_node_tag@1@@Z 000000018002dfa0     minkowski.obj
 0002:00007fa0       $unwind$??$_Assign_range@PEAV?$point_data@H@polygon@boost@@@?$vector@V?$point_data@H@polygon@boost@@V?$allocator@V?$point_data@H@polygon@boost@@@std@@@std@@AEAAXPEAV?$point_data@H@polygon@boost@@0Uforward_iterator_tag@1@@Z 000000018002dfa0     minkowski.obj
 0002:00007fa0       $unwind$??$_Insert_at@AEBV?$point_data@H@polygon@boost@@U_Not_a_node_tag@std@@@?$_Tree@V?$_Tset_traits@V?$point_data@H@polygon@boost@@Vless_point@?$scanline_base@H@23@V?$allocator@V?$point_data@H@polygon@boost@@@std@@$0A@@std@@@std@@IEAA?AV?$_Tree_const_iterator@V?$_Tree_val@U?$_Tree_simple_types@V?$point_data@H@polygon@boost@@@std@@@std@@@1@_NPEAU?$_Tree_node@V?$point_data@H@polygon@boost@@PEAX@1@AEBV?$point_data@H@polygon@boost@@U_Not_a_node_tag@1@@Z 000000018002dfa0     minkowski.obj
 0002:00007fa0       $unwind$?_Change_array@?$vector@U?$pair@V?$point_data@H@polygon@boost@@H@std@@V?$allocator@U?$pair@V?$point_data@H@polygon@boost@@H@std@@@2@@std@@AEAAXQEAU?$pair@V?$point_data@H@polygon@boost@@H@2@_K1@Z 000000018002dfa0     minkowski.obj
 0002:00007fa0       $unwind$?_Change_array@?$vector@V?$polygon_data@H@polygon@boost@@V?$allocator@V?$polygon_data@H@polygon@boost@@@std@@@std@@AEAAXQEAV?$polygon_data@H@polygon@boost@@_K1@Z 000000018002dfa0     minkowski.obj
 0002:00007fa0       $unwind$?_Change_array@?$vector@U?$pair@HU?$pair@_K_K@std@@@std@@V?$allocator@U?$pair@HU?$pair@_K_K@std@@@std@@@2@@std@@AEAAXQEAU?$pair@HU?$pair@_K_K@std@@@2@_K1@Z 000000018002dfa0     minkowski.obj
 0002:00007fa0       $unwind$?addHole@active_tail_arbitrary@?$polygon_arbitrary_formation@H@polygon@boost@@QEAAPEAV1234@PEAV1234@@Z 000000018002dfa0     minkowski.obj
 0002:00007fa0       $unwind$??$_Insert@AEBV?$point_data@H@polygon@boost@@@?$list@V?$point_data@H@polygon@boost@@V?$allocator@V?$point_data@H@polygon@boost@@@std@@@std@@QEAAXV?$_List_unchecked_const_iterator@V?$_List_val@U?$_List_simple_types@V?$point_data@H@polygon@boost@@@std@@@std@@U_Iterator_base0@2@@1@AEBV?$point_data@H@polygon@boost@@@Z 000000018002dfa0     minkowski.obj
 0002:00007fa0       $unwind$_free_osfhnd       000000018002dfa0     libucrt:osfinfo.obj
 0002:00007fa0       $unwind$?_Change_array@?$vector@U?$pair@U?$pair@V?$point_data@H@polygon@boost@@V123@@std@@H@std@@V?$allocator@U?$pair@U?$pair@V?$point_data@H@polygon@boost@@V123@@std@@H@std@@@2@@std@@AEAAXQEAU?$pair@U?$pair@V?$point_data@H@polygon@boost@@V123@@std@@H@2@_K1@Z 000000018002dfa0     minkowski.obj
 0002:00007fa0       $unwind$?_Change_array@?$vector@U?$pair@U?$pair@V?$point_data@H@polygon@boost@@V123@@std@@V?$vector@U?$pair@HH@std@@V?$allocator@U?$pair@HH@std@@@2@@2@@std@@V?$allocator@U?$pair@U?$pair@V?$point_data@H@polygon@boost@@V123@@std@@V?$vector@U?$pair@HH@std@@V?$allocator@U?$pair@HH@std@@@2@@2@@std@@@2@@std@@AEAAXQEAU?$pair@U?$pair@V?$point_data@H@polygon@boost@@V123@@std@@V?$vector@U?$pair@HH@std@@V?$allocator@U?$pair@HH@std@@@2@@2@@2@_K1@Z 000000018002dfa0     minkowski.obj
 0002:00007fa0       $unwind$__std_exception_copy 000000018002dfa0     libvcruntime:std_exception.obj
 0002:00007fb4       $unwind$?_Umove@?$vector@V?$polygon_data@H@polygon@boost@@V?$allocator@V?$polygon_data@H@polygon@boost@@@std@@@std@@AEAAPEAV?$polygon_data@H@polygon@boost@@PEAV345@00@Z 000000018002dfb4     minkowski.obj
 0002:00007fb4       $unwind$?_Umove_if_noexcept@?$vector@V?$polygon_data@H@polygon@boost@@V?$allocator@V?$polygon_data@H@polygon@boost@@@std@@@std@@AEAAXPEAV?$polygon_data@H@polygon@boost@@00@Z 000000018002dfb4     minkowski.obj
 0002:00007fc0       $chain$2$?_Umove_if_noexcept@?$vector@V?$polygon_data@H@polygon@boost@@V?$allocator@V?$polygon_data@H@polygon@boost@@@std@@@std@@AEAAXPEAV?$polygon_data@H@polygon@boost@@00@Z 000000018002dfc0     minkowski.obj
 0002:00007fdc       $chain$3$?_Umove_if_noexcept@?$vector@V?$polygon_data@H@polygon@boost@@V?$allocator@V?$polygon_data@H@polygon@boost@@@std@@@std@@AEAAXPEAV?$polygon_data@H@polygon@boost@@00@Z 000000018002dfdc     minkowski.obj
 0002:00007fec       $unwind$??$convolve_two_point_sequences@V?$_Vector_const_iterator@V?$_Vector_val@U?$_Simple_types@V?$point_data@H@polygon@boost@@@std@@@std@@@std@@V12@@@YAXAEAV?$polygon_set_data@H@polygon@boost@@V?$_Vector_const_iterator@V?$_Vector_val@U?$_Simple_types@V?$point_data@H@polygon@boost@@@std@@@std@@@std@@111@Z 000000018002dfec     minkowski.obj
 0002:00007ffc       $chain$0$??$convolve_two_point_sequences@V?$_Vector_const_iterator@V?$_Vector_val@U?$_Simple_types@V?$point_data@H@polygon@boost@@@std@@@std@@@std@@V12@@@YAXAEAV?$polygon_set_data@H@polygon@boost@@V?$_Vector_const_iterator@V?$_Vector_val@U?$_Simple_types@V?$point_data@H@polygon@boost@@@std@@@std@@@std@@111@Z 000000018002dffc     minkowski.obj
 0002:00008010       $chain$2$??$convolve_two_point_sequences@V?$_Vector_const_iterator@V?$_Vector_val@U?$_Simple_types@V?$point_data@H@polygon@boost@@@std@@@std@@@std@@V12@@@YAXAEAV?$polygon_set_data@H@polygon@boost@@V?$_Vector_const_iterator@V?$_Vector_val@U?$_Simple_types@V?$point_data@H@polygon@boost@@@std@@@std@@@std@@111@Z 000000018002e010     minkowski.obj
 0002:00008028       $chain$4$??$convolve_two_point_sequences@V?$_Vector_const_iterator@V?$_Vector_val@U?$_Simple_types@V?$point_data@H@polygon@boost@@@std@@@std@@@std@@V12@@@YAXAEAV?$polygon_set_data@H@polygon@boost@@V?$_Vector_const_iterator@V?$_Vector_val@U?$_Simple_types@V?$point_data@H@polygon@boost@@@std@@@std@@@std@@111@Z 000000018002e028     minkowski.obj
 0002:00008040       $chain$5$??$convolve_two_point_sequences@V?$_Vector_const_iterator@V?$_Vector_val@U?$_Simple_types@V?$point_data@H@polygon@boost@@@std@@@std@@@std@@V12@@@YAXAEAV?$polygon_set_data@H@polygon@boost@@V?$_Vector_const_iterator@V?$_Vector_val@U?$_Simple_types@V?$point_data@H@polygon@boost@@@std@@@std@@@std@@111@Z 000000018002e040     minkowski.obj
 0002:00008050       $chain$6$??$convolve_two_point_sequences@V?$_Vector_const_iterator@V?$_Vector_val@U?$_Simple_types@V?$point_data@H@polygon@boost@@@std@@@std@@@std@@V12@@@YAXAEAV?$polygon_set_data@H@polygon@boost@@V?$_Vector_const_iterator@V?$_Vector_val@U?$_Simple_types@V?$point_data@H@polygon@boost@@@std@@@std@@@std@@111@Z 000000018002e050     minkowski.obj
 0002:00008060       $chain$7$??$convolve_two_point_sequences@V?$_Vector_const_iterator@V?$_Vector_val@U?$_Simple_types@V?$point_data@H@polygon@boost@@@std@@@std@@@std@@V12@@@YAXAEAV?$polygon_set_data@H@polygon@boost@@V?$_Vector_const_iterator@V?$_Vector_val@U?$_Simple_types@V?$point_data@H@polygon@boost@@@std@@@std@@@std@@111@Z 000000018002e060     minkowski.obj
 0002:00008070       $chain$8$??$convolve_two_point_sequences@V?$_Vector_const_iterator@V?$_Vector_val@U?$_Simple_types@V?$point_data@H@polygon@boost@@@std@@@std@@@std@@V12@@@YAXAEAV?$polygon_set_data@H@polygon@boost@@V?$_Vector_const_iterator@V?$_Vector_val@U?$_Simple_types@V?$point_data@H@polygon@boost@@@std@@@std@@@std@@111@Z 000000018002e070     minkowski.obj
 0002:0000808c       $unwind$??$convolve@V?$polygon_data@H@polygon@boost@@V?$point_data@H@23@@polygon@boost@@YAAEAV?$polygon_data@H@01@AEAV201@AEBV?$point_data@H@01@@Z 000000018002e08c     minkowski.obj
 0002:000080a0       $unwind$??$_Insert_range@V?$_List_const_iterator@V?$_List_val@U?$_List_simple_types@V?$polygon_data@H@polygon@boost@@@std@@@std@@@std@@@?$list@V?$polygon_data@H@polygon@boost@@V?$allocator@V?$polygon_data@H@polygon@boost@@@std@@@std@@QEAAXV?$_List_unchecked_const_iterator@V?$_List_val@U?$_List_simple_types@V?$polygon_data@H@polygon@boost@@@std@@@std@@U_Iterator_base0@2@@1@V?$_List_const_iterator@V?$_List_val@U?$_List_simple_types@V?$polygon_data@H@polygon@boost@@@std@@@std@@@1@1Uforward_iterator_tag@1@@Z 000000018002e0a0     minkowski.obj
 0002:000080b0       $chain$3$??$_Insert_range@V?$_List_const_iterator@V?$_List_val@U?$_List_simple_types@V?$polygon_data@H@polygon@boost@@@std@@@std@@@std@@@?$list@V?$polygon_data@H@polygon@boost@@V?$allocator@V?$polygon_data@H@polygon@boost@@@std@@@std@@QEAAXV?$_List_unchecked_const_iterator@V?$_List_val@U?$_List_simple_types@V?$polygon_data@H@polygon@boost@@@std@@@std@@U_Iterator_base0@2@@1@V?$_List_const_iterator@V?$_List_val@U?$_List_simple_types@V?$polygon_data@H@polygon@boost@@@std@@@std@@@1@1Uforward_iterator_tag@1@@Z 000000018002e0b0     minkowski.obj
 0002:000080d0       $chain$4$??$_Insert_range@V?$_List_const_iterator@V?$_List_val@U?$_List_simple_types@V?$polygon_data@H@polygon@boost@@@std@@@std@@@std@@@?$list@V?$polygon_data@H@polygon@boost@@V?$allocator@V?$polygon_data@H@polygon@boost@@@std@@@std@@QEAAXV?$_List_unchecked_const_iterator@V?$_List_val@U?$_List_simple_types@V?$polygon_data@H@polygon@boost@@@std@@@std@@U_Iterator_base0@2@@1@V?$_List_const_iterator@V?$_List_val@U?$_List_simple_types@V?$polygon_data@H@polygon@boost@@@std@@@std@@@1@1Uforward_iterator_tag@1@@Z 000000018002e0d0     minkowski.obj
 0002:000080e0       $chain$5$??$_Insert_range@V?$_List_const_iterator@V?$_List_val@U?$_List_simple_types@V?$polygon_data@H@polygon@boost@@@std@@@std@@@std@@@?$list@V?$polygon_data@H@polygon@boost@@V?$allocator@V?$polygon_data@H@polygon@boost@@@std@@@std@@QEAAXV?$_List_unchecked_const_iterator@V?$_List_val@U?$_List_simple_types@V?$polygon_data@H@polygon@boost@@@std@@@std@@U_Iterator_base0@2@@1@V?$_List_const_iterator@V?$_List_val@U?$_List_simple_types@V?$polygon_data@H@polygon@boost@@@std@@@std@@@1@1Uforward_iterator_tag@1@@Z 000000018002e0e0     minkowski.obj
 0002:00008100       $unwind$??$_Emplace_reallocate@AEBV?$polygon_data@H@polygon@boost@@@?$vector@V?$polygon_data@H@polygon@boost@@V?$allocator@V?$polygon_data@H@polygon@boost@@@std@@@std@@QEAAPEAV?$polygon_data@H@polygon@boost@@QEAV234@AEBV234@@Z 000000018002e100     minkowski.obj
 0002:00008110       $chain$3$??$_Emplace_reallocate@AEBV?$polygon_data@H@polygon@boost@@@?$vector@V?$polygon_data@H@polygon@boost@@V?$allocator@V?$polygon_data@H@polygon@boost@@@std@@@std@@QEAAPEAV?$polygon_data@H@polygon@boost@@QEAV234@AEBV234@@Z 000000018002e110     minkowski.obj
 0002:00008130       $chain$4$??$_Emplace_reallocate@AEBV?$polygon_data@H@polygon@boost@@@?$vector@V?$polygon_data@H@polygon@boost@@V?$allocator@V?$polygon_data@H@polygon@boost@@@std@@@std@@QEAAPEAV?$polygon_data@H@polygon@boost@@QEAV234@AEBV234@@Z 000000018002e130     minkowski.obj
 0002:00008140       $chain$5$??$_Emplace_reallocate@AEBV?$polygon_data@H@polygon@boost@@@?$vector@V?$polygon_data@H@polygon@boost@@V?$allocator@V?$polygon_data@H@polygon@boost@@@std@@@std@@QEAAPEAV?$polygon_data@H@polygon@boost@@QEAV234@AEBV234@@Z 000000018002e140     minkowski.obj
 0002:0000815c       $unwind$??$_Destroy_range@V?$allocator@V?$polygon_data@H@polygon@boost@@@std@@@std@@YAXPEAV?$polygon_data@H@polygon@boost@@0AEAV?$allocator@V?$polygon_data@H@polygon@boost@@@0@@Z 000000018002e15c     minkowski.obj
 0002:00008168       $chain$0$??$_Destroy_range@V?$allocator@V?$polygon_data@H@polygon@boost@@@std@@@std@@YAXPEAV?$polygon_data@H@polygon@boost@@0AEAV?$allocator@V?$polygon_data@H@polygon@boost@@@0@@Z 000000018002e168     minkowski.obj
 0002:0000817c       $chain$1$??$_Destroy_range@V?$allocator@V?$polygon_data@H@polygon@boost@@@std@@@std@@YAXPEAV?$polygon_data@H@polygon@boost@@0AEAV?$allocator@V?$polygon_data@H@polygon@boost@@@0@@Z 000000018002e17c     minkowski.obj
 0002:0000818c       $chain$2$??$_Destroy_range@V?$allocator@V?$polygon_data@H@polygon@boost@@@std@@@std@@YAXPEAV?$polygon_data@H@polygon@boost@@0AEAV?$allocator@V?$polygon_data@H@polygon@boost@@@0@@Z 000000018002e18c     minkowski.obj
 0002:000081a0       $chain$2$?_Umove@?$vector@V?$polygon_data@H@polygon@boost@@V?$allocator@V?$polygon_data@H@polygon@boost@@@std@@@std@@AEAAPEAV?$polygon_data@H@polygon@boost@@PEAV345@00@Z 000000018002e1a0     minkowski.obj
 0002:000081bc       $chain$3$?_Umove@?$vector@V?$polygon_data@H@polygon@boost@@V?$allocator@V?$polygon_data@H@polygon@boost@@@std@@@std@@AEAAPEAV?$polygon_data@H@polygon@boost@@PEAV345@00@Z 000000018002e1bc     minkowski.obj
 0002:000081cc       $unwind$?reserve@?$vector@V?$point_data@H@polygon@boost@@V?$allocator@V?$point_data@H@polygon@boost@@@std@@@std@@QEAAX_K@Z 000000018002e1cc     minkowski.obj
 0002:000081d8       $chain$0$?reserve@?$vector@V?$point_data@H@polygon@boost@@V?$allocator@V?$point_data@H@polygon@boost@@@std@@@std@@QEAAX_K@Z 000000018002e1d8     minkowski.obj
 0002:000081ec       $chain$2$?reserve@?$vector@V?$point_data@H@polygon@boost@@V?$allocator@V?$point_data@H@polygon@boost@@@std@@@std@@QEAAX_K@Z 000000018002e1ec     minkowski.obj
 0002:00008200       $chain$3$?reserve@?$vector@V?$point_data@H@polygon@boost@@V?$allocator@V?$point_data@H@polygon@boost@@@std@@@std@@QEAAX_K@Z 000000018002e200     minkowski.obj
 0002:00008210       $unwind$??$get_fracture@V?$vector@V?$polygon_with_holes_data@H@polygon@boost@@V?$allocator@V?$polygon_with_holes_data@H@polygon@boost@@@std@@@std@@Upolygon_with_holes_concept@polygon@boost@@@?$polygon_set_data@H@polygon@boost@@AEBAXAEAV?$vector@V?$polygon_with_holes_data@H@polygon@boost@@V?$allocator@V?$polygon_with_holes_data@H@polygon@boost@@@std@@@std@@_NUpolygon_with_holes_concept@12@@Z 000000018002e210     minkowski.obj
 0002:0000822c       $unwind$??$execute_boolean_op@V?$polygon_set_data@H@polygon@boost@@V123@V?$polygon_with_holes_data@H@23@$0A@@polygon@boost@@YAXAEAV?$polygon_set_data@H@01@AEBV201@AEBV?$polygon_with_holes_data@H@01@@Z 000000018002e22c     minkowski.obj
 0002:0000824c       $unwind$??$execute_boolean_op@V?$polygon_set_data@H@polygon@boost@@V123@V?$polygon_with_holes_data@H@23@$02@polygon@boost@@YAXAEAV?$polygon_set_data@H@01@AEBV201@AEBV?$polygon_with_holes_data@H@01@@Z 000000018002e24c     minkowski.obj
 0002:0000826c       $unwind$??$_Emplace_reallocate@U?$pair@HH@std@@@?$vector@U?$pair@HH@std@@V?$allocator@U?$pair@HH@std@@@2@@std@@QEAAPEAU?$pair@HH@1@QEAU21@$$QEAU21@@Z 000000018002e26c     minkowski.obj
 0002:0000826c       $unwind$??$_Emplace_reallocate@AEBU?$pair@HH@std@@@?$vector@U?$pair@HH@std@@V?$allocator@U?$pair@HH@std@@@2@@std@@QEAAPEAU?$pair@HH@1@QEAU21@AEBU21@@Z 000000018002e26c     minkowski.obj
 0002:0000827c       $chain$2$??$_Emplace_reallocate@AEBU?$pair@HH@std@@@?$vector@U?$pair@HH@std@@V?$allocator@U?$pair@HH@std@@@2@@std@@QEAAPEAU?$pair@HH@1@QEAU21@AEBU21@@Z 000000018002e27c     minkowski.obj
 0002:0000827c       $chain$2$??$_Emplace_reallocate@U?$pair@HH@std@@@?$vector@U?$pair@HH@std@@V?$allocator@U?$pair@HH@std@@@2@@std@@QEAAPEAU?$pair@HH@1@QEAU21@$$QEAU21@@Z 000000018002e27c     minkowski.obj
 0002:00008298       $chain$4$??$_Emplace_reallocate@U?$pair@HH@std@@@?$vector@U?$pair@HH@std@@V?$allocator@U?$pair@HH@std@@@2@@std@@QEAAPEAU?$pair@HH@1@QEAU21@$$QEAU21@@Z 000000018002e298     minkowski.obj
 0002:00008298       $chain$4$??$_Emplace_reallocate@AEBU?$pair@HH@std@@@?$vector@U?$pair@HH@std@@V?$allocator@U?$pair@HH@std@@@2@@std@@QEAAPEAU?$pair@HH@1@QEAU21@AEBU21@@Z 000000018002e298     minkowski.obj
 0002:000082b4       $chain$5$??$_Emplace_reallocate@U?$pair@HH@std@@@?$vector@U?$pair@HH@std@@V?$allocator@U?$pair@HH@std@@@2@@std@@QEAAPEAU?$pair@HH@1@QEAU21@$$QEAU21@@Z 000000018002e2b4     minkowski.obj
 0002:000082b4       $chain$5$??$_Emplace_reallocate@AEBU?$pair@HH@std@@@?$vector@U?$pair@HH@std@@V?$allocator@U?$pair@HH@std@@@2@@std@@QEAAPEAU?$pair@HH@1@QEAU21@AEBU21@@Z 000000018002e2b4     minkowski.obj
 0002:000082c4       $unwind$?_Umove@?$vector@V?$polygon_with_holes_data@H@polygon@boost@@V?$allocator@V?$polygon_with_holes_data@H@polygon@boost@@@std@@@std@@AEAAPEAV?$polygon_with_holes_data@H@polygon@boost@@PEAV345@00@Z 000000018002e2c4     minkowski.obj
 0002:000082c4       $unwind$__acrt_execute_initializers 000000018002e2c4     libucrt:shared_initialization.obj
 0002:000082c4       $unwind$??$common_lseek_nolock@_J@@YA_JH_JH@Z 000000018002e2c4     libucrt:lseek.obj
 0002:000082c4       $unwind$??0_LocaleUpdate@@QEAA@QEAU__crt_locale_pointers@@@Z 000000018002e2c4     libucrt:stricmp.obj
 0002:000082c4       $unwind$__vcrt_getptd_noexit 000000018002e2c4     libvcruntime:per_thread_data.obj
 0002:000082c4       $unwind$??0?$vector@U?$pair@HH@std@@V?$allocator@U?$pair@HH@std@@@2@@std@@QEAA@AEBV01@@Z 000000018002e2c4     minkowski.obj
 0002:000082c4       $unwind$__acrt_InitializeCriticalSectionEx 000000018002e2c4     libucrt:winapi_thunks.obj
 0002:000082c4       $unwind$?free_crt_array_internal@@YAXQEAPEBX_K@Z 000000018002e2c4     libucrt:inittime.obj
 0002:000082c4       $unwind$__acrt_getptd      000000018002e2c4     libucrt:per_thread_data.obj
 0002:000082c4       $unwind$__acrt_stdio_flush_nolock 000000018002e2c4     libucrt:fflush.obj
 0002:000082c4       $unwind$__vcrt_InitializeCriticalSectionEx 000000018002e2c4     libvcruntime:winapi_downlevel.obj
 0002:000082c4       $unwind$_DllMainCRTStartup 000000018002e2c4     LIBCMT:dll_dllmain.obj
 0002:000082c4       $unwind$__acrt_getptd_noexit 000000018002e2c4     libucrt:per_thread_data.obj
 0002:000082c4       $unwind$?erase@?$_Tree@V?$_Tmap_traits@U?$pair@V?$point_data@H@polygon@boost@@V123@@std@@V?$vector@U?$pair@HH@std@@V?$allocator@U?$pair@HH@std@@@2@@2@Vless_half_edge@?$scanline_base@H@polygon@boost@@V?$allocator@U?$pair@$$CBU?$pair@V?$point_data@H@polygon@boost@@V123@@std@@V?$vector@U?$pair@HH@std@@V?$allocator@U?$pair@HH@std@@@2@@2@@std@@@2@$0A@@std@@@std@@QEAA?AV?$_Tree_iterator@V?$_Tree_val@U?$_Tree_simple_types@U?$pair@$$CBU?$pair@V?$point_data@H@polygon@boost@@V123@@std@@V?$vector@U?$pair@HH@std@@V?$allocator@U?$pair@HH@std@@@2@@2@@std@@@std@@@std@@@2@V?$_Tree_const_iterator@V?$_Tree_val@U?$_Tree_simple_types@U?$pair@$$CBU?$pair@V?$point_data@H@polygon@boost@@V123@@std@@V?$vector@U?$pair@HH@std@@V?$allocator@U?$pair@HH@std@@@2@@2@@std@@@std@@@std@@@2@@Z 000000018002e2c4     minkowski.obj
 0002:000082c4       $unwind$?_Erase@?$_Tree@V?$_Tmap_traits@HV?$vector@U?$pair@U?$pair@V?$point_data@H@polygon@boost@@V123@@std@@H@std@@V?$allocator@U?$pair@U?$pair@V?$point_data@H@polygon@boost@@V123@@std@@H@std@@@2@@std@@U?$less@H@2@V?$allocator@U?$pair@$$CBHV?$vector@U?$pair@U?$pair@V?$point_data@H@polygon@boost@@V123@@std@@H@std@@V?$allocator@U?$pair@U?$pair@V?$point_data@H@polygon@boost@@V123@@std@@H@std@@@2@@std@@@std@@@2@$0A@@std@@@std@@IEAAXPEAU?$_Tree_node@U?$pair@$$CBHV?$vector@U?$pair@U?$pair@V?$point_data@H@polygon@boost@@V123@@std@@H@std@@V?$allocator@U?$pair@U?$pair@V?$point_data@H@polygon@boost@@V123@@std@@H@std@@@2@@std@@@std@@PEAX@2@@Z 000000018002e2c4     minkowski.obj
 0002:000082c4       $unwind$_exception_enabled 000000018002e2c4     libucrt:libm_error.obj
 0002:000082c4       $unwind$?_Erase@?$_Tree@V?$_Tset_traits@V?$point_data@H@polygon@boost@@Vless_point@?$scanline_base@H@23@V?$allocator@V?$point_data@H@polygon@boost@@@std@@$0A@@std@@@std@@IEAAXPEAU?$_Tree_node@V?$point_data@H@polygon@boost@@PEAX@2@@Z 000000018002e2c4     minkowski.obj
 0002:000082c4       $unwind$?_Erase@?$_Tree@V?$_Tmap_traits@Vvertex_half_edge@?$scanline_base@H@polygon@boost@@PEAVactive_tail_arbitrary@?$polygon_arbitrary_formation@H@34@Vless_vertex_half_edge@234@V?$allocator@U?$pair@$$CBVvertex_half_edge@?$scanline_base@H@polygon@boost@@PEAVactive_tail_arbitrary@?$polygon_arbitrary_formation@H@34@@std@@@std@@$0A@@std@@@std@@IEAAXPEAU?$_Tree_node@U?$pair@$$CBVvertex_half_edge@?$scanline_base@H@polygon@boost@@PEAVactive_tail_arbitrary@?$polygon_arbitrary_formation@H@34@@std@@PEAX@2@@Z 000000018002e2c4     minkowski.obj
 0002:000082c4       $unwind$??1?$polygon_45_set_data@H@polygon@boost@@QEAA@XZ 000000018002e2c4     minkowski.obj
 0002:000082c4       $unwind$?_Erase@?$_Tree@V?$_Tset_traits@V?$point_data@H@polygon@boost@@U?$less@V?$point_data@H@polygon@boost@@@std@@V?$allocator@V?$point_data@H@polygon@boost@@@5@$0A@@std@@@std@@IEAAXPEAU?$_Tree_node@V?$point_data@H@polygon@boost@@PEAX@2@@Z 000000018002e2c4     minkowski.obj
 0002:000082d4       $unwind$?reserve@?$vector@U?$pair@HH@std@@V?$allocator@U?$pair@HH@std@@@2@@std@@QEAAX_K@Z 000000018002e2d4     minkowski.obj
 0002:000082d4       $unwind$?reserve@?$vector@HV?$allocator@H@std@@@std@@QEAAX_K@Z 000000018002e2d4     minkowski.obj
 0002:000082e0       $chain$1$?reserve@?$vector@U?$pair@HH@std@@V?$allocator@U?$pair@HH@std@@@2@@std@@QEAAX_K@Z 000000018002e2e0     minkowski.obj
 0002:000082f8       $chain$3$?reserve@?$vector@U?$pair@HH@std@@V?$allocator@U?$pair@HH@std@@@2@@std@@QEAAX_K@Z 000000018002e2f8     minkowski.obj
 0002:00008310       $chain$4$?reserve@?$vector@U?$pair@HH@std@@V?$allocator@U?$pair@HH@std@@@2@@std@@QEAAX_K@Z 000000018002e310     minkowski.obj
 0002:00008320       $unwind$?clean@?$polygon_set_data@H@polygon@boost@@QEBAXXZ 000000018002e320     minkowski.obj
 0002:00008334       $unwind$??$insert_vertex_sequence@V?$_Vector_const_iterator@V?$_Vector_val@U?$_Simple_types@V?$point_data@H@polygon@boost@@@std@@@std@@@std@@@?$polygon_set_data@H@polygon@boost@@QEAAXV?$_Vector_const_iterator@V?$_Vector_val@U?$_Simple_types@V?$point_data@H@polygon@boost@@@std@@@std@@@std@@0Vdirection_1d@12@_N@Z 000000018002e334     minkowski.obj
 0002:00008348       $chain$1$??$insert_vertex_sequence@V?$_Vector_const_iterator@V?$_Vector_val@U?$_Simple_types@V?$point_data@H@polygon@boost@@@std@@@std@@@std@@@?$polygon_set_data@H@polygon@boost@@QEAAXV?$_Vector_const_iterator@V?$_Vector_val@U?$_Simple_types@V?$point_data@H@polygon@boost@@@std@@@std@@@std@@0Vdirection_1d@12@_N@Z 000000018002e348     minkowski.obj
 0002:00008360       $chain$4$??$insert_vertex_sequence@V?$_Vector_const_iterator@V?$_Vector_val@U?$_Simple_types@V?$point_data@H@polygon@boost@@@std@@@std@@@std@@@?$polygon_set_data@H@polygon@boost@@QEAAXV?$_Vector_const_iterator@V?$_Vector_val@U?$_Simple_types@V?$point_data@H@polygon@boost@@@std@@@std@@@std@@0Vdirection_1d@12@_N@Z 000000018002e360     minkowski.obj
 0002:0000837c       $chain$5$??$insert_vertex_sequence@V?$_Vector_const_iterator@V?$_Vector_val@U?$_Simple_types@V?$point_data@H@polygon@boost@@@std@@@std@@@std@@@?$polygon_set_data@H@polygon@boost@@QEAAXV?$_Vector_const_iterator@V?$_Vector_val@U?$_Simple_types@V?$point_data@H@polygon@boost@@@std@@@std@@@std@@0Vdirection_1d@12@_N@Z 000000018002e37c     minkowski.obj
 0002:0000838c       $chain$6$??$insert_vertex_sequence@V?$_Vector_const_iterator@V?$_Vector_val@U?$_Simple_types@V?$point_data@H@polygon@boost@@@std@@@std@@@std@@@?$polygon_set_data@H@polygon@boost@@QEAAXV?$_Vector_const_iterator@V?$_Vector_val@U?$_Simple_types@V?$point_data@H@polygon@boost@@@std@@@std@@@std@@0Vdirection_1d@12@_N@Z 000000018002e38c     minkowski.obj
 0002:0000839c       $unwind$??$insert_into_view_arg@V?$polygon_set_data@H@polygon@boost@@V?$polygon_with_holes_data@H@23@@polygon@boost@@YAXAEAV?$polygon_set_data@H@01@AEBV?$polygon_with_holes_data@H@01@@Z 000000018002e39c     minkowski.obj
 0002:000083a8       $chain$2$??$insert_into_view_arg@V?$polygon_set_data@H@polygon@boost@@V?$polygon_with_holes_data@H@23@@polygon@boost@@YAXAEAV?$polygon_set_data@H@01@AEBV?$polygon_with_holes_data@H@01@@Z 000000018002e3a8     minkowski.obj
 0002:000083c4       $chain$3$??$insert_into_view_arg@V?$polygon_set_data@H@polygon@boost@@V?$polygon_with_holes_data@H@23@@polygon@boost@@YAXAEAV?$polygon_set_data@H@01@AEBV?$polygon_with_holes_data@H@01@@Z 000000018002e3c4     minkowski.obj
 0002:000083d4       $unwind$??$execute@V?$polygon_set_data@H@polygon@boost@@V?$_Vector_const_iterator@V?$_Vector_val@U?$_Simple_types@U?$pair@U?$pair@V?$point_data@H@polygon@boost@@V123@@std@@H@std@@@std@@@std@@@std@@V45@@?$arbitrary_boolean_op@H@polygon@boost@@QEAAXAEAV?$polygon_set_data@H@12@V?$_Vector_const_iterator@V?$_Vector_val@U?$_Simple_types@U?$pair@U?$pair@V?$point_data@H@polygon@boost@@V123@@std@@H@std@@@std@@@std@@@std@@111H@Z 000000018002e3d4     minkowski.obj
 0002:000083ec       $chain$2$??$execute@V?$polygon_set_data@H@polygon@boost@@V?$_Vector_const_iterator@V?$_Vector_val@U?$_Simple_types@U?$pair@U?$pair@V?$point_data@H@polygon@boost@@V123@@std@@H@std@@@std@@@std@@@std@@V45@@?$arbitrary_boolean_op@H@polygon@boost@@QEAAXAEAV?$polygon_set_data@H@12@V?$_Vector_const_iterator@V?$_Vector_val@U?$_Simple_types@U?$pair@U?$pair@V?$point_data@H@polygon@boost@@V123@@std@@H@std@@@std@@@std@@@std@@111H@Z 000000018002e3ec     minkowski.obj
 0002:00008408       $chain$3$??$execute@V?$polygon_set_data@H@polygon@boost@@V?$_Vector_const_iterator@V?$_Vector_val@U?$_Simple_types@U?$pair@U?$pair@V?$point_data@H@polygon@boost@@V123@@std@@H@std@@@std@@@std@@@std@@V45@@?$arbitrary_boolean_op@H@polygon@boost@@QEAAXAEAV?$polygon_set_data@H@12@V?$_Vector_const_iterator@V?$_Vector_val@U?$_Simple_types@U?$pair@U?$pair@V?$point_data@H@polygon@boost@@V123@@std@@H@std@@@std@@@std@@@std@@111H@Z 000000018002e408     minkowski.obj
 0002:00008418       $chain$4$??$execute@V?$polygon_set_data@H@polygon@boost@@V?$_Vector_const_iterator@V?$_Vector_val@U?$_Simple_types@U?$pair@U?$pair@V?$point_data@H@polygon@boost@@V123@@std@@H@std@@@std@@@std@@@std@@V45@@?$arbitrary_boolean_op@H@polygon@boost@@QEAAXAEAV?$polygon_set_data@H@12@V?$_Vector_const_iterator@V?$_Vector_val@U?$_Simple_types@U?$pair@U?$pair@V?$point_data@H@polygon@boost@@V123@@std@@H@std@@@std@@@std@@@std@@111H@Z 000000018002e418     minkowski.obj
 0002:00008434       $unwind$??$_Assign_range@PEAU?$pair@HH@std@@@?$vector@U?$pair@HH@std@@V?$allocator@U?$pair@HH@std@@@2@@std@@AEAAXPEAU?$pair@HH@1@0Uforward_iterator_tag@1@@Z 000000018002e434     minkowski.obj
 0002:00008434       $unwind$??$set@V?$_Vector_const_iterator@V?$_Vector_val@U?$_Simple_types@U?$pair@U?$pair@V?$point_data@H@polygon@boost@@V123@@std@@H@std@@@std@@@std@@@std@@@?$polygon_set_data@H@polygon@boost@@QEAAXV?$_Vector_const_iterator@V?$_Vector_val@U?$_Simple_types@U?$pair@U?$pair@V?$point_data@H@polygon@boost@@V123@@std@@H@std@@@std@@@std@@@std@@0@Z 000000018002e434     minkowski.obj
 0002:0000844c       $unwind$??$_Emplace_reallocate@Vvertex_half_edge@?$scanline_base@H@polygon@boost@@@?$vector@Vvertex_half_edge@?$scanline_base@H@polygon@boost@@V?$allocator@Vvertex_half_edge@?$scanline_base@H@polygon@boost@@@std@@@std@@QEAAPEAVvertex_half_edge@?$scanline_base@H@polygon@boost@@QEAV2345@$$QEAV2345@@Z 000000018002e44c     minkowski.obj
 0002:0000844c       $unwind$??$_Emplace_reallocate@U?$pair@U?$pair@V?$point_data@H@polygon@boost@@V123@@std@@U?$pair@HH@2@@std@@@?$vector@U?$pair@U?$pair@V?$point_data@H@polygon@boost@@V123@@std@@U?$pair@HH@2@@std@@V?$allocator@U?$pair@U?$pair@V?$point_data@H@polygon@boost@@V123@@std@@U?$pair@HH@2@@std@@@2@@std@@QEAAPEAU?$pair@U?$pair@V?$point_data@H@polygon@boost@@V123@@std@@U?$pair@HH@2@@1@QEAU21@$$QEAU21@@Z 000000018002e44c     minkowski.obj
 0002:0000845c       $chain$2$??$_Emplace_reallocate@Vvertex_half_edge@?$scanline_base@H@polygon@boost@@@?$vector@Vvertex_half_edge@?$scanline_base@H@polygon@boost@@V?$allocator@Vvertex_half_edge@?$scanline_base@H@polygon@boost@@@std@@@std@@QEAAPEAVvertex_half_edge@?$scanline_base@H@polygon@boost@@QEAV2345@$$QEAV2345@@Z 000000018002e45c     minkowski.obj
 0002:00008478       $chain$3$??$_Emplace_reallocate@Vvertex_half_edge@?$scanline_base@H@polygon@boost@@@?$vector@Vvertex_half_edge@?$scanline_base@H@polygon@boost@@V?$allocator@Vvertex_half_edge@?$scanline_base@H@polygon@boost@@@std@@@std@@QEAAPEAVvertex_half_edge@?$scanline_base@H@polygon@boost@@QEAV2345@$$QEAV2345@@Z 000000018002e478     minkowski.obj
 0002:00008488       $chain$4$??$_Emplace_reallocate@Vvertex_half_edge@?$scanline_base@H@polygon@boost@@@?$vector@Vvertex_half_edge@?$scanline_base@H@polygon@boost@@V?$allocator@Vvertex_half_edge@?$scanline_base@H@polygon@boost@@@std@@@std@@QEAAPEAVvertex_half_edge@?$scanline_base@H@polygon@boost@@QEAV2345@$$QEAV2345@@Z 000000018002e488     minkowski.obj
 0002:000084a4       $unwind$??0?$scanline@HHV?$vector@HV?$allocator@H@std@@@std@@@polygon@boost@@QEAA@XZ 000000018002e4a4     minkowski.obj
 0002:000084b8       $unwind$?erase@?$_Tree@V?$_Tmap_traits@HV?$vector@U?$pair@U?$pair@V?$point_data@H@polygon@boost@@V123@@std@@H@std@@V?$allocator@U?$pair@U?$pair@V?$point_data@H@polygon@boost@@V123@@std@@H@std@@@2@@std@@U?$less@H@2@V?$allocator@U?$pair@$$CBHV?$vector@U?$pair@U?$pair@V?$point_data@H@polygon@boost@@V123@@std@@H@std@@V?$allocator@U?$pair@U?$pair@V?$point_data@H@polygon@boost@@V123@@std@@H@std@@@2@@std@@@std@@@2@$0A@@std@@@std@@QEAA?AV?$_Tree_iterator@V?$_Tree_val@U?$_Tree_simple_types@U?$pair@$$CBHV?$vector@U?$pair@U?$pair@V?$point_data@H@polygon@boost@@V123@@std@@H@std@@V?$allocator@U?$pair@U?$pair@V?$point_data@H@polygon@boost@@V123@@std@@H@std@@@2@@std@@@std@@@std@@@std@@@2@V?$_Tree_const_iterator@V?$_Tree_val@U?$_Tree_simple_types@U?$pair@$$CBHV?$vector@U?$pair@U?$pair@V?$point_data@H@polygon@boost@@V123@@std@@H@std@@V?$allocator@U?$pair@U?$pair@V?$point_data@H@polygon@boost@@V123@@std@@H@std@@@2@@std@@@std@@@std@@@std@@@2@0@Z 000000018002e4b8     minkowski.obj
 0002:000084b8       $unwind$?erase@?$_Tree@V?$_Tset_traits@V?$point_data@H@polygon@boost@@Vless_point@?$scanline_base@H@23@V?$allocator@V?$point_data@H@polygon@boost@@@std@@$0A@@std@@@std@@QEAA?AV?$_Tree_const_iterator@V?$_Tree_val@U?$_Tree_simple_types@V?$point_data@H@polygon@boost@@@std@@@std@@@2@V32@0@Z 000000018002e4b8     minkowski.obj
 0002:000084d0       $unwind$?createActiveTailsAsPair@active_tail_arbitrary@?$polygon_arbitrary_formation@H@polygon@boost@@SA?AU?$pair@PEAVactive_tail_arbitrary@?$polygon_arbitrary_formation@H@polygon@boost@@PEAV1234@@std@@V?$point_data@H@34@_NPEAV1234@1@Z 000000018002e4d0     minkowski.obj
 0002:000084d0       $unwind$??R<lambda_f03950bc5685219e0bcd2087efbe011e>@@QEBAHXZ 000000018002e4d0     libucrt:onexit.obj
 0002:000084d0       $unwind$?erase@?$_Tree@V?$_Tmap_traits@U?$pair@V?$point_data@H@polygon@boost@@V123@@std@@V?$vector@U?$pair@HH@std@@V?$allocator@U?$pair@HH@std@@@2@@2@Vless_half_edge@?$scanline_base@H@polygon@boost@@V?$allocator@U?$pair@$$CBU?$pair@V?$point_data@H@polygon@boost@@V123@@std@@V?$vector@U?$pair@HH@std@@V?$allocator@U?$pair@HH@std@@@2@@2@@std@@@2@$0A@@std@@@std@@QEAA?AV?$_Tree_iterator@V?$_Tree_val@U?$_Tree_simple_types@U?$pair@$$CBU?$pair@V?$point_data@H@polygon@boost@@V123@@std@@V?$vector@U?$pair@HH@std@@V?$allocator@U?$pair@HH@std@@@2@@2@@std@@@std@@@std@@@2@V?$_Tree_const_iterator@V?$_Tree_val@U?$_Tree_simple_types@U?$pair@$$CBU?$pair@V?$point_data@H@polygon@boost@@V123@@std@@V?$vector@U?$pair@HH@std@@V?$allocator@U?$pair@HH@std@@@2@@2@@std@@@std@@@std@@@2@0@Z 000000018002e4d0     minkowski.obj
 0002:000084e8       $unwind$?_Erase@?$_Tree@V?$_Tmap_traits@U?$pair@V?$point_data@H@polygon@boost@@V123@@std@@V?$vector@U?$pair@HH@std@@V?$allocator@U?$pair@HH@std@@@2@@2@Vless_half_edge@?$scanline_base@H@polygon@boost@@V?$allocator@U?$pair@$$CBU?$pair@V?$point_data@H@polygon@boost@@V123@@std@@V?$vector@U?$pair@HH@std@@V?$allocator@U?$pair@HH@std@@@2@@2@@std@@@2@$0A@@std@@@std@@IEAAXPEAU?$_Tree_node@U?$pair@$$CBU?$pair@V?$point_data@H@polygon@boost@@V123@@std@@V?$vector@U?$pair@HH@std@@V?$allocator@U?$pair@HH@std@@@2@@2@@std@@PEAX@2@@Z 000000018002e4e8     minkowski.obj
 0002:000084f8       $chain$0$?_Erase@?$_Tree@V?$_Tmap_traits@U?$pair@V?$point_data@H@polygon@boost@@V123@@std@@V?$vector@U?$pair@HH@std@@V?$allocator@U?$pair@HH@std@@@2@@2@Vless_half_edge@?$scanline_base@H@polygon@boost@@V?$allocator@U?$pair@$$CBU?$pair@V?$point_data@H@polygon@boost@@V123@@std@@V?$vector@U?$pair@HH@std@@V?$allocator@U?$pair@HH@std@@@2@@2@@std@@@2@$0A@@std@@@std@@IEAAXPEAU?$_Tree_node@U?$pair@$$CBU?$pair@V?$point_data@H@polygon@boost@@V123@@std@@V?$vector@U?$pair@HH@std@@V?$allocator@U?$pair@HH@std@@@2@@2@@std@@PEAX@2@@Z 000000018002e4f8     minkowski.obj
 0002:0000850c       $chain$1$?_Erase@?$_Tree@V?$_Tmap_traits@U?$pair@V?$point_data@H@polygon@boost@@V123@@std@@V?$vector@U?$pair@HH@std@@V?$allocator@U?$pair@HH@std@@@2@@2@Vless_half_edge@?$scanline_base@H@polygon@boost@@V?$allocator@U?$pair@$$CBU?$pair@V?$point_data@H@polygon@boost@@V123@@std@@V?$vector@U?$pair@HH@std@@V?$allocator@U?$pair@HH@std@@@2@@2@@std@@@2@$0A@@std@@@std@@IEAAXPEAU?$_Tree_node@U?$pair@$$CBU?$pair@V?$point_data@H@polygon@boost@@V123@@std@@V?$vector@U?$pair@HH@std@@V?$allocator@U?$pair@HH@std@@@2@@2@@std@@PEAX@2@@Z 000000018002e50c     minkowski.obj
 0002:0000851c       $chain$2$?_Erase@?$_Tree@V?$_Tmap_traits@U?$pair@V?$point_data@H@polygon@boost@@V123@@std@@V?$vector@U?$pair@HH@std@@V?$allocator@U?$pair@HH@std@@@2@@2@Vless_half_edge@?$scanline_base@H@polygon@boost@@V?$allocator@U?$pair@$$CBU?$pair@V?$point_data@H@polygon@boost@@V123@@std@@V?$vector@U?$pair@HH@std@@V?$allocator@U?$pair@HH@std@@@2@@2@@std@@@2@$0A@@std@@@std@@IEAAXPEAU?$_Tree_node@U?$pair@$$CBU?$pair@V?$point_data@H@polygon@boost@@V123@@std@@V?$vector@U?$pair@HH@std@@V?$allocator@U?$pair@HH@std@@@2@@2@@std@@PEAX@2@@Z 000000018002e51c     minkowski.obj
 0002:00008530       $unwind$??$_Sort_heap_unchecked@PEAV?$point_data@H@polygon@boost@@U?$less@X@std@@@std@@YAXPEAV?$point_data@H@polygon@boost@@0U?$less@X@0@@Z 000000018002e530     minkowski.obj
 0002:00008530       $unwind$??$point_sequence_area@V?$_Vector_const_iterator@V?$_Vector_val@U?$_Simple_types@V?$point_data@H@polygon@boost@@@std@@@std@@@std@@O@polygon@boost@@YAOV?$_Vector_const_iterator@V?$_Vector_val@U?$_Simple_types@V?$point_data@H@polygon@boost@@@std@@@std@@@std@@0@Z 000000018002e530     minkowski.obj
 0002:00008538       $chain$0$??$point_sequence_area@V?$_Vector_const_iterator@V?$_Vector_val@U?$_Simple_types@V?$point_data@H@polygon@boost@@@std@@@std@@@std@@O@polygon@boost@@YAOV?$_Vector_const_iterator@V?$_Vector_val@U?$_Simple_types@V?$point_data@H@polygon@boost@@@std@@@std@@@std@@0@Z 000000018002e538     minkowski.obj
 0002:0000854c       $chain$1$??$point_sequence_area@V?$_Vector_const_iterator@V?$_Vector_val@U?$_Simple_types@V?$point_data@H@polygon@boost@@@std@@@std@@@std@@O@polygon@boost@@YAOV?$_Vector_const_iterator@V?$_Vector_val@U?$_Simple_types@V?$point_data@H@polygon@boost@@@std@@@std@@@std@@0@Z 000000018002e54c     minkowski.obj
 0002:0000855c       $unwind$??$processEvent_@V?$vector@V?$polygon_with_holes_data@H@polygon@boost@@V?$allocator@V?$polygon_with_holes_data@H@polygon@boost@@@std@@@std@@V?$_Vector_iterator@V?$_Vector_val@U?$_Simple_types@Vvertex_half_edge@?$scanline_base@H@polygon@boost@@@std@@@std@@@2@@?$polygon_arbitrary_formation@H@polygon@boost@@IEAA?AV?$_Vector_iterator@V?$_Vector_val@U?$_Simple_types@Vvertex_half_edge@?$scanline_base@H@polygon@boost@@@std@@@std@@@std@@AEAV?$vector@V?$polygon_with_holes_data@H@polygon@boost@@V?$allocator@V?$polygon_with_holes_data@H@polygon@boost@@@std@@@4@V34@1@Z 000000018002e55c     minkowski.obj
 0002:00008584       $unwind$??$insert@V?$_Vector_const_iterator@V?$_Vector_val@U?$_Simple_types@U?$pair@U?$pair@V?$point_data@H@polygon@boost@@V123@@std@@H@std@@@std@@@std@@@std@@@?$arbitrary_boolean_op@H@polygon@boost@@AEAAXV?$_Vector_const_iterator@V?$_Vector_val@U?$_Simple_types@U?$pair@U?$pair@V?$point_data@H@polygon@boost@@V123@@std@@H@std@@@std@@@std@@@std@@0H@Z 000000018002e584     minkowski.obj
 0002:00008590       $chain$0$??$insert@V?$_Vector_const_iterator@V?$_Vector_val@U?$_Simple_types@U?$pair@U?$pair@V?$point_data@H@polygon@boost@@V123@@std@@H@std@@@std@@@std@@@std@@@?$arbitrary_boolean_op@H@polygon@boost@@AEAAXV?$_Vector_const_iterator@V?$_Vector_val@U?$_Simple_types@U?$pair@U?$pair@V?$point_data@H@polygon@boost@@V123@@std@@H@std@@@std@@@std@@@std@@0H@Z 000000018002e590     minkowski.obj
 0002:000085a4       $chain$1$??$insert@V?$_Vector_const_iterator@V?$_Vector_val@U?$_Simple_types@U?$pair@U?$pair@V?$point_data@H@polygon@boost@@V123@@std@@H@std@@@std@@@std@@@std@@@?$arbitrary_boolean_op@H@polygon@boost@@AEAAXV?$_Vector_const_iterator@V?$_Vector_val@U?$_Simple_types@U?$pair@U?$pair@V?$point_data@H@polygon@boost@@V123@@std@@H@std@@@std@@@std@@@std@@0H@Z 000000018002e5a4     minkowski.obj
 0002:000085b4       $unwind$??$validate_scan@V?$_Vector_iterator@V?$_Vector_val@U?$_Simple_types@U?$pair@U?$pair@V?$point_data@H@polygon@boost@@V123@@std@@U?$pair@HH@2@@std@@@std@@@std@@@std@@H@?$line_intersection@H@polygon@boost@@SAXAEAV?$vector@U?$pair@U?$pair@V?$point_data@H@polygon@boost@@V123@@std@@U?$pair@HH@2@@std@@V?$allocator@U?$pair@U?$pair@V?$point_data@H@polygon@boost@@V123@@std@@U?$pair@HH@2@@std@@@2@@std@@V?$_Vector_iterator@V?$_Vector_val@U?$_Simple_types@U?$pair@U?$pair@V?$point_data@H@polygon@boost@@V123@@std@@U?$pair@HH@2@@std@@@std@@@std@@@4@1@Z 000000018002e5b4     minkowski.obj
 0002:000085cc       $unwind$??$scan@V?$polygon_set_data@H@polygon@boost@@V?$boolean_output_functor@V?$polygon_set_data@H@polygon@boost@@V?$vector@HV?$allocator@H@std@@@std@@$02@?$arbitrary_boolean_op@H@23@V?$_Vector_iterator@V?$_Vector_val@U?$_Simple_types@U?$pair@U?$pair@V?$point_data@H@polygon@boost@@V123@@std@@U?$pair@HH@2@@std@@@std@@@std@@@std@@@?$scanline@HHV?$vector@HV?$allocator@H@std@@@std@@@polygon@boost@@QEAAXAEAV?$polygon_set_data@H@12@V?$boolean_output_functor@V?$polygon_set_data@H@polygon@boost@@V?$vector@HV?$allocator@H@std@@@std@@$02@?$arbitrary_boolean_op@H@12@V?$_Vector_iterator@V?$_Vector_val@U?$_Simple_types@U?$pair@U?$pair@V?$point_data@H@polygon@boost@@V123@@std@@U?$pair@HH@2@@std@@@std@@@std@@@std@@2@Z 000000018002e5cc     minkowski.obj
 0002:000085cc       $unwind$??$scan@V?$polygon_set_data@H@polygon@boost@@V?$boolean_output_functor@V?$polygon_set_data@H@polygon@boost@@V?$vector@HV?$allocator@H@std@@@std@@$0A@@?$arbitrary_boolean_op@H@23@V?$_Vector_iterator@V?$_Vector_val@U?$_Simple_types@U?$pair@U?$pair@V?$point_data@H@polygon@boost@@V123@@std@@U?$pair@HH@2@@std@@@std@@@std@@@std@@@?$scanline@HHV?$vector@HV?$allocator@H@std@@@std@@@polygon@boost@@QEAAXAEAV?$polygon_set_data@H@12@V?$boolean_output_functor@V?$polygon_set_data@H@polygon@boost@@V?$vector@HV?$allocator@H@std@@@std@@$0A@@?$arbitrary_boolean_op@H@12@V?$_Vector_iterator@V?$_Vector_val@U?$_Simple_types@U?$pair@U?$pair@V?$point_data@H@polygon@boost@@V123@@std@@U?$pair@HH@2@@std@@@std@@@std@@@std@@2@Z 000000018002e5cc     minkowski.obj
 0002:000085dc       $chain$2$??$scan@V?$polygon_set_data@H@polygon@boost@@V?$boolean_output_functor@V?$polygon_set_data@H@polygon@boost@@V?$vector@HV?$allocator@H@std@@@std@@$0A@@?$arbitrary_boolean_op@H@23@V?$_Vector_iterator@V?$_Vector_val@U?$_Simple_types@U?$pair@U?$pair@V?$point_data@H@polygon@boost@@V123@@std@@U?$pair@HH@2@@std@@@std@@@std@@@std@@@?$scanline@HHV?$vector@HV?$allocator@H@std@@@std@@@polygon@boost@@QEAAXAEAV?$polygon_set_data@H@12@V?$boolean_output_functor@V?$polygon_set_data@H@polygon@boost@@V?$vector@HV?$allocator@H@std@@@std@@$0A@@?$arbitrary_boolean_op@H@12@V?$_Vector_iterator@V?$_Vector_val@U?$_Simple_types@U?$pair@U?$pair@V?$point_data@H@polygon@boost@@V123@@std@@U?$pair@HH@2@@std@@@std@@@std@@@std@@2@Z 000000018002e5dc     minkowski.obj
 0002:000085f8       $chain$3$??$scan@V?$polygon_set_data@H@polygon@boost@@V?$boolean_output_functor@V?$polygon_set_data@H@polygon@boost@@V?$vector@HV?$allocator@H@std@@@std@@$0A@@?$arbitrary_boolean_op@H@23@V?$_Vector_iterator@V?$_Vector_val@U?$_Simple_types@U?$pair@U?$pair@V?$point_data@H@polygon@boost@@V123@@std@@U?$pair@HH@2@@std@@@std@@@std@@@std@@@?$scanline@HHV?$vector@HV?$allocator@H@std@@@std@@@polygon@boost@@QEAAXAEAV?$polygon_set_data@H@12@V?$boolean_output_functor@V?$polygon_set_data@H@polygon@boost@@V?$vector@HV?$allocator@H@std@@@std@@$0A@@?$arbitrary_boolean_op@H@12@V?$_Vector_iterator@V?$_Vector_val@U?$_Simple_types@U?$pair@U?$pair@V?$point_data@H@polygon@boost@@V123@@std@@U?$pair@HH@2@@std@@@std@@@std@@@std@@2@Z 000000018002e5f8     minkowski.obj
 0002:00008608       $chain$2$??$scan@V?$polygon_set_data@H@polygon@boost@@V?$boolean_output_functor@V?$polygon_set_data@H@polygon@boost@@V?$vector@HV?$allocator@H@std@@@std@@$02@?$arbitrary_boolean_op@H@23@V?$_Vector_iterator@V?$_Vector_val@U?$_Simple_types@U?$pair@U?$pair@V?$point_data@H@polygon@boost@@V123@@std@@U?$pair@HH@2@@std@@@std@@@std@@@std@@@?$scanline@HHV?$vector@HV?$allocator@H@std@@@std@@@polygon@boost@@QEAAXAEAV?$polygon_set_data@H@12@V?$boolean_output_functor@V?$polygon_set_data@H@polygon@boost@@V?$vector@HV?$allocator@H@std@@@std@@$02@?$arbitrary_boolean_op@H@12@V?$_Vector_iterator@V?$_Vector_val@U?$_Simple_types@U?$pair@U?$pair@V?$point_data@H@polygon@boost@@V123@@std@@U?$pair@HH@2@@std@@@std@@@std@@@std@@2@Z 000000018002e608     minkowski.obj
 0002:00008624       $chain$3$??$scan@V?$polygon_set_data@H@polygon@boost@@V?$boolean_output_functor@V?$polygon_set_data@H@polygon@boost@@V?$vector@HV?$allocator@H@std@@@std@@$02@?$arbitrary_boolean_op@H@23@V?$_Vector_iterator@V?$_Vector_val@U?$_Simple_types@U?$pair@U?$pair@V?$point_data@H@polygon@boost@@V123@@std@@U?$pair@HH@2@@std@@@std@@@std@@@std@@@?$scanline@HHV?$vector@HV?$allocator@H@std@@@std@@@polygon@boost@@QEAAXAEAV?$polygon_set_data@H@12@V?$boolean_output_functor@V?$polygon_set_data@H@polygon@boost@@V?$vector@HV?$allocator@H@std@@@std@@$02@?$arbitrary_boolean_op@H@12@V?$_Vector_iterator@V?$_Vector_val@U?$_Simple_types@U?$pair@U?$pair@V?$point_data@H@polygon@boost@@V123@@std@@U?$pair@HH@2@@std@@@std@@@std@@@std@@2@Z 000000018002e624     minkowski.obj
 0002:00008634       $unwind$??$_Emplace_reallocate@U?$pair@U?$pair@V?$point_data@H@polygon@boost@@V123@@std@@H@std@@@?$vector@U?$pair@U?$pair@V?$point_data@H@polygon@boost@@V123@@std@@H@std@@V?$allocator@U?$pair@U?$pair@V?$point_data@H@polygon@boost@@V123@@std@@H@std@@@2@@std@@QEAAPEAU?$pair@U?$pair@V?$point_data@H@polygon@boost@@V123@@std@@H@1@QEAU21@$$QEAU21@@Z 000000018002e634     minkowski.obj
 0002:00008634       $unwind$??$_Emplace_reallocate@AEBU?$pair@U?$pair@V?$point_data@H@polygon@boost@@V123@@std@@H@std@@@?$vector@U?$pair@U?$pair@V?$point_data@H@polygon@boost@@V123@@std@@H@std@@V?$allocator@U?$pair@U?$pair@V?$point_data@H@polygon@boost@@V123@@std@@H@std@@@2@@std@@QEAAPEAU?$pair@U?$pair@V?$point_data@H@polygon@boost@@V123@@std@@H@1@QEAU21@AEBU21@@Z 000000018002e634     minkowski.obj
 0002:00008644       $chain$1$??$_Emplace_reallocate@U?$pair@U?$pair@V?$point_data@H@polygon@boost@@V123@@std@@H@std@@@?$vector@U?$pair@U?$pair@V?$point_data@H@polygon@boost@@V123@@std@@H@std@@V?$allocator@U?$pair@U?$pair@V?$point_data@H@polygon@boost@@V123@@std@@H@std@@@2@@std@@QEAAPEAU?$pair@U?$pair@V?$point_data@H@polygon@boost@@V123@@std@@H@1@QEAU21@$$QEAU21@@Z 000000018002e644     minkowski.obj
 0002:00008644       $chain$1$??$_Emplace_reallocate@AEBU?$pair@U?$pair@V?$point_data@H@polygon@boost@@V123@@std@@H@std@@@?$vector@U?$pair@U?$pair@V?$point_data@H@polygon@boost@@V123@@std@@H@std@@V?$allocator@U?$pair@U?$pair@V?$point_data@H@polygon@boost@@V123@@std@@H@std@@@2@@std@@QEAAPEAU?$pair@U?$pair@V?$point_data@H@polygon@boost@@V123@@std@@H@1@QEAU21@AEBU21@@Z 000000018002e644     minkowski.obj
 0002:0000865c       $chain$3$??$_Emplace_reallocate@AEBU?$pair@U?$pair@V?$point_data@H@polygon@boost@@V123@@std@@H@std@@@?$vector@U?$pair@U?$pair@V?$point_data@H@polygon@boost@@V123@@std@@H@std@@V?$allocator@U?$pair@U?$pair@V?$point_data@H@polygon@boost@@V123@@std@@H@std@@@2@@std@@QEAAPEAU?$pair@U?$pair@V?$point_data@H@polygon@boost@@V123@@std@@H@1@QEAU21@AEBU21@@Z 000000018002e65c     minkowski.obj
 0002:0000865c       $chain$3$??$_Emplace_reallocate@U?$pair@U?$pair@V?$point_data@H@polygon@boost@@V123@@std@@H@std@@@?$vector@U?$pair@U?$pair@V?$point_data@H@polygon@boost@@V123@@std@@H@std@@V?$allocator@U?$pair@U?$pair@V?$point_data@H@polygon@boost@@V123@@std@@H@std@@@2@@std@@QEAAPEAU?$pair@U?$pair@V?$point_data@H@polygon@boost@@V123@@std@@H@1@QEAU21@$$QEAU21@@Z 000000018002e65c     minkowski.obj
 0002:00008674       $chain$4$??$_Emplace_reallocate@U?$pair@U?$pair@V?$point_data@H@polygon@boost@@V123@@std@@H@std@@@?$vector@U?$pair@U?$pair@V?$point_data@H@polygon@boost@@V123@@std@@H@std@@V?$allocator@U?$pair@U?$pair@V?$point_data@H@polygon@boost@@V123@@std@@H@std@@@2@@std@@QEAAPEAU?$pair@U?$pair@V?$point_data@H@polygon@boost@@V123@@std@@H@1@QEAU21@$$QEAU21@@Z 000000018002e674     minkowski.obj
 0002:00008674       $chain$4$??$_Emplace_reallocate@AEBU?$pair@U?$pair@V?$point_data@H@polygon@boost@@V123@@std@@H@std@@@?$vector@U?$pair@U?$pair@V?$point_data@H@polygon@boost@@V123@@std@@H@std@@V?$allocator@U?$pair@U?$pair@V?$point_data@H@polygon@boost@@V123@@std@@H@std@@@2@@std@@QEAAPEAU?$pair@U?$pair@V?$point_data@H@polygon@boost@@V123@@std@@H@1@QEAU21@AEBU21@@Z 000000018002e674     minkowski.obj
 0002:00008684       $unwind$??$_Destroy_range@V?$allocator@U?$pair@U?$pair@V?$point_data@H@polygon@boost@@V123@@std@@V?$vector@U?$pair@HH@std@@V?$allocator@U?$pair@HH@std@@@2@@2@@std@@@std@@@std@@YAXPEAU?$pair@U?$pair@V?$point_data@H@polygon@boost@@V123@@std@@V?$vector@U?$pair@HH@std@@V?$allocator@U?$pair@HH@std@@@2@@2@@0@0AEAV?$allocator@U?$pair@U?$pair@V?$point_data@H@polygon@boost@@V123@@std@@V?$vector@U?$pair@HH@std@@V?$allocator@U?$pair@HH@std@@@2@@2@@std@@@0@@Z 000000018002e684     minkowski.obj
 0002:0000868c       $chain$1$??$_Destroy_range@V?$allocator@U?$pair@U?$pair@V?$point_data@H@polygon@boost@@V123@@std@@V?$vector@U?$pair@HH@std@@V?$allocator@U?$pair@HH@std@@@2@@2@@std@@@std@@@std@@YAXPEAU?$pair@U?$pair@V?$point_data@H@polygon@boost@@V123@@std@@V?$vector@U?$pair@HH@std@@V?$allocator@U?$pair@HH@std@@@2@@2@@0@0AEAV?$allocator@U?$pair@U?$pair@V?$point_data@H@polygon@boost@@V123@@std@@V?$vector@U?$pair@HH@std@@V?$allocator@U?$pair@HH@std@@@2@@2@@std@@@0@@Z 000000018002e68c     minkowski.obj
 0002:000086a4       $chain$2$??$_Destroy_range@V?$allocator@U?$pair@U?$pair@V?$point_data@H@polygon@boost@@V123@@std@@V?$vector@U?$pair@HH@std@@V?$allocator@U?$pair@HH@std@@@2@@2@@std@@@std@@@std@@YAXPEAU?$pair@U?$pair@V?$point_data@H@polygon@boost@@V123@@std@@V?$vector@U?$pair@HH@std@@V?$allocator@U?$pair@HH@std@@@2@@2@@0@0AEAV?$allocator@U?$pair@U?$pair@V?$point_data@H@polygon@boost@@V123@@std@@V?$vector@U?$pair@HH@std@@V?$allocator@U?$pair@HH@std@@@2@@2@@std@@@0@@Z 000000018002e6a4     minkowski.obj
 0002:000086b4       $chain$3$??$_Destroy_range@V?$allocator@U?$pair@U?$pair@V?$point_data@H@polygon@boost@@V123@@std@@V?$vector@U?$pair@HH@std@@V?$allocator@U?$pair@HH@std@@@2@@2@@std@@@std@@@std@@YAXPEAU?$pair@U?$pair@V?$point_data@H@polygon@boost@@V123@@std@@V?$vector@U?$pair@HH@std@@V?$allocator@U?$pair@HH@std@@@2@@2@@0@0AEAV?$allocator@U?$pair@U?$pair@V?$point_data@H@polygon@boost@@V123@@std@@V?$vector@U?$pair@HH@std@@V?$allocator@U?$pair@HH@std@@@2@@2@@std@@@0@@Z 000000018002e6b4     minkowski.obj
 0002:000086cc       $unwind$??_Gactive_tail_arbitrary@?$polygon_arbitrary_formation@H@polygon@boost@@QEAAPEAXI@Z 000000018002e6cc     minkowski.obj
 0002:000086d4       $chain$2$??_Gactive_tail_arbitrary@?$polygon_arbitrary_formation@H@polygon@boost@@QEAAPEAXI@Z 000000018002e6d4     minkowski.obj
 0002:000086f0       $chain$3$??_Gactive_tail_arbitrary@?$polygon_arbitrary_formation@H@polygon@boost@@QEAAPEAXI@Z 000000018002e6f0     minkowski.obj
 0002:00008704       $unwind$?remove_retired_edges_from_scanline@?$scanline@HHV?$vector@HV?$allocator@H@std@@@std@@@polygon@boost@@QEAAXXZ 000000018002e704     minkowski.obj
 0002:00008718       $chain$3$?remove_retired_edges_from_scanline@?$scanline@HHV?$vector@HV?$allocator@H@std@@@std@@@polygon@boost@@QEAAXXZ 000000018002e718     minkowski.obj
 0002:00008738       $chain$4$?remove_retired_edges_from_scanline@?$scanline@HHV?$vector@HV?$allocator@H@std@@@std@@@polygon@boost@@QEAAXXZ 000000018002e738     minkowski.obj
 0002:0000874c       $chain$5$?remove_retired_edges_from_scanline@?$scanline@HHV?$vector@HV?$allocator@H@std@@@std@@@polygon@boost@@QEAAXXZ 000000018002e74c     minkowski.obj
 0002:0000875c       $chain$6$?remove_retired_edges_from_scanline@?$scanline@HHV?$vector@HV?$allocator@H@std@@@std@@@polygon@boost@@QEAAXXZ 000000018002e75c     minkowski.obj
 0002:0000876c       $unwind$?join@active_tail_arbitrary@?$polygon_arbitrary_formation@H@polygon@boost@@QEAA_NPEAV1234@@Z 000000018002e76c     minkowski.obj
 0002:00008778       $chain$1$?join@active_tail_arbitrary@?$polygon_arbitrary_formation@H@polygon@boost@@QEAA_NPEAV1234@@Z 000000018002e778     minkowski.obj
 0002:00008790       $chain$2$?join@active_tail_arbitrary@?$polygon_arbitrary_formation@H@polygon@boost@@QEAA_NPEAV1234@@Z 000000018002e790     minkowski.obj
 0002:000087a0       $chain$3$?join@active_tail_arbitrary@?$polygon_arbitrary_formation@H@polygon@boost@@QEAA_NPEAV1234@@Z 000000018002e7a0     minkowski.obj
 0002:000087b8       $unwind$?on_above_or_below@?$scanline_base@H@polygon@boost@@SAHV?$point_data@H@23@AEBU?$pair@V?$point_data@H@polygon@boost@@V123@@std@@@Z 000000018002e7b8     minkowski.obj
 0002:000087d0       $unwind$??$_Insert_at@AEAU?$pair@$$CBU?$pair@V?$point_data@H@polygon@boost@@V123@@std@@V?$vector@U?$pair@HH@std@@V?$allocator@U?$pair@HH@std@@@2@@2@@std@@PEAU?$_Tree_node@U?$pair@$$CBU?$pair@V?$point_data@H@polygon@boost@@V123@@std@@V?$vector@U?$pair@HH@std@@V?$allocator@U?$pair@HH@std@@@2@@2@@std@@PEAX@2@@?$_Tree@V?$_Tmap_traits@U?$pair@V?$point_data@H@polygon@boost@@V123@@std@@V?$vector@U?$pair@HH@std@@V?$allocator@U?$pair@HH@std@@@2@@2@Vless_half_edge@?$scanline_base@H@polygon@boost@@V?$allocator@U?$pair@$$CBU?$pair@V?$point_data@H@polygon@boost@@V123@@std@@V?$vector@U?$pair@HH@std@@V?$allocator@U?$pair@HH@std@@@2@@2@@std@@@2@$0A@@std@@@std@@IEAA?AV?$_Tree_iterator@V?$_Tree_val@U?$_Tree_simple_types@U?$pair@$$CBU?$pair@V?$point_data@H@polygon@boost@@V123@@std@@V?$vector@U?$pair@HH@std@@V?$allocator@U?$pair@HH@std@@@2@@2@@std@@@std@@@std@@@1@_NPEAU?$_Tree_node@U?$pair@$$CBU?$pair@V?$point_data@H@polygon@boost@@V123@@std@@V?$vector@U?$pair@HH@std@@V?$allocator@U?$pair@HH@std@@@2@@2@@std@@PEAX@1@AEAU?$pair@$$CBU?$pair@V?$point_data@H@polygon@boost@@V123@@std@@V?$vector@U?$pair@HH@std@@V?$allocator@U?$pair@HH@std@@@2@@2@@1@1@Z 000000018002e7d0     minkowski.obj
 0002:000087d0       $unwind$??$_Insert_at@AEAU?$pair@$$CBVvertex_half_edge@?$scanline_base@H@polygon@boost@@PEAVactive_tail_arbitrary@?$polygon_arbitrary_formation@H@34@@std@@PEAU?$_Tree_node@U?$pair@$$CBVvertex_half_edge@?$scanline_base@H@polygon@boost@@PEAVactive_tail_arbitrary@?$polygon_arbitrary_formation@H@34@@std@@PEAX@2@@?$_Tree@V?$_Tmap_traits@Vvertex_half_edge@?$scanline_base@H@polygon@boost@@PEAVactive_tail_arbitrary@?$polygon_arbitrary_formation@H@34@Vless_vertex_half_edge@234@V?$allocator@U?$pair@$$CBVvertex_half_edge@?$scanline_base@H@polygon@boost@@PEAVactive_tail_arbitrary@?$polygon_arbitrary_formation@H@34@@std@@@std@@$0A@@std@@@std@@IEAA?AV?$_Tree_iterator@V?$_Tree_val@U?$_Tree_simple_types@U?$pair@$$CBVvertex_half_edge@?$scanline_base@H@polygon@boost@@PEAVactive_tail_arbitrary@?$polygon_arbitrary_formation@H@34@@std@@@std@@@std@@@1@_NPEAU?$_Tree_node@U?$pair@$$CBVvertex_half_edge@?$scanline_base@H@polygon@boost@@PEAVactive_tail_arbitrary@?$polygon_arbitrary_formation@H@34@@std@@PEAX@1@AEAU?$pair@$$CBVvertex_half_edge@?$scanline_base@H@polygon@boost@@PEAVactive_tail_arbitrary@?$polygon_arbitrary_formation@H@34@@1@1@Z 000000018002e7d0     minkowski.obj
 0002:000087d0       $unwind$??$_Insert_at@AEAU?$pair@$$CBHV?$vector@U?$pair@U?$pair@V?$point_data@H@polygon@boost@@V123@@std@@H@std@@V?$allocator@U?$pair@U?$pair@V?$point_data@H@polygon@boost@@V123@@std@@H@std@@@2@@std@@@std@@PEAU?$_Tree_node@U?$pair@$$CBHV?$vector@U?$pair@U?$pair@V?$point_data@H@polygon@boost@@V123@@std@@H@std@@V?$allocator@U?$pair@U?$pair@V?$point_data@H@polygon@boost@@V123@@std@@H@std@@@2@@std@@@std@@PEAX@2@@?$_Tree@V?$_Tmap_traits@HV?$vector@U?$pair@U?$pair@V?$point_data@H@polygon@boost@@V123@@std@@H@std@@V?$allocator@U?$pair@U?$pair@V?$point_data@H@polygon@boost@@V123@@std@@H@std@@@2@@std@@U?$less@H@2@V?$allocator@U?$pair@$$CBHV?$vector@U?$pair@U?$pair@V?$point_data@H@polygon@boost@@V123@@std@@H@std@@V?$allocator@U?$pair@U?$pair@V?$point_data@H@polygon@boost@@V123@@std@@H@std@@@2@@std@@@std@@@2@$0A@@std@@@std@@IEAA?AV?$_Tree_iterator@V?$_Tree_val@U?$_Tree_simple_types@U?$pair@$$CBHV?$vector@U?$pair@U?$pair@V?$point_data@H@polygon@boost@@V123@@std@@H@std@@V?$allocator@U?$pair@U?$pair@V?$point_data@H@polygon@boost@@V123@@std@@H@std@@@2@@std@@@std@@@std@@@std@@@1@_NPEAU?$_Tree_node@U?$pair@$$CBHV?$vector@U?$pair@U?$pair@V?$point_data@H@polygon@boost@@V123@@std@@H@std@@V?$allocator@U?$pair@U?$pair@V?$point_data@H@polygon@boost@@V123@@std@@H@std@@@2@@std@@@std@@PEAX@1@AEAU?$pair@$$CBHV?$vector@U?$pair@U?$pair@V?$point_data@H@polygon@boost@@V123@@std@@H@std@@V?$allocator@U?$pair@U?$pair@V?$point_data@H@polygon@boost@@V123@@std@@H@std@@@2@@std@@@1@1@Z 000000018002e7d0     minkowski.obj
 0002:000087d0       $unwind$??_Gpoly_line_arbitrary@?$polygon_arbitrary_formation@H@polygon@boost@@QEAAPEAXI@Z 000000018002e7d0     minkowski.obj
 0002:000087d8       $chain$0$??_Gpoly_line_arbitrary@?$polygon_arbitrary_formation@H@polygon@boost@@QEAAPEAXI@Z 000000018002e7d8     minkowski.obj
 0002:000087ec       $chain$1$??_Gpoly_line_arbitrary@?$polygon_arbitrary_formation@H@polygon@boost@@QEAAPEAXI@Z 000000018002e7ec     minkowski.obj
 0002:000087fc       $chain$0$?copyHoles@active_tail_arbitrary@?$polygon_arbitrary_formation@H@polygon@boost@@QEAAXAEAV1234@@Z 000000018002e7fc     minkowski.obj
 0002:00008810       $chain$1$?copyHoles@active_tail_arbitrary@?$polygon_arbitrary_formation@H@polygon@boost@@QEAAXAEAV1234@@Z 000000018002e810     minkowski.obj
 0002:00008820       $chain$2$?copyHoles@active_tail_arbitrary@?$polygon_arbitrary_formation@H@polygon@boost@@QEAAXAEAV1234@@Z 000000018002e820     minkowski.obj
 0002:00008834       $unwind$?less_slope@?$scanline_base@H@polygon@boost@@SA_NAEBH0AEBV?$point_data@H@23@1@Z 000000018002e834     minkowski.obj
 0002:00008848       $unwind$??$processPoint_@V?$vector@V?$polygon_with_holes_data@H@polygon@boost@@V?$allocator@V?$polygon_with_holes_data@H@polygon@boost@@@std@@@std@@V?$vector@U?$pair@Vvertex_half_edge@?$scanline_base@H@polygon@boost@@PEAVactive_tail_arbitrary@?$polygon_arbitrary_formation@H@34@@std@@V?$allocator@U?$pair@Vvertex_half_edge@?$scanline_base@H@polygon@boost@@PEAVactive_tail_arbitrary@?$polygon_arbitrary_formation@H@34@@std@@@2@@2@@?$polygon_arbitrary_formation@H@polygon@boost@@IEAA?AU?$pair@U?$pair@V?$point_data@H@polygon@boost@@H@std@@PEAVactive_tail_arbitrary@?$polygon_arbitrary_formation@H@polygon@boost@@@std@@AEAV?$vector@V?$polygon_with_holes_data@H@polygon@boost@@V?$allocator@V?$polygon_with_holes_data@H@polygon@boost@@@std@@@4@AEAV?$vector@U?$pair@Vvertex_half_edge@?$scanline_base@H@polygon@boost@@PEAVactive_tail_arbitrary@?$polygon_arbitrary_formation@H@34@@std@@V?$allocator@U?$pair@Vvertex_half_edge@?$scanline_base@H@polygon@boost@@PEAVactive_tail_arbitrary@?$polygon_arbitrary_formation@H@34@@std@@@2@@4@V?$point_data@H@12@AEAV?$vector@U?$pair@U?$pair@U?$pair@V?$point_data@H@polygon@boost@@V123@@std@@H@std@@PEAVactive_tail_arbitrary@?$polygon_arbitrary_formation@H@polygon@boost@@@std@@V?$allocator@U?$pair@U?$pair@U?$pair@V?$point_data@H@polygon@boost@@V123@@std@@H@std@@PEAVactive_tail_arbitrary@?$polygon_arbitrary_formation@H@polygon@boost@@@std@@@2@@4@AEAV?$vector@U?$pair@V?$point_data@H@polygon@boost@@H@std@@V?$allocator@U?$pair@V?$point_data@H@polygon@boost@@H@std@@@2@@4@@Z 000000018002e848     minkowski.obj
 0002:00008864       $chain$2$??$processPoint_@V?$vector@V?$polygon_with_holes_data@H@polygon@boost@@V?$allocator@V?$polygon_with_holes_data@H@polygon@boost@@@std@@@std@@V?$vector@U?$pair@Vvertex_half_edge@?$scanline_base@H@polygon@boost@@PEAVactive_tail_arbitrary@?$polygon_arbitrary_formation@H@34@@std@@V?$allocator@U?$pair@Vvertex_half_edge@?$scanline_base@H@polygon@boost@@PEAVactive_tail_arbitrary@?$polygon_arbitrary_formation@H@34@@std@@@2@@2@@?$polygon_arbitrary_formation@H@polygon@boost@@IEAA?AU?$pair@U?$pair@V?$point_data@H@polygon@boost@@H@std@@PEAVactive_tail_arbitrary@?$polygon_arbitrary_formation@H@polygon@boost@@@std@@AEAV?$vector@V?$polygon_with_holes_data@H@polygon@boost@@V?$allocator@V?$polygon_with_holes_data@H@polygon@boost@@@std@@@4@AEAV?$vector@U?$pair@Vvertex_half_edge@?$scanline_base@H@polygon@boost@@PEAVactive_tail_arbitrary@?$polygon_arbitrary_formation@H@34@@std@@V?$allocator@U?$pair@Vvertex_half_edge@?$scanline_base@H@polygon@boost@@PEAVactive_tail_arbitrary@?$polygon_arbitrary_formation@H@34@@std@@@2@@4@V?$point_data@H@12@AEAV?$vector@U?$pair@U?$pair@U?$pair@V?$point_data@H@polygon@boost@@V123@@std@@H@std@@PEAVactive_tail_arbitrary@?$polygon_arbitrary_formation@H@polygon@boost@@@std@@V?$allocator@U?$pair@U?$pair@U?$pair@V?$point_data@H@polygon@boost@@V123@@std@@H@std@@PEAVactive_tail_arbitrary@?$polygon_arbitrary_formation@H@polygon@boost@@@std@@@2@@4@AEAV?$vector@U?$pair@V?$point_data@H@polygon@boost@@H@std@@V?$allocator@U?$pair@V?$point_data@H@polygon@boost@@H@std@@@2@@4@@Z 000000018002e864     minkowski.obj
 0002:00008878       $chain$3$??$processPoint_@V?$vector@V?$polygon_with_holes_data@H@polygon@boost@@V?$allocator@V?$polygon_with_holes_data@H@polygon@boost@@@std@@@std@@V?$vector@U?$pair@Vvertex_half_edge@?$scanline_base@H@polygon@boost@@PEAVactive_tail_arbitrary@?$polygon_arbitrary_formation@H@34@@std@@V?$allocator@U?$pair@Vvertex_half_edge@?$scanline_base@H@polygon@boost@@PEAVactive_tail_arbitrary@?$polygon_arbitrary_formation@H@34@@std@@@2@@2@@?$polygon_arbitrary_formation@H@polygon@boost@@IEAA?AU?$pair@U?$pair@V?$point_data@H@polygon@boost@@H@std@@PEAVactive_tail_arbitrary@?$polygon_arbitrary_formation@H@polygon@boost@@@std@@AEAV?$vector@V?$polygon_with_holes_data@H@polygon@boost@@V?$allocator@V?$polygon_with_holes_data@H@polygon@boost@@@std@@@4@AEAV?$vector@U?$pair@Vvertex_half_edge@?$scanline_base@H@polygon@boost@@PEAVactive_tail_arbitrary@?$polygon_arbitrary_formation@H@34@@std@@V?$allocator@U?$pair@Vvertex_half_edge@?$scanline_base@H@polygon@boost@@PEAVactive_tail_arbitrary@?$polygon_arbitrary_formation@H@34@@std@@@2@@4@V?$point_data@H@12@AEAV?$vector@U?$pair@U?$pair@U?$pair@V?$point_data@H@polygon@boost@@V123@@std@@H@std@@PEAVactive_tail_arbitrary@?$polygon_arbitrary_formation@H@polygon@boost@@@std@@V?$allocator@U?$pair@U?$pair@U?$pair@V?$point_data@H@polygon@boost@@V123@@std@@H@std@@PEAVactive_tail_arbitrary@?$polygon_arbitrary_formation@H@polygon@boost@@@std@@@2@@4@AEAV?$vector@U?$pair@V?$point_data@H@polygon@boost@@H@std@@V?$allocator@U?$pair@V?$point_data@H@polygon@boost@@H@std@@@2@@4@@Z 000000018002e878     minkowski.obj
 0002:00008888       $unwind$??$_Insert_range@PEAV?$point_data@H@polygon@boost@@@?$vector@V?$point_data@H@polygon@boost@@V?$allocator@V?$point_data@H@polygon@boost@@@std@@@std@@AEAAXV?$_Vector_const_iterator@V?$_Vector_val@U?$_Simple_types@V?$point_data@H@polygon@boost@@@std@@@std@@@1@PEAV?$point_data@H@polygon@boost@@1Uforward_iterator_tag@1@@Z 000000018002e888     minkowski.obj
 0002:00008888       $unwind$??$_Insert_range@PEBV?$point_data@H@polygon@boost@@@?$vector@V?$point_data@H@polygon@boost@@V?$allocator@V?$point_data@H@polygon@boost@@@std@@@std@@AEAAXV?$_Vector_const_iterator@V?$_Vector_val@U?$_Simple_types@V?$point_data@H@polygon@boost@@@std@@@std@@@1@PEBV?$point_data@H@polygon@boost@@1Uforward_iterator_tag@1@@Z 000000018002e888     minkowski.obj
 0002:0000889c       $chain$0$??$_Insert_range@PEBV?$point_data@H@polygon@boost@@@?$vector@V?$point_data@H@polygon@boost@@V?$allocator@V?$point_data@H@polygon@boost@@@std@@@std@@AEAAXV?$_Vector_const_iterator@V?$_Vector_val@U?$_Simple_types@V?$point_data@H@polygon@boost@@@std@@@std@@@1@PEBV?$point_data@H@polygon@boost@@1Uforward_iterator_tag@1@@Z 000000018002e89c     minkowski.obj
 0002:0000889c       $chain$0$??$_Insert_range@PEAV?$point_data@H@polygon@boost@@@?$vector@V?$point_data@H@polygon@boost@@V?$allocator@V?$point_data@H@polygon@boost@@@std@@@std@@AEAAXV?$_Vector_const_iterator@V?$_Vector_val@U?$_Simple_types@V?$point_data@H@polygon@boost@@@std@@@std@@@1@PEAV?$point_data@H@polygon@boost@@1Uforward_iterator_tag@1@@Z 000000018002e89c     minkowski.obj
 0002:000088b0       $chain$3$??$_Insert_range@PEBV?$point_data@H@polygon@boost@@@?$vector@V?$point_data@H@polygon@boost@@V?$allocator@V?$point_data@H@polygon@boost@@@std@@@std@@AEAAXV?$_Vector_const_iterator@V?$_Vector_val@U?$_Simple_types@V?$point_data@H@polygon@boost@@@std@@@std@@@1@PEBV?$point_data@H@polygon@boost@@1Uforward_iterator_tag@1@@Z 000000018002e8b0     minkowski.obj
 0002:000088b0       $chain$1$??$_Insert_range@PEAV?$point_data@H@polygon@boost@@@?$vector@V?$point_data@H@polygon@boost@@V?$allocator@V?$point_data@H@polygon@boost@@@std@@@std@@AEAAXV?$_Vector_const_iterator@V?$_Vector_val@U?$_Simple_types@V?$point_data@H@polygon@boost@@@std@@@std@@@1@PEAV?$point_data@H@polygon@boost@@1Uforward_iterator_tag@1@@Z 000000018002e8b0     minkowski.obj
 0002:000088b0       $chain$1$??$_Insert_range@PEBV?$point_data@H@polygon@boost@@@?$vector@V?$point_data@H@polygon@boost@@V?$allocator@V?$point_data@H@polygon@boost@@@std@@@std@@AEAAXV?$_Vector_const_iterator@V?$_Vector_val@U?$_Simple_types@V?$point_data@H@polygon@boost@@@std@@@std@@@1@PEBV?$point_data@H@polygon@boost@@1Uforward_iterator_tag@1@@Z 000000018002e8b0     minkowski.obj
 0002:000088b0       $chain$3$??$_Insert_range@PEAV?$point_data@H@polygon@boost@@@?$vector@V?$point_data@H@polygon@boost@@V?$allocator@V?$point_data@H@polygon@boost@@@std@@@std@@AEAAXV?$_Vector_const_iterator@V?$_Vector_val@U?$_Simple_types@V?$point_data@H@polygon@boost@@@std@@@std@@@1@PEAV?$point_data@H@polygon@boost@@1Uforward_iterator_tag@1@@Z 000000018002e8b0     minkowski.obj
 0002:000088c0       $chain$2$??$_Insert_range@PEAV?$point_data@H@polygon@boost@@@?$vector@V?$point_data@H@polygon@boost@@V?$allocator@V?$point_data@H@polygon@boost@@@std@@@std@@AEAAXV?$_Vector_const_iterator@V?$_Vector_val@U?$_Simple_types@V?$point_data@H@polygon@boost@@@std@@@std@@@1@PEAV?$point_data@H@polygon@boost@@1Uforward_iterator_tag@1@@Z 000000018002e8c0     minkowski.obj
 0002:000088c0       $chain$2$??$_Insert_range@PEBV?$point_data@H@polygon@boost@@@?$vector@V?$point_data@H@polygon@boost@@V?$allocator@V?$point_data@H@polygon@boost@@@std@@@std@@AEAAXV?$_Vector_const_iterator@V?$_Vector_val@U?$_Simple_types@V?$point_data@H@polygon@boost@@@std@@@std@@@1@PEBV?$point_data@H@polygon@boost@@1Uforward_iterator_tag@1@@Z 000000018002e8c0     minkowski.obj
 0002:000088d4       $unwind$??$validate_scan@V?$_Vector_iterator@V?$_Vector_val@U?$_Simple_types@U?$pair@U?$pair@V?$point_data@H@polygon@boost@@V123@@std@@H@std@@@std@@@std@@@std@@@?$line_intersection@H@polygon@boost@@SAXAEAV?$vector@U?$pair@U?$pair@V?$point_data@H@polygon@boost@@V123@@std@@H@std@@V?$allocator@U?$pair@U?$pair@V?$point_data@H@polygon@boost@@V123@@std@@H@std@@@2@@std@@V?$_Vector_iterator@V?$_Vector_val@U?$_Simple_types@U?$pair@U?$pair@V?$point_data@H@polygon@boost@@V123@@std@@H@std@@@std@@@std@@@4@1@Z 000000018002e8d4     minkowski.obj
 0002:000088f0       $unwind$??$handle_input_events@V?$polygon_set_data@H@polygon@boost@@V?$boolean_output_functor@V?$polygon_set_data@H@polygon@boost@@V?$vector@HV?$allocator@H@std@@@std@@$02@?$arbitrary_boolean_op@H@23@V?$_Vector_iterator@V?$_Vector_val@U?$_Simple_types@U?$pair@U?$pair@V?$point_data@H@polygon@boost@@V123@@std@@U?$pair@HH@2@@std@@@std@@@std@@@std@@@?$scanline@HHV?$vector@HV?$allocator@H@std@@@std@@@polygon@boost@@QEAA?AV?$_Vector_iterator@V?$_Vector_val@U?$_Simple_types@U?$pair@U?$pair@V?$point_data@H@polygon@boost@@V123@@std@@U?$pair@HH@2@@std@@@std@@@std@@@std@@AEAV?$polygon_set_data@H@12@V?$boolean_output_functor@V?$polygon_set_data@H@polygon@boost@@V?$vector@HV?$allocator@H@std@@@std@@$02@?$arbitrary_boolean_op@H@12@V34@2@Z 000000018002e8f0     minkowski.obj
 0002:000088f0       $unwind$??$handle_input_events@V?$polygon_set_data@H@polygon@boost@@V?$boolean_output_functor@V?$polygon_set_data@H@polygon@boost@@V?$vector@HV?$allocator@H@std@@@std@@$0A@@?$arbitrary_boolean_op@H@23@V?$_Vector_iterator@V?$_Vector_val@U?$_Simple_types@U?$pair@U?$pair@V?$point_data@H@polygon@boost@@V123@@std@@U?$pair@HH@2@@std@@@std@@@std@@@std@@@?$scanline@HHV?$vector@HV?$allocator@H@std@@@std@@@polygon@boost@@QEAA?AV?$_Vector_iterator@V?$_Vector_val@U?$_Simple_types@U?$pair@U?$pair@V?$point_data@H@polygon@boost@@V123@@std@@U?$pair@HH@2@@std@@@std@@@std@@@std@@AEAV?$polygon_set_data@H@12@V?$boolean_output_functor@V?$polygon_set_data@H@polygon@boost@@V?$vector@HV?$allocator@H@std@@@std@@$0A@@?$arbitrary_boolean_op@H@12@V34@2@Z 000000018002e8f0     minkowski.obj
 0002:00008914       $unwind$??$_Emplace_reallocate@AEBU?$pair@U?$pair@V?$point_data@H@polygon@boost@@V123@@std@@V?$vector@U?$pair@HH@std@@V?$allocator@U?$pair@HH@std@@@2@@2@@std@@@?$vector@U?$pair@U?$pair@V?$point_data@H@polygon@boost@@V123@@std@@V?$vector@U?$pair@HH@std@@V?$allocator@U?$pair@HH@std@@@2@@2@@std@@V?$allocator@U?$pair@U?$pair@V?$point_data@H@polygon@boost@@V123@@std@@V?$vector@U?$pair@HH@std@@V?$allocator@U?$pair@HH@std@@@2@@2@@std@@@2@@std@@QEAAPEAU?$pair@U?$pair@V?$point_data@H@polygon@boost@@V123@@std@@V?$vector@U?$pair@HH@std@@V?$allocator@U?$pair@HH@std@@@2@@2@@1@QEAU21@AEBU21@@Z 000000018002e914     minkowski.obj
 0002:00008914       $unwind$??$_Emplace_reallocate@AEBH@?$vector@HV?$allocator@H@std@@@std@@QEAAPEAHQEAHAEBH@Z 000000018002e914     minkowski.obj
 0002:00008914       $unwind$??$_Emplace_reallocate@AEBQEAVactive_tail_arbitrary@?$polygon_arbitrary_formation@H@polygon@boost@@@?$vector@PEAVactive_tail_arbitrary@?$polygon_arbitrary_formation@H@polygon@boost@@V?$allocator@PEAVactive_tail_arbitrary@?$polygon_arbitrary_formation@H@polygon@boost@@@std@@@std@@QEAAPEAPEAVactive_tail_arbitrary@?$polygon_arbitrary_formation@H@polygon@boost@@QEAPEAV2345@AEBQEAV2345@@Z 000000018002e914     minkowski.obj
 0002:00008924       $chain$2$??$_Emplace_reallocate@AEBH@?$vector@HV?$allocator@H@std@@@std@@QEAAPEAHQEAHAEBH@Z 000000018002e924     minkowski.obj
 0002:00008940       $chain$3$??$_Emplace_reallocate@AEBH@?$vector@HV?$allocator@H@std@@@std@@QEAAPEAHQEAHAEBH@Z 000000018002e940     minkowski.obj
 0002:00008950       $chain$4$??$_Emplace_reallocate@AEBH@?$vector@HV?$allocator@H@std@@@std@@QEAAPEAHQEAHAEBH@Z 000000018002e950     minkowski.obj
 0002:0000896c       $unwind$??$_Emplace_reallocate@AEBV?$_Tree_iterator@V?$_Tree_val@U?$_Tree_simple_types@U?$pair@$$CBU?$pair@V?$point_data@H@polygon@boost@@V123@@std@@V?$vector@U?$pair@HH@std@@V?$allocator@U?$pair@HH@std@@@2@@2@@std@@@std@@@std@@@std@@@?$vector@V?$_Tree_iterator@V?$_Tree_val@U?$_Tree_simple_types@U?$pair@$$CBU?$pair@V?$point_data@H@polygon@boost@@V123@@std@@V?$vector@U?$pair@HH@std@@V?$allocator@U?$pair@HH@std@@@2@@2@@std@@@std@@@std@@@std@@V?$allocator@V?$_Tree_iterator@V?$_Tree_val@U?$_Tree_simple_types@U?$pair@$$CBU?$pair@V?$point_data@H@polygon@boost@@V123@@std@@V?$vector@U?$pair@HH@std@@V?$allocator@U?$pair@HH@std@@@2@@2@@std@@@std@@@std@@@std@@@2@@std@@QEAAPEAV?$_Tree_iterator@V?$_Tree_val@U?$_Tree_simple_types@U?$pair@$$CBU?$pair@V?$point_data@H@polygon@boost@@V123@@std@@V?$vector@U?$pair@HH@std@@V?$allocator@U?$pair@HH@std@@@2@@2@@std@@@std@@@std@@@1@QEAV21@AEBV21@@Z 000000018002e96c     minkowski.obj
 0002:0000896c       $unwind$??$_Emplace_reallocate@AEBV?$_Tree_iterator@V?$_Tree_val@U?$_Tree_simple_types@U?$pair@$$CBVvertex_half_edge@?$scanline_base@H@polygon@boost@@PEAVactive_tail_arbitrary@?$polygon_arbitrary_formation@H@34@@std@@@std@@@std@@@std@@@?$vector@V?$_Tree_iterator@V?$_Tree_val@U?$_Tree_simple_types@U?$pair@$$CBVvertex_half_edge@?$scanline_base@H@polygon@boost@@PEAVactive_tail_arbitrary@?$polygon_arbitrary_formation@H@34@@std@@@std@@@std@@@std@@V?$allocator@V?$_Tree_iterator@V?$_Tree_val@U?$_Tree_simple_types@U?$pair@$$CBVvertex_half_edge@?$scanline_base@H@polygon@boost@@PEAVactive_tail_arbitrary@?$polygon_arbitrary_formation@H@34@@std@@@std@@@std@@@std@@@2@@std@@QEAAPEAV?$_Tree_iterator@V?$_Tree_val@U?$_Tree_simple_types@U?$pair@$$CBVvertex_half_edge@?$scanline_base@H@polygon@boost@@PEAVactive_tail_arbitrary@?$polygon_arbitrary_formation@H@34@@std@@@std@@@std@@@1@QEAV21@AEBV21@@Z 000000018002e96c     minkowski.obj
 0002:0000897c       $chain$3$??$_Emplace_reallocate@AEBV?$_Tree_iterator@V?$_Tree_val@U?$_Tree_simple_types@U?$pair@$$CBU?$pair@V?$point_data@H@polygon@boost@@V123@@std@@V?$vector@U?$pair@HH@std@@V?$allocator@U?$pair@HH@std@@@2@@2@@std@@@std@@@std@@@std@@@?$vector@V?$_Tree_iterator@V?$_Tree_val@U?$_Tree_simple_types@U?$pair@$$CBU?$pair@V?$point_data@H@polygon@boost@@V123@@std@@V?$vector@U?$pair@HH@std@@V?$allocator@U?$pair@HH@std@@@2@@2@@std@@@std@@@std@@@std@@V?$allocator@V?$_Tree_iterator@V?$_Tree_val@U?$_Tree_simple_types@U?$pair@$$CBU?$pair@V?$point_data@H@polygon@boost@@V123@@std@@V?$vector@U?$pair@HH@std@@V?$allocator@U?$pair@HH@std@@@2@@2@@std@@@std@@@std@@@std@@@2@@std@@QEAAPEAV?$_Tree_iterator@V?$_Tree_val@U?$_Tree_simple_types@U?$pair@$$CBU?$pair@V?$point_data@H@polygon@boost@@V123@@std@@V?$vector@U?$pair@HH@std@@V?$allocator@U?$pair@HH@std@@@2@@2@@std@@@std@@@std@@@1@QEAV21@AEBV21@@Z 000000018002e97c     minkowski.obj
 0002:0000897c       $chain$3$??$_Emplace_reallocate@AEBV?$_Tree_iterator@V?$_Tree_val@U?$_Tree_simple_types@U?$pair@$$CBVvertex_half_edge@?$scanline_base@H@polygon@boost@@PEAVactive_tail_arbitrary@?$polygon_arbitrary_formation@H@34@@std@@@std@@@std@@@std@@@?$vector@V?$_Tree_iterator@V?$_Tree_val@U?$_Tree_simple_types@U?$pair@$$CBVvertex_half_edge@?$scanline_base@H@polygon@boost@@PEAVactive_tail_arbitrary@?$polygon_arbitrary_formation@H@34@@std@@@std@@@std@@@std@@V?$allocator@V?$_Tree_iterator@V?$_Tree_val@U?$_Tree_simple_types@U?$pair@$$CBVvertex_half_edge@?$scanline_base@H@polygon@boost@@PEAVactive_tail_arbitrary@?$polygon_arbitrary_formation@H@34@@std@@@std@@@std@@@std@@@2@@std@@QEAAPEAV?$_Tree_iterator@V?$_Tree_val@U?$_Tree_simple_types@U?$pair@$$CBVvertex_half_edge@?$scanline_base@H@polygon@boost@@PEAVactive_tail_arbitrary@?$polygon_arbitrary_formation@H@34@@std@@@std@@@std@@@1@QEAV21@AEBV21@@Z 000000018002e97c     minkowski.obj
 0002:0000899c       $chain$4$??$_Emplace_reallocate@AEBV?$_Tree_iterator@V?$_Tree_val@U?$_Tree_simple_types@U?$pair@$$CBVvertex_half_edge@?$scanline_base@H@polygon@boost@@PEAVactive_tail_arbitrary@?$polygon_arbitrary_formation@H@34@@std@@@std@@@std@@@std@@@?$vector@V?$_Tree_iterator@V?$_Tree_val@U?$_Tree_simple_types@U?$pair@$$CBVvertex_half_edge@?$scanline_base@H@polygon@boost@@PEAVactive_tail_arbitrary@?$polygon_arbitrary_formation@H@34@@std@@@std@@@std@@@std@@V?$allocator@V?$_Tree_iterator@V?$_Tree_val@U?$_Tree_simple_types@U?$pair@$$CBVvertex_half_edge@?$scanline_base@H@polygon@boost@@PEAVactive_tail_arbitrary@?$polygon_arbitrary_formation@H@34@@std@@@std@@@std@@@std@@@2@@std@@QEAAPEAV?$_Tree_iterator@V?$_Tree_val@U?$_Tree_simple_types@U?$pair@$$CBVvertex_half_edge@?$scanline_base@H@polygon@boost@@PEAVactive_tail_arbitrary@?$polygon_arbitrary_formation@H@34@@std@@@std@@@std@@@1@QEAV21@AEBV21@@Z 000000018002e99c     minkowski.obj
 0002:0000899c       $chain$4$??$_Emplace_reallocate@AEBV?$_Tree_iterator@V?$_Tree_val@U?$_Tree_simple_types@U?$pair@$$CBU?$pair@V?$point_data@H@polygon@boost@@V123@@std@@V?$vector@U?$pair@HH@std@@V?$allocator@U?$pair@HH@std@@@2@@2@@std@@@std@@@std@@@std@@@?$vector@V?$_Tree_iterator@V?$_Tree_val@U?$_Tree_simple_types@U?$pair@$$CBU?$pair@V?$point_data@H@polygon@boost@@V123@@std@@V?$vector@U?$pair@HH@std@@V?$allocator@U?$pair@HH@std@@@2@@2@@std@@@std@@@std@@@std@@V?$allocator@V?$_Tree_iterator@V?$_Tree_val@U?$_Tree_simple_types@U?$pair@$$CBU?$pair@V?$point_data@H@polygon@boost@@V123@@std@@V?$vector@U?$pair@HH@std@@V?$allocator@U?$pair@HH@std@@@2@@2@@std@@@std@@@std@@@std@@@2@@std@@QEAAPEAV?$_Tree_iterator@V?$_Tree_val@U?$_Tree_simple_types@U?$pair@$$CBU?$pair@V?$point_data@H@polygon@boost@@V123@@std@@V?$vector@U?$pair@HH@std@@V?$allocator@U?$pair@HH@std@@@2@@2@@std@@@std@@@std@@@1@QEAV21@AEBV21@@Z 000000018002e99c     minkowski.obj
 0002:000089ac       $chain$5$??$_Emplace_reallocate@AEBV?$_Tree_iterator@V?$_Tree_val@U?$_Tree_simple_types@U?$pair@$$CBVvertex_half_edge@?$scanline_base@H@polygon@boost@@PEAVactive_tail_arbitrary@?$polygon_arbitrary_formation@H@34@@std@@@std@@@std@@@std@@@?$vector@V?$_Tree_iterator@V?$_Tree_val@U?$_Tree_simple_types@U?$pair@$$CBVvertex_half_edge@?$scanline_base@H@polygon@boost@@PEAVactive_tail_arbitrary@?$polygon_arbitrary_formation@H@34@@std@@@std@@@std@@@std@@V?$allocator@V?$_Tree_iterator@V?$_Tree_val@U?$_Tree_simple_types@U?$pair@$$CBVvertex_half_edge@?$scanline_base@H@polygon@boost@@PEAVactive_tail_arbitrary@?$polygon_arbitrary_formation@H@34@@std@@@std@@@std@@@std@@@2@@std@@QEAAPEAV?$_Tree_iterator@V?$_Tree_val@U?$_Tree_simple_types@U?$pair@$$CBVvertex_half_edge@?$scanline_base@H@polygon@boost@@PEAVactive_tail_arbitrary@?$polygon_arbitrary_formation@H@34@@std@@@std@@@std@@@1@QEAV21@AEBV21@@Z 000000018002e9ac     minkowski.obj
 0002:000089ac       $chain$5$??$_Emplace_reallocate@AEBV?$_Tree_iterator@V?$_Tree_val@U?$_Tree_simple_types@U?$pair@$$CBU?$pair@V?$point_data@H@polygon@boost@@V123@@std@@V?$vector@U?$pair@HH@std@@V?$allocator@U?$pair@HH@std@@@2@@2@@std@@@std@@@std@@@std@@@?$vector@V?$_Tree_iterator@V?$_Tree_val@U?$_Tree_simple_types@U?$pair@$$CBU?$pair@V?$point_data@H@polygon@boost@@V123@@std@@V?$vector@U?$pair@HH@std@@V?$allocator@U?$pair@HH@std@@@2@@2@@std@@@std@@@std@@@std@@V?$allocator@V?$_Tree_iterator@V?$_Tree_val@U?$_Tree_simple_types@U?$pair@$$CBU?$pair@V?$point_data@H@polygon@boost@@V123@@std@@V?$vector@U?$pair@HH@std@@V?$allocator@U?$pair@HH@std@@@2@@2@@std@@@std@@@std@@@std@@@2@@std@@QEAAPEAV?$_Tree_iterator@V?$_Tree_val@U?$_Tree_simple_types@U?$pair@$$CBU?$pair@V?$point_data@H@polygon@boost@@V123@@std@@V?$vector@U?$pair@HH@std@@V?$allocator@U?$pair@HH@std@@@2@@2@@std@@@std@@@std@@@1@QEAV21@AEBV21@@Z 000000018002e9ac     minkowski.obj
 0002:000089cc       $chain$2$??$_Emplace_reallocate@U?$pair@U?$pair@V?$point_data@H@polygon@boost@@V123@@std@@U?$pair@HH@2@@std@@@?$vector@U?$pair@U?$pair@V?$point_data@H@polygon@boost@@V123@@std@@U?$pair@HH@2@@std@@V?$allocator@U?$pair@U?$pair@V?$point_data@H@polygon@boost@@V123@@std@@U?$pair@HH@2@@std@@@2@@std@@QEAAPEAU?$pair@U?$pair@V?$point_data@H@polygon@boost@@V123@@std@@U?$pair@HH@2@@1@QEAU21@$$QEAU21@@Z 000000018002e9cc     minkowski.obj
 0002:000089e8       $chain$3$??$_Emplace_reallocate@U?$pair@U?$pair@V?$point_data@H@polygon@boost@@V123@@std@@U?$pair@HH@2@@std@@@?$vector@U?$pair@U?$pair@V?$point_data@H@polygon@boost@@V123@@std@@U?$pair@HH@2@@std@@V?$allocator@U?$pair@U?$pair@V?$point_data@H@polygon@boost@@V123@@std@@U?$pair@HH@2@@std@@@2@@std@@QEAAPEAU?$pair@U?$pair@V?$point_data@H@polygon@boost@@V123@@std@@U?$pair@HH@2@@1@QEAU21@$$QEAU21@@Z 000000018002e9e8     minkowski.obj
 0002:000089f8       $chain$4$??$_Emplace_reallocate@U?$pair@U?$pair@V?$point_data@H@polygon@boost@@V123@@std@@U?$pair@HH@2@@std@@@?$vector@U?$pair@U?$pair@V?$point_data@H@polygon@boost@@V123@@std@@U?$pair@HH@2@@std@@V?$allocator@U?$pair@U?$pair@V?$point_data@H@polygon@boost@@V123@@std@@U?$pair@HH@2@@std@@@2@@std@@QEAAPEAU?$pair@U?$pair@V?$point_data@H@polygon@boost@@V123@@std@@U?$pair@HH@2@@1@QEAU21@$$QEAU21@@Z 000000018002e9f8     minkowski.obj
 0002:00008a14       $unwind$??$_Emplace_reallocate@U?$pair@Vvertex_half_edge@?$scanline_base@H@polygon@boost@@PEAVactive_tail_arbitrary@?$polygon_arbitrary_formation@H@34@@std@@@?$vector@U?$pair@Vvertex_half_edge@?$scanline_base@H@polygon@boost@@PEAVactive_tail_arbitrary@?$polygon_arbitrary_formation@H@34@@std@@V?$allocator@U?$pair@Vvertex_half_edge@?$scanline_base@H@polygon@boost@@PEAVactive_tail_arbitrary@?$polygon_arbitrary_formation@H@34@@std@@@2@@std@@QEAAPEAU?$pair@Vvertex_half_edge@?$scanline_base@H@polygon@boost@@PEAVactive_tail_arbitrary@?$polygon_arbitrary_formation@H@34@@1@QEAU21@$$QEAU21@@Z 000000018002ea14     minkowski.obj
 0002:00008a14       $unwind$??$_Emplace_reallocate@U?$pair@U?$pair@U?$pair@V?$point_data@H@polygon@boost@@V123@@std@@H@std@@PEAVactive_tail_arbitrary@?$polygon_arbitrary_formation@H@polygon@boost@@@std@@@?$vector@U?$pair@U?$pair@U?$pair@V?$point_data@H@polygon@boost@@V123@@std@@H@std@@PEAVactive_tail_arbitrary@?$polygon_arbitrary_formation@H@polygon@boost@@@std@@V?$allocator@U?$pair@U?$pair@U?$pair@V?$point_data@H@polygon@boost@@V123@@std@@H@std@@PEAVactive_tail_arbitrary@?$polygon_arbitrary_formation@H@polygon@boost@@@std@@@2@@std@@QEAAPEAU?$pair@U?$pair@U?$pair@V?$point_data@H@polygon@boost@@V123@@std@@H@std@@PEAVactive_tail_arbitrary@?$polygon_arbitrary_formation@H@polygon@boost@@@1@QEAU21@$$QEAU21@@Z 000000018002ea14     minkowski.obj
 0002:00008a28       $chain$1$??$_Emplace_reallocate@U?$pair@Vvertex_half_edge@?$scanline_base@H@polygon@boost@@PEAVactive_tail_arbitrary@?$polygon_arbitrary_formation@H@34@@std@@@?$vector@U?$pair@Vvertex_half_edge@?$scanline_base@H@polygon@boost@@PEAVactive_tail_arbitrary@?$polygon_arbitrary_formation@H@34@@std@@V?$allocator@U?$pair@Vvertex_half_edge@?$scanline_base@H@polygon@boost@@PEAVactive_tail_arbitrary@?$polygon_arbitrary_formation@H@34@@std@@@2@@std@@QEAAPEAU?$pair@Vvertex_half_edge@?$scanline_base@H@polygon@boost@@PEAVactive_tail_arbitrary@?$polygon_arbitrary_formation@H@34@@1@QEAU21@$$QEAU21@@Z 000000018002ea28     minkowski.obj
 0002:00008a28       $chain$1$??$_Emplace_reallocate@U?$pair@U?$pair@U?$pair@V?$point_data@H@polygon@boost@@V123@@std@@H@std@@PEAVactive_tail_arbitrary@?$polygon_arbitrary_formation@H@polygon@boost@@@std@@@?$vector@U?$pair@U?$pair@U?$pair@V?$point_data@H@polygon@boost@@V123@@std@@H@std@@PEAVactive_tail_arbitrary@?$polygon_arbitrary_formation@H@polygon@boost@@@std@@V?$allocator@U?$pair@U?$pair@U?$pair@V?$point_data@H@polygon@boost@@V123@@std@@H@std@@PEAVactive_tail_arbitrary@?$polygon_arbitrary_formation@H@polygon@boost@@@std@@@2@@std@@QEAAPEAU?$pair@U?$pair@U?$pair@V?$point_data@H@polygon@boost@@V123@@std@@H@std@@PEAVactive_tail_arbitrary@?$polygon_arbitrary_formation@H@polygon@boost@@@1@QEAU21@$$QEAU21@@Z 000000018002ea28     minkowski.obj
 0002:00008a40       $chain$2$??$_Emplace_reallocate@U?$pair@Vvertex_half_edge@?$scanline_base@H@polygon@boost@@PEAVactive_tail_arbitrary@?$polygon_arbitrary_formation@H@34@@std@@@?$vector@U?$pair@Vvertex_half_edge@?$scanline_base@H@polygon@boost@@PEAVactive_tail_arbitrary@?$polygon_arbitrary_formation@H@34@@std@@V?$allocator@U?$pair@Vvertex_half_edge@?$scanline_base@H@polygon@boost@@PEAVactive_tail_arbitrary@?$polygon_arbitrary_formation@H@34@@std@@@2@@std@@QEAAPEAU?$pair@Vvertex_half_edge@?$scanline_base@H@polygon@boost@@PEAVactive_tail_arbitrary@?$polygon_arbitrary_formation@H@34@@1@QEAU21@$$QEAU21@@Z 000000018002ea40     minkowski.obj
 0002:00008a40       $chain$2$??$_Emplace_reallocate@U?$pair@U?$pair@U?$pair@V?$point_data@H@polygon@boost@@V123@@std@@H@std@@PEAVactive_tail_arbitrary@?$polygon_arbitrary_formation@H@polygon@boost@@@std@@@?$vector@U?$pair@U?$pair@U?$pair@V?$point_data@H@polygon@boost@@V123@@std@@H@std@@PEAVactive_tail_arbitrary@?$polygon_arbitrary_formation@H@polygon@boost@@@std@@V?$allocator@U?$pair@U?$pair@U?$pair@V?$point_data@H@polygon@boost@@V123@@std@@H@std@@PEAVactive_tail_arbitrary@?$polygon_arbitrary_formation@H@polygon@boost@@@std@@@2@@std@@QEAAPEAU?$pair@U?$pair@U?$pair@V?$point_data@H@polygon@boost@@V123@@std@@H@std@@PEAVactive_tail_arbitrary@?$polygon_arbitrary_formation@H@polygon@boost@@@1@QEAU21@$$QEAU21@@Z 000000018002ea40     minkowski.obj
 0002:00008a50       $chain$3$??$_Emplace_reallocate@U?$pair@U?$pair@U?$pair@V?$point_data@H@polygon@boost@@V123@@std@@H@std@@PEAVactive_tail_arbitrary@?$polygon_arbitrary_formation@H@polygon@boost@@@std@@@?$vector@U?$pair@U?$pair@U?$pair@V?$point_data@H@polygon@boost@@V123@@std@@H@std@@PEAVactive_tail_arbitrary@?$polygon_arbitrary_formation@H@polygon@boost@@@std@@V?$allocator@U?$pair@U?$pair@U?$pair@V?$point_data@H@polygon@boost@@V123@@std@@H@std@@PEAVactive_tail_arbitrary@?$polygon_arbitrary_formation@H@polygon@boost@@@std@@@2@@std@@QEAAPEAU?$pair@U?$pair@U?$pair@V?$point_data@H@polygon@boost@@V123@@std@@H@std@@PEAVactive_tail_arbitrary@?$polygon_arbitrary_formation@H@polygon@boost@@@1@QEAU21@$$QEAU21@@Z 000000018002ea50     minkowski.obj
 0002:00008a50       $chain$3$??$_Emplace_reallocate@U?$pair@Vvertex_half_edge@?$scanline_base@H@polygon@boost@@PEAVactive_tail_arbitrary@?$polygon_arbitrary_formation@H@34@@std@@@?$vector@U?$pair@Vvertex_half_edge@?$scanline_base@H@polygon@boost@@PEAVactive_tail_arbitrary@?$polygon_arbitrary_formation@H@34@@std@@V?$allocator@U?$pair@Vvertex_half_edge@?$scanline_base@H@polygon@boost@@PEAVactive_tail_arbitrary@?$polygon_arbitrary_formation@H@34@@std@@@2@@std@@QEAAPEAU?$pair@Vvertex_half_edge@?$scanline_base@H@polygon@boost@@PEAVactive_tail_arbitrary@?$polygon_arbitrary_formation@H@34@@1@QEAU21@$$QEAU21@@Z 000000018002ea50     minkowski.obj
 0002:00008a68       $unwind$??$_Emplace_reallocate@U?$pair@HU?$pair@_K_K@std@@@std@@@?$vector@U?$pair@HU?$pair@_K_K@std@@@std@@V?$allocator@U?$pair@HU?$pair@_K_K@std@@@std@@@2@@std@@QEAAPEAU?$pair@HU?$pair@_K_K@std@@@1@QEAU21@$$QEAU21@@Z 000000018002ea68     minkowski.obj
 0002:00008a68       $unwind$??$_Emplace_reallocate@AEBU?$pair@V?$point_data@H@polygon@boost@@H@std@@@?$vector@U?$pair@V?$point_data@H@polygon@boost@@H@std@@V?$allocator@U?$pair@V?$point_data@H@polygon@boost@@H@std@@@2@@std@@QEAAPEAU?$pair@V?$point_data@H@polygon@boost@@H@1@QEAU21@AEBU21@@Z 000000018002ea68     minkowski.obj
 0002:00008a68       $unwind$??$_Emplace_reallocate@U?$pair@V?$point_data@H@polygon@boost@@H@std@@@?$vector@U?$pair@V?$point_data@H@polygon@boost@@H@std@@V?$allocator@U?$pair@V?$point_data@H@polygon@boost@@H@std@@@2@@std@@QEAAPEAU?$pair@V?$point_data@H@polygon@boost@@H@1@QEAU21@$$QEAU21@@Z 000000018002ea68     minkowski.obj
 0002:00008a78       $chain$1$??$_Emplace_reallocate@AEBU?$pair@V?$point_data@H@polygon@boost@@H@std@@@?$vector@U?$pair@V?$point_data@H@polygon@boost@@H@std@@V?$allocator@U?$pair@V?$point_data@H@polygon@boost@@H@std@@@2@@std@@QEAAPEAU?$pair@V?$point_data@H@polygon@boost@@H@1@QEAU21@AEBU21@@Z 000000018002ea78     minkowski.obj
 0002:00008a78       $chain$1$??$_Emplace_reallocate@U?$pair@V?$point_data@H@polygon@boost@@H@std@@@?$vector@U?$pair@V?$point_data@H@polygon@boost@@H@std@@V?$allocator@U?$pair@V?$point_data@H@polygon@boost@@H@std@@@2@@std@@QEAAPEAU?$pair@V?$point_data@H@polygon@boost@@H@1@QEAU21@$$QEAU21@@Z 000000018002ea78     minkowski.obj
 0002:00008a90       $chain$3$??$_Emplace_reallocate@AEBU?$pair@V?$point_data@H@polygon@boost@@H@std@@@?$vector@U?$pair@V?$point_data@H@polygon@boost@@H@std@@V?$allocator@U?$pair@V?$point_data@H@polygon@boost@@H@std@@@2@@std@@QEAAPEAU?$pair@V?$point_data@H@polygon@boost@@H@1@QEAU21@AEBU21@@Z 000000018002ea90     minkowski.obj
 0002:00008a90       $chain$3$??$_Emplace_reallocate@U?$pair@V?$point_data@H@polygon@boost@@H@std@@@?$vector@U?$pair@V?$point_data@H@polygon@boost@@H@std@@V?$allocator@U?$pair@V?$point_data@H@polygon@boost@@H@std@@@2@@std@@QEAAPEAU?$pair@V?$point_data@H@polygon@boost@@H@1@QEAU21@$$QEAU21@@Z 000000018002ea90     minkowski.obj
 0002:00008aa8       $chain$4$??$_Emplace_reallocate@U?$pair@V?$point_data@H@polygon@boost@@H@std@@@?$vector@U?$pair@V?$point_data@H@polygon@boost@@H@std@@V?$allocator@U?$pair@V?$point_data@H@polygon@boost@@H@std@@@2@@std@@QEAAPEAU?$pair@V?$point_data@H@polygon@boost@@H@1@QEAU21@$$QEAU21@@Z 000000018002eaa8     minkowski.obj
 0002:00008aa8       $chain$4$??$_Emplace_reallocate@AEBU?$pair@V?$point_data@H@polygon@boost@@H@std@@@?$vector@U?$pair@V?$point_data@H@polygon@boost@@H@std@@V?$allocator@U?$pair@V?$point_data@H@polygon@boost@@H@std@@@2@@std@@QEAAPEAU?$pair@V?$point_data@H@polygon@boost@@H@1@QEAU21@AEBU21@@Z 000000018002eaa8     minkowski.obj
 0002:00008ab8       $unwind$?update_property_map@?$scanline@HHV?$vector@HV?$allocator@H@std@@@std@@@polygon@boost@@SAXAEAV?$vector@U?$pair@HH@std@@V?$allocator@U?$pair@HH@std@@@2@@std@@AEBU?$pair@HH@5@@Z 000000018002eab8     minkowski.obj
 0002:00008acc       $unwind$?merge_property_maps@?$scanline@HHV?$vector@HV?$allocator@H@std@@@std@@@polygon@boost@@SAXAEAV?$vector@U?$pair@HH@std@@V?$allocator@U?$pair@HH@std@@@2@@std@@AEBV45@@Z 000000018002eacc     minkowski.obj
 0002:00008acc       $unwind$?construct_ptd_array@@YAXQEAU__acrt_ptd@@@Z 000000018002eacc     libucrt:per_thread_data.obj
 0002:00008ad4       $chain$3$?merge_property_maps@?$scanline@HHV?$vector@HV?$allocator@H@std@@@std@@@polygon@boost@@SAXAEAV?$vector@U?$pair@HH@std@@V?$allocator@U?$pair@HH@std@@@2@@std@@AEBV45@@Z 000000018002ead4     minkowski.obj
 0002:00008af4       $chain$4$?merge_property_maps@?$scanline@HHV?$vector@HV?$allocator@H@std@@@std@@@polygon@boost@@SAXAEAV?$vector@U?$pair@HH@std@@V?$allocator@U?$pair@HH@std@@@2@@std@@AEBV45@@Z 000000018002eaf4     minkowski.obj
 0002:00008b08       $chain$5$?merge_property_maps@?$scanline@HHV?$vector@HV?$allocator@H@std@@@std@@@polygon@boost@@SAXAEAV?$vector@U?$pair@HH@std@@V?$allocator@U?$pair@HH@std@@@2@@std@@AEBV45@@Z 000000018002eb08     minkowski.obj
 0002:00008b18       $chain$6$?merge_property_maps@?$scanline@HHV?$vector@HV?$allocator@H@std@@@std@@@polygon@boost@@SAXAEAV?$vector@U?$pair@HH@std@@V?$allocator@U?$pair@HH@std@@@2@@std@@AEBV45@@Z 000000018002eb18     minkowski.obj
 0002:00008b34       $chain$7$?merge_property_maps@?$scanline@HHV?$vector@HV?$allocator@H@std@@@std@@@polygon@boost@@SAXAEAV?$vector@U?$pair@HH@std@@V?$allocator@U?$pair@HH@std@@@2@@std@@AEBV45@@Z 000000018002eb34     minkowski.obj
 0002:00008b48       $chain$8$?merge_property_maps@?$scanline@HHV?$vector@HV?$allocator@H@std@@@std@@@polygon@boost@@SAXAEAV?$vector@U?$pair@HH@std@@V?$allocator@U?$pair@HH@std@@@2@@std@@AEBV45@@Z 000000018002eb48     minkowski.obj
 0002:00008b58       $chain$1$?reserve@?$vector@HV?$allocator@H@std@@@std@@QEAAX_K@Z 000000018002eb58     minkowski.obj
 0002:00008b70       $chain$2$?reserve@?$vector@HV?$allocator@H@std@@@std@@QEAAX_K@Z 000000018002eb70     minkowski.obj
 0002:00008b80       $chain$3$?reserve@?$vector@HV?$allocator@H@std@@@std@@QEAAX_K@Z 000000018002eb80     minkowski.obj
 0002:00008b98       $unwind$??Rless_half_edge@?$scanline_base@H@polygon@boost@@QEBA_NAEBU?$pair@V?$point_data@H@polygon@boost@@V123@@std@@0@Z 000000018002eb98     minkowski.obj
 0002:00008b98       $unwind$??Rless_vertex_half_edge@?$scanline_base@H@polygon@boost@@QEBA_NAEBVvertex_half_edge@123@0@Z 000000018002eb98     minkowski.obj
 0002:00008bac       $chain$3$??Rless_vertex_half_edge@?$scanline_base@H@polygon@boost@@QEBA_NAEBVvertex_half_edge@123@0@Z 000000018002ebac     minkowski.obj
 0002:00008bcc       $chain$4$??Rless_vertex_half_edge@?$scanline_base@H@polygon@boost@@QEBA_NAEBVvertex_half_edge@123@0@Z 000000018002ebcc     minkowski.obj
 0002:00008be0       $chain$5$??Rless_vertex_half_edge@?$scanline_base@H@polygon@boost@@QEBA_NAEBVvertex_half_edge@123@0@Z 000000018002ebe0     minkowski.obj
 0002:00008bf0       $chain$6$??Rless_vertex_half_edge@?$scanline_base@H@polygon@boost@@QEBA_NAEBVvertex_half_edge@123@0@Z 000000018002ebf0     minkowski.obj
 0002:00008c00       $chain$7$??Rless_vertex_half_edge@?$scanline_base@H@polygon@boost@@QEBA_NAEBVvertex_half_edge@123@0@Z 000000018002ec00     minkowski.obj
 0002:00008c20       $chain$3$??Rless_half_edge@?$scanline_base@H@polygon@boost@@QEBA_NAEBU?$pair@V?$point_data@H@polygon@boost@@V123@@std@@0@Z 000000018002ec20     minkowski.obj
 0002:00008c40       $chain$4$??Rless_half_edge@?$scanline_base@H@polygon@boost@@QEBA_NAEBU?$pair@V?$point_data@H@polygon@boost@@V123@@std@@0@Z 000000018002ec40     minkowski.obj
 0002:00008c54       $chain$5$??Rless_half_edge@?$scanline_base@H@polygon@boost@@QEBA_NAEBU?$pair@V?$point_data@H@polygon@boost@@V123@@std@@0@Z 000000018002ec54     minkowski.obj
 0002:00008c64       $chain$6$??Rless_half_edge@?$scanline_base@H@polygon@boost@@QEBA_NAEBU?$pair@V?$point_data@H@polygon@boost@@V123@@std@@0@Z 000000018002ec64     minkowski.obj
 0002:00008c74       $chain$7$??Rless_half_edge@?$scanline_base@H@polygon@boost@@QEBA_NAEBU?$pair@V?$point_data@H@polygon@boost@@V123@@std@@0@Z 000000018002ec74     minkowski.obj
 0002:00008c94       $unwind$??$joinChains@V?$vector@V?$polygon_with_holes_data@H@polygon@boost@@V?$allocator@V?$polygon_with_holes_data@H@polygon@boost@@@std@@@std@@@active_tail_arbitrary@?$polygon_arbitrary_formation@H@polygon@boost@@SAPEAV0123@V?$point_data@H@23@PEAV0123@1_NAEAV?$vector@V?$polygon_with_holes_data@H@polygon@boost@@V?$allocator@V?$polygon_with_holes_data@H@polygon@boost@@@std@@@std@@@Z 000000018002ec94     minkowski.obj
 0002:00008ca4       $chain$3$??$joinChains@V?$vector@V?$polygon_with_holes_data@H@polygon@boost@@V?$allocator@V?$polygon_with_holes_data@H@polygon@boost@@@std@@@std@@@active_tail_arbitrary@?$polygon_arbitrary_formation@H@polygon@boost@@SAPEAV0123@V?$point_data@H@23@PEAV0123@1_NAEAV?$vector@V?$polygon_with_holes_data@H@polygon@boost@@V?$allocator@V?$polygon_with_holes_data@H@polygon@boost@@@std@@@std@@@Z 000000018002eca4     minkowski.obj
 0002:00008cc4       $chain$6$??$joinChains@V?$vector@V?$polygon_with_holes_data@H@polygon@boost@@V?$allocator@V?$polygon_with_holes_data@H@polygon@boost@@@std@@@std@@@active_tail_arbitrary@?$polygon_arbitrary_formation@H@polygon@boost@@SAPEAV0123@V?$point_data@H@23@PEAV0123@1_NAEAV?$vector@V?$polygon_with_holes_data@H@polygon@boost@@V?$allocator@V?$polygon_with_holes_data@H@polygon@boost@@@std@@@std@@@Z 000000018002ecc4     minkowski.obj
 0002:00008cc4       $chain$4$??$joinChains@V?$vector@V?$polygon_with_holes_data@H@polygon@boost@@V?$allocator@V?$polygon_with_holes_data@H@polygon@boost@@@std@@@std@@@active_tail_arbitrary@?$polygon_arbitrary_formation@H@polygon@boost@@SAPEAV0123@V?$point_data@H@23@PEAV0123@1_NAEAV?$vector@V?$polygon_with_holes_data@H@polygon@boost@@V?$allocator@V?$polygon_with_holes_data@H@polygon@boost@@@std@@@std@@@Z 000000018002ecc4     minkowski.obj
 0002:00008cd4       $chain$5$??$joinChains@V?$vector@V?$polygon_with_holes_data@H@polygon@boost@@V?$allocator@V?$polygon_with_holes_data@H@polygon@boost@@@std@@@std@@@active_tail_arbitrary@?$polygon_arbitrary_formation@H@polygon@boost@@SAPEAV0123@V?$point_data@H@23@PEAV0123@1_NAEAV?$vector@V?$polygon_with_holes_data@H@polygon@boost@@V?$allocator@V?$polygon_with_holes_data@H@polygon@boost@@@std@@@std@@@Z 000000018002ecd4     minkowski.obj
 0002:00008cf4       $unwind$??$validate_scan_divide_and_conquer@V?$_Vector_iterator@V?$_Vector_val@U?$_Simple_types@U?$pair@U?$pair@V?$point_data@H@polygon@boost@@V123@@std@@H@std@@@std@@@std@@@std@@@?$line_intersection@H@polygon@boost@@SAXAEAV?$vector@V?$set@V?$point_data@H@polygon@boost@@U?$less@V?$point_data@H@polygon@boost@@@std@@V?$allocator@V?$point_data@H@polygon@boost@@@5@@std@@V?$allocator@V?$set@V?$point_data@H@polygon@boost@@U?$less@V?$point_data@H@polygon@boost@@@std@@V?$allocator@V?$point_data@H@polygon@boost@@@5@@std@@@2@@std@@V?$_Vector_iterator@V?$_Vector_val@U?$_Simple_types@U?$pair@U?$pair@V?$point_data@H@polygon@boost@@V123@@std@@H@std@@@std@@@std@@@4@1@Z 000000018002ecf4     minkowski.obj
 0002:00008d10       $unwind$??$segment_intersections@V?$_Vector_iterator@V?$_Vector_val@U?$_Simple_types@U?$pair@U?$pair@V?$point_data@H@polygon@boost@@V123@@std@@H@std@@@std@@@std@@@std@@@?$line_intersection@H@polygon@boost@@SAXAEAV?$vector@U?$pair@U?$pair@V?$point_data@H@polygon@boost@@V123@@std@@H@std@@V?$allocator@U?$pair@U?$pair@V?$point_data@H@polygon@boost@@V123@@std@@H@std@@@2@@std@@AEAV?$vector@V?$set@V?$point_data@H@polygon@boost@@U?$less@V?$point_data@H@polygon@boost@@@std@@V?$allocator@V?$point_data@H@polygon@boost@@@5@@std@@V?$allocator@V?$set@V?$point_data@H@polygon@boost@@U?$less@V?$point_data@H@polygon@boost@@@std@@V?$allocator@V?$point_data@H@polygon@boost@@@5@@std@@@2@@4@V?$_Vector_iterator@V?$_Vector_val@U?$_Simple_types@U?$pair@U?$pair@V?$point_data@H@polygon@boost@@V123@@std@@H@std@@@std@@@std@@@4@2@Z 000000018002ed10     minkowski.obj
 0002:00008d28       $chain$4$??$segment_intersections@V?$_Vector_iterator@V?$_Vector_val@U?$_Simple_types@U?$pair@U?$pair@V?$point_data@H@polygon@boost@@V123@@std@@H@std@@@std@@@std@@@std@@@?$line_intersection@H@polygon@boost@@SAXAEAV?$vector@U?$pair@U?$pair@V?$point_data@H@polygon@boost@@V123@@std@@H@std@@V?$allocator@U?$pair@U?$pair@V?$point_data@H@polygon@boost@@V123@@std@@H@std@@@2@@std@@AEAV?$vector@V?$set@V?$point_data@H@polygon@boost@@U?$less@V?$point_data@H@polygon@boost@@@std@@V?$allocator@V?$point_data@H@polygon@boost@@@5@@std@@V?$allocator@V?$set@V?$point_data@H@polygon@boost@@U?$less@V?$point_data@H@polygon@boost@@@std@@V?$allocator@V?$point_data@H@polygon@boost@@@5@@std@@@2@@4@V?$_Vector_iterator@V?$_Vector_val@U?$_Simple_types@U?$pair@U?$pair@V?$point_data@H@polygon@boost@@V123@@std@@H@std@@@std@@@std@@@4@2@Z 000000018002ed28     minkowski.obj
 0002:00008d4c       $chain$5$??$segment_intersections@V?$_Vector_iterator@V?$_Vector_val@U?$_Simple_types@U?$pair@U?$pair@V?$point_data@H@polygon@boost@@V123@@std@@H@std@@@std@@@std@@@std@@@?$line_intersection@H@polygon@boost@@SAXAEAV?$vector@U?$pair@U?$pair@V?$point_data@H@polygon@boost@@V123@@std@@H@std@@V?$allocator@U?$pair@U?$pair@V?$point_data@H@polygon@boost@@V123@@std@@H@std@@@2@@std@@AEAV?$vector@V?$set@V?$point_data@H@polygon@boost@@U?$less@V?$point_data@H@polygon@boost@@@std@@V?$allocator@V?$point_data@H@polygon@boost@@@5@@std@@V?$allocator@V?$set@V?$point_data@H@polygon@boost@@U?$less@V?$point_data@H@polygon@boost@@@std@@V?$allocator@V?$point_data@H@polygon@boost@@@5@@std@@@2@@4@V?$_Vector_iterator@V?$_Vector_val@U?$_Simple_types@U?$pair@U?$pair@V?$point_data@H@polygon@boost@@V123@@std@@H@std@@@std@@@std@@@4@2@Z 000000018002ed4c     minkowski.obj
 0002:00008d5c       $chain$6$??$segment_intersections@V?$_Vector_iterator@V?$_Vector_val@U?$_Simple_types@U?$pair@U?$pair@V?$point_data@H@polygon@boost@@V123@@std@@H@std@@@std@@@std@@@std@@@?$line_intersection@H@polygon@boost@@SAXAEAV?$vector@U?$pair@U?$pair@V?$point_data@H@polygon@boost@@V123@@std@@H@std@@V?$allocator@U?$pair@U?$pair@V?$point_data@H@polygon@boost@@V123@@std@@H@std@@@2@@std@@AEAV?$vector@V?$set@V?$point_data@H@polygon@boost@@U?$less@V?$point_data@H@polygon@boost@@@std@@V?$allocator@V?$point_data@H@polygon@boost@@@5@@std@@V?$allocator@V?$set@V?$point_data@H@polygon@boost@@U?$less@V?$point_data@H@polygon@boost@@@std@@V?$allocator@V?$point_data@H@polygon@boost@@@5@@std@@@2@@4@V?$_Vector_iterator@V?$_Vector_val@U?$_Simple_types@U?$pair@U?$pair@V?$point_data@H@polygon@boost@@V123@@std@@H@std@@@std@@@std@@@4@2@Z 000000018002ed5c     minkowski.obj
 0002:00008d80       $unwind$??$write_out@V?$polygon_set_data@H@polygon@boost@@V?$boolean_output_functor@V?$polygon_set_data@H@polygon@boost@@V?$vector@HV?$allocator@H@std@@@std@@$0A@@?$arbitrary_boolean_op@H@23@@?$scanline@HHV?$vector@HV?$allocator@H@std@@@std@@@polygon@boost@@QEAAXAEAV?$polygon_set_data@H@12@V?$boolean_output_functor@V?$polygon_set_data@H@polygon@boost@@V?$vector@HV?$allocator@H@std@@@std@@$0A@@?$arbitrary_boolean_op@H@12@AEBU?$pair@V?$point_data@H@polygon@boost@@V123@@std@@AEBV?$vector@U?$pair@HH@std@@V?$allocator@U?$pair@HH@std@@@2@@7@3@Z 000000018002ed80     minkowski.obj
 0002:00008d80       $unwind$??$write_out@V?$polygon_set_data@H@polygon@boost@@V?$boolean_output_functor@V?$polygon_set_data@H@polygon@boost@@V?$vector@HV?$allocator@H@std@@@std@@$02@?$arbitrary_boolean_op@H@23@@?$scanline@HHV?$vector@HV?$allocator@H@std@@@std@@@polygon@boost@@QEAAXAEAV?$polygon_set_data@H@12@V?$boolean_output_functor@V?$polygon_set_data@H@polygon@boost@@V?$vector@HV?$allocator@H@std@@@std@@$02@?$arbitrary_boolean_op@H@12@AEBU?$pair@V?$point_data@H@polygon@boost@@V123@@std@@AEBV?$vector@U?$pair@HH@std@@V?$allocator@U?$pair@HH@std@@@2@@7@3@Z 000000018002ed80     minkowski.obj
 0002:00008da4       $unwind$??$emplace@AEAU?$pair@U?$pair@V?$point_data@H@polygon@boost@@V123@@std@@V?$vector@U?$pair@HH@std@@V?$allocator@U?$pair@HH@std@@@2@@2@@std@@@?$_Tree@V?$_Tmap_traits@U?$pair@V?$point_data@H@polygon@boost@@V123@@std@@V?$vector@U?$pair@HH@std@@V?$allocator@U?$pair@HH@std@@@2@@2@Vless_half_edge@?$scanline_base@H@polygon@boost@@V?$allocator@U?$pair@$$CBU?$pair@V?$point_data@H@polygon@boost@@V123@@std@@V?$vector@U?$pair@HH@std@@V?$allocator@U?$pair@HH@std@@@2@@2@@std@@@2@$0A@@std@@@std@@QEAA?AU?$pair@V?$_Tree_iterator@V?$_Tree_val@U?$_Tree_simple_types@U?$pair@$$CBU?$pair@V?$point_data@H@polygon@boost@@V123@@std@@V?$vector@U?$pair@HH@std@@V?$allocator@U?$pair@HH@std@@@2@@2@@std@@@std@@@std@@@std@@_N@1@AEAU?$pair@U?$pair@V?$point_data@H@polygon@boost@@V123@@std@@V?$vector@U?$pair@HH@std@@V?$allocator@U?$pair@HH@std@@@2@@2@@1@@Z 000000018002eda4     minkowski.obj
 0002:00008dbc       $chain$2$??$_Emplace_reallocate@AEBQEAVactive_tail_arbitrary@?$polygon_arbitrary_formation@H@polygon@boost@@@?$vector@PEAVactive_tail_arbitrary@?$polygon_arbitrary_formation@H@polygon@boost@@V?$allocator@PEAVactive_tail_arbitrary@?$polygon_arbitrary_formation@H@polygon@boost@@@std@@@std@@QEAAPEAPEAVactive_tail_arbitrary@?$polygon_arbitrary_formation@H@polygon@boost@@QEAPEAV2345@AEBQEAV2345@@Z 000000018002edbc     minkowski.obj
 0002:00008dd8       $chain$3$??$_Emplace_reallocate@AEBQEAVactive_tail_arbitrary@?$polygon_arbitrary_formation@H@polygon@boost@@@?$vector@PEAVactive_tail_arbitrary@?$polygon_arbitrary_formation@H@polygon@boost@@V?$allocator@PEAVactive_tail_arbitrary@?$polygon_arbitrary_formation@H@polygon@boost@@@std@@@std@@QEAAPEAPEAVactive_tail_arbitrary@?$polygon_arbitrary_formation@H@polygon@boost@@QEAPEAV2345@AEBQEAV2345@@Z 000000018002edd8     minkowski.obj
 0002:00008de8       $chain$4$??$_Emplace_reallocate@AEBQEAVactive_tail_arbitrary@?$polygon_arbitrary_formation@H@polygon@boost@@@?$vector@PEAVactive_tail_arbitrary@?$polygon_arbitrary_formation@H@polygon@boost@@V?$allocator@PEAVactive_tail_arbitrary@?$polygon_arbitrary_formation@H@polygon@boost@@@std@@@std@@QEAAPEAPEAVactive_tail_arbitrary@?$polygon_arbitrary_formation@H@polygon@boost@@QEAPEAV2345@AEBQEAV2345@@Z 000000018002ede8     minkowski.obj
 0002:00008e04       $unwind$??$_Emplace_reallocate@U?$pair@U?$pair@V?$point_data@H@polygon@boost@@V123@@std@@V?$vector@U?$pair@HH@std@@V?$allocator@U?$pair@HH@std@@@2@@2@@std@@@?$vector@U?$pair@U?$pair@V?$point_data@H@polygon@boost@@V123@@std@@V?$vector@U?$pair@HH@std@@V?$allocator@U?$pair@HH@std@@@2@@2@@std@@V?$allocator@U?$pair@U?$pair@V?$point_data@H@polygon@boost@@V123@@std@@V?$vector@U?$pair@HH@std@@V?$allocator@U?$pair@HH@std@@@2@@2@@std@@@2@@std@@QEAAPEAU?$pair@U?$pair@V?$point_data@H@polygon@boost@@V123@@std@@V?$vector@U?$pair@HH@std@@V?$allocator@U?$pair@HH@std@@@2@@2@@1@QEAU21@$$QEAU21@@Z 000000018002ee04     minkowski.obj
 0002:00008e14       $chain$3$??$_Emplace_reallocate@U?$pair@U?$pair@V?$point_data@H@polygon@boost@@V123@@std@@V?$vector@U?$pair@HH@std@@V?$allocator@U?$pair@HH@std@@@2@@2@@std@@@?$vector@U?$pair@U?$pair@V?$point_data@H@polygon@boost@@V123@@std@@V?$vector@U?$pair@HH@std@@V?$allocator@U?$pair@HH@std@@@2@@2@@std@@V?$allocator@U?$pair@U?$pair@V?$point_data@H@polygon@boost@@V123@@std@@V?$vector@U?$pair@HH@std@@V?$allocator@U?$pair@HH@std@@@2@@2@@std@@@2@@std@@QEAAPEAU?$pair@U?$pair@V?$point_data@H@polygon@boost@@V123@@std@@V?$vector@U?$pair@HH@std@@V?$allocator@U?$pair@HH@std@@@2@@2@@1@QEAU21@$$QEAU21@@Z 000000018002ee14     minkowski.obj
 0002:00008e34       $chain$5$??$_Emplace_reallocate@U?$pair@U?$pair@V?$point_data@H@polygon@boost@@V123@@std@@V?$vector@U?$pair@HH@std@@V?$allocator@U?$pair@HH@std@@@2@@2@@std@@@?$vector@U?$pair@U?$pair@V?$point_data@H@polygon@boost@@V123@@std@@V?$vector@U?$pair@HH@std@@V?$allocator@U?$pair@HH@std@@@2@@2@@std@@V?$allocator@U?$pair@U?$pair@V?$point_data@H@polygon@boost@@V123@@std@@V?$vector@U?$pair@HH@std@@V?$allocator@U?$pair@HH@std@@@2@@2@@std@@@2@@std@@QEAAPEAU?$pair@U?$pair@V?$point_data@H@polygon@boost@@V123@@std@@V?$vector@U?$pair@HH@std@@V?$allocator@U?$pair@HH@std@@@2@@2@@1@QEAU21@$$QEAU21@@Z 000000018002ee34     minkowski.obj
 0002:00008e54       $chain$6$??$_Emplace_reallocate@U?$pair@U?$pair@V?$point_data@H@polygon@boost@@V123@@std@@V?$vector@U?$pair@HH@std@@V?$allocator@U?$pair@HH@std@@@2@@2@@std@@@?$vector@U?$pair@U?$pair@V?$point_data@H@polygon@boost@@V123@@std@@V?$vector@U?$pair@HH@std@@V?$allocator@U?$pair@HH@std@@@2@@2@@std@@V?$allocator@U?$pair@U?$pair@V?$point_data@H@polygon@boost@@V123@@std@@V?$vector@U?$pair@HH@std@@V?$allocator@U?$pair@HH@std@@@2@@2@@std@@@2@@std@@QEAAPEAU?$pair@U?$pair@V?$point_data@H@polygon@boost@@V123@@std@@V?$vector@U?$pair@HH@std@@V?$allocator@U?$pair@HH@std@@@2@@2@@1@QEAU21@$$QEAU21@@Z 000000018002ee54     minkowski.obj
 0002:00008e64       $chain$2$??$_Emplace_reallocate@AEBU?$pair@U?$pair@V?$point_data@H@polygon@boost@@V123@@std@@V?$vector@U?$pair@HH@std@@V?$allocator@U?$pair@HH@std@@@2@@2@@std@@@?$vector@U?$pair@U?$pair@V?$point_data@H@polygon@boost@@V123@@std@@V?$vector@U?$pair@HH@std@@V?$allocator@U?$pair@HH@std@@@2@@2@@std@@V?$allocator@U?$pair@U?$pair@V?$point_data@H@polygon@boost@@V123@@std@@V?$vector@U?$pair@HH@std@@V?$allocator@U?$pair@HH@std@@@2@@2@@std@@@2@@std@@QEAAPEAU?$pair@U?$pair@V?$point_data@H@polygon@boost@@V123@@std@@V?$vector@U?$pair@HH@std@@V?$allocator@U?$pair@HH@std@@@2@@2@@1@QEAU21@AEBU21@@Z 000000018002ee64     minkowski.obj
 0002:00008e80       $chain$4$??$_Emplace_reallocate@AEBU?$pair@U?$pair@V?$point_data@H@polygon@boost@@V123@@std@@V?$vector@U?$pair@HH@std@@V?$allocator@U?$pair@HH@std@@@2@@2@@std@@@?$vector@U?$pair@U?$pair@V?$point_data@H@polygon@boost@@V123@@std@@V?$vector@U?$pair@HH@std@@V?$allocator@U?$pair@HH@std@@@2@@2@@std@@V?$allocator@U?$pair@U?$pair@V?$point_data@H@polygon@boost@@V123@@std@@V?$vector@U?$pair@HH@std@@V?$allocator@U?$pair@HH@std@@@2@@2@@std@@@2@@std@@QEAAPEAU?$pair@U?$pair@V?$point_data@H@polygon@boost@@V123@@std@@V?$vector@U?$pair@HH@std@@V?$allocator@U?$pair@HH@std@@@2@@2@@1@QEAU21@AEBU21@@Z 000000018002ee80     minkowski.obj
 0002:00008e9c       $chain$5$??$_Emplace_reallocate@AEBU?$pair@U?$pair@V?$point_data@H@polygon@boost@@V123@@std@@V?$vector@U?$pair@HH@std@@V?$allocator@U?$pair@HH@std@@@2@@2@@std@@@?$vector@U?$pair@U?$pair@V?$point_data@H@polygon@boost@@V123@@std@@V?$vector@U?$pair@HH@std@@V?$allocator@U?$pair@HH@std@@@2@@2@@std@@V?$allocator@U?$pair@U?$pair@V?$point_data@H@polygon@boost@@V123@@std@@V?$vector@U?$pair@HH@std@@V?$allocator@U?$pair@HH@std@@@2@@2@@std@@@2@@std@@QEAAPEAU?$pair@U?$pair@V?$point_data@H@polygon@boost@@V123@@std@@V?$vector@U?$pair@HH@std@@V?$allocator@U?$pair@HH@std@@@2@@2@@1@QEAU21@AEBU21@@Z 000000018002ee9c     minkowski.obj
 0002:00008eac       $unwind$??$less_slope@H@?$scanline_base@H@polygon@boost@@SA_NHHHH@Z 000000018002eeac     minkowski.obj
 0002:00008eac       $unwind$??$_Push_heap_by_index@PEAU?$pair@U?$pair@V?$point_data@H@polygon@boost@@V123@@std@@H@std@@U12@U?$less@X@2@@std@@YAXPEAU?$pair@U?$pair@V?$point_data@H@polygon@boost@@V123@@std@@H@0@_J1$$QEAU10@U?$less@X@0@@Z 000000018002eeac     minkowski.obj
 0002:00008ebc       $unwind$??$_Destroy_range@V?$allocator@V?$set@V?$point_data@H@polygon@boost@@U?$less@V?$point_data@H@polygon@boost@@@std@@V?$allocator@V?$point_data@H@polygon@boost@@@5@@std@@@std@@@std@@YAXPEAV?$set@V?$point_data@H@polygon@boost@@U?$less@V?$point_data@H@polygon@boost@@@std@@V?$allocator@V?$point_data@H@polygon@boost@@@5@@0@0AEAV?$allocator@V?$set@V?$point_data@H@polygon@boost@@U?$less@V?$point_data@H@polygon@boost@@@std@@V?$allocator@V?$point_data@H@polygon@boost@@@5@@std@@@0@@Z 000000018002eebc     minkowski.obj
 0002:00008ec8       $chain$3$??$_Destroy_range@V?$allocator@V?$set@V?$point_data@H@polygon@boost@@U?$less@V?$point_data@H@polygon@boost@@@std@@V?$allocator@V?$point_data@H@polygon@boost@@@5@@std@@@std@@@std@@YAXPEAV?$set@V?$point_data@H@polygon@boost@@U?$less@V?$point_data@H@polygon@boost@@@std@@V?$allocator@V?$point_data@H@polygon@boost@@@5@@0@0AEAV?$allocator@V?$set@V?$point_data@H@polygon@boost@@U?$less@V?$point_data@H@polygon@boost@@@std@@V?$allocator@V?$point_data@H@polygon@boost@@@5@@std@@@0@@Z 000000018002eec8     minkowski.obj
 0002:00008ee8       $chain$4$??$_Destroy_range@V?$allocator@V?$set@V?$point_data@H@polygon@boost@@U?$less@V?$point_data@H@polygon@boost@@@std@@V?$allocator@V?$point_data@H@polygon@boost@@@5@@std@@@std@@@std@@YAXPEAV?$set@V?$point_data@H@polygon@boost@@U?$less@V?$point_data@H@polygon@boost@@@std@@V?$allocator@V?$point_data@H@polygon@boost@@@5@@0@0AEAV?$allocator@V?$set@V?$point_data@H@polygon@boost@@U?$less@V?$point_data@H@polygon@boost@@@std@@V?$allocator@V?$point_data@H@polygon@boost@@@5@@std@@@0@@Z 000000018002eee8     minkowski.obj
 0002:00008ef8       $unwind$??$_Insert_nohint@AEBV?$point_data@H@polygon@boost@@U_Not_a_node_tag@std@@@?$_Tree@V?$_Tset_traits@V?$point_data@H@polygon@boost@@U?$less@V?$point_data@H@polygon@boost@@@std@@V?$allocator@V?$point_data@H@polygon@boost@@@5@$0A@@std@@@std@@IEAA?AU?$pair@V?$_Tree_const_iterator@V?$_Tree_val@U?$_Tree_simple_types@V?$point_data@H@polygon@boost@@@std@@@std@@@std@@_N@1@_NAEBV?$point_data@H@polygon@boost@@U_Not_a_node_tag@1@@Z 000000018002eef8     minkowski.obj
 0002:00008ef8       $unwind$??A?$map@HV?$vector@U?$pair@U?$pair@V?$point_data@H@polygon@boost@@V123@@std@@H@std@@V?$allocator@U?$pair@U?$pair@V?$point_data@H@polygon@boost@@V123@@std@@H@std@@@2@@std@@U?$less@H@2@V?$allocator@U?$pair@$$CBHV?$vector@U?$pair@U?$pair@V?$point_data@H@polygon@boost@@V123@@std@@H@std@@V?$allocator@U?$pair@U?$pair@V?$point_data@H@polygon@boost@@V123@@std@@H@std@@@2@@std@@@std@@@2@@std@@QEAAAEAV?$vector@U?$pair@U?$pair@V?$point_data@H@polygon@boost@@V123@@std@@H@std@@V?$allocator@U?$pair@U?$pair@V?$point_data@H@polygon@boost@@V123@@std@@H@std@@@2@@1@AEBH@Z 000000018002eef8     minkowski.obj
 0002:00008f08       $unwind$?_Umove_if_noexcept@?$vector@U?$pair@U?$pair@V?$point_data@H@polygon@boost@@V123@@std@@V?$vector@U?$pair@HH@std@@V?$allocator@U?$pair@HH@std@@@2@@2@@std@@V?$allocator@U?$pair@U?$pair@V?$point_data@H@polygon@boost@@V123@@std@@V?$vector@U?$pair@HH@std@@V?$allocator@U?$pair@HH@std@@@2@@2@@std@@@2@@std@@AEAAXPEAU?$pair@U?$pair@V?$point_data@H@polygon@boost@@V123@@std@@V?$vector@U?$pair@HH@std@@V?$allocator@U?$pair@HH@std@@@2@@2@@2@00@Z 000000018002ef08     minkowski.obj
 0002:00008f14       $chain$1$?_Umove_if_noexcept@?$vector@U?$pair@U?$pair@V?$point_data@H@polygon@boost@@V123@@std@@V?$vector@U?$pair@HH@std@@V?$allocator@U?$pair@HH@std@@@2@@2@@std@@V?$allocator@U?$pair@U?$pair@V?$point_data@H@polygon@boost@@V123@@std@@V?$vector@U?$pair@HH@std@@V?$allocator@U?$pair@HH@std@@@2@@2@@std@@@2@@std@@AEAAXPEAU?$pair@U?$pair@V?$point_data@H@polygon@boost@@V123@@std@@V?$vector@U?$pair@HH@std@@V?$allocator@U?$pair@HH@std@@@2@@2@@2@00@Z 000000018002ef14     minkowski.obj
 0002:00008f2c       $chain$2$?_Umove_if_noexcept@?$vector@U?$pair@U?$pair@V?$point_data@H@polygon@boost@@V123@@std@@V?$vector@U?$pair@HH@std@@V?$allocator@U?$pair@HH@std@@@2@@2@@std@@V?$allocator@U?$pair@U?$pair@V?$point_data@H@polygon@boost@@V123@@std@@V?$vector@U?$pair@HH@std@@V?$allocator@U?$pair@HH@std@@@2@@2@@std@@@2@@std@@AEAAXPEAU?$pair@U?$pair@V?$point_data@H@polygon@boost@@V123@@std@@V?$vector@U?$pair@HH@std@@V?$allocator@U?$pair@HH@std@@@2@@2@@2@00@Z 000000018002ef2c     minkowski.obj
 0002:00008f3c       $unwind$??$_Sort_unchecked@PEAVvertex_half_edge@?$scanline_base@H@polygon@boost@@U?$less@X@std@@@std@@YAXPEAVvertex_half_edge@?$scanline_base@H@polygon@boost@@0_JU?$less@X@0@@Z 000000018002ef3c     minkowski.obj
 0002:00008f3c       $unwind$??$_Sort_unchecked@PEAU?$pair@U?$pair@V?$point_data@H@polygon@boost@@V123@@std@@U?$pair@HH@2@@std@@V?$less_vertex_data@U?$pair@U?$pair@V?$point_data@H@polygon@boost@@V123@@std@@U?$pair@HH@2@@std@@@?$arbitrary_boolean_op@H@polygon@boost@@@std@@YAXPEAU?$pair@U?$pair@V?$point_data@H@polygon@boost@@V123@@std@@U?$pair@HH@2@@0@0_JV?$less_vertex_data@U?$pair@U?$pair@V?$point_data@H@polygon@boost@@V123@@std@@U?$pair@HH@2@@std@@@?$arbitrary_boolean_op@H@polygon@boost@@@Z 000000018002ef3c     minkowski.obj
 0002:00008f58       $unwind$??$_Insert_hint@AEAU?$pair@$$CBVvertex_half_edge@?$scanline_base@H@polygon@boost@@PEAVactive_tail_arbitrary@?$polygon_arbitrary_formation@H@34@@std@@PEAU?$_Tree_node@U?$pair@$$CBVvertex_half_edge@?$scanline_base@H@polygon@boost@@PEAVactive_tail_arbitrary@?$polygon_arbitrary_formation@H@34@@std@@PEAX@2@@?$_Tree@V?$_Tmap_traits@Vvertex_half_edge@?$scanline_base@H@polygon@boost@@PEAVactive_tail_arbitrary@?$polygon_arbitrary_formation@H@34@Vless_vertex_half_edge@234@V?$allocator@U?$pair@$$CBVvertex_half_edge@?$scanline_base@H@polygon@boost@@PEAVactive_tail_arbitrary@?$polygon_arbitrary_formation@H@34@@std@@@std@@$0A@@std@@@std@@IEAA?AV?$_Tree_iterator@V?$_Tree_val@U?$_Tree_simple_types@U?$pair@$$CBVvertex_half_edge@?$scanline_base@H@polygon@boost@@PEAVactive_tail_arbitrary@?$polygon_arbitrary_formation@H@34@@std@@@std@@@std@@@1@V?$_Tree_const_iterator@V?$_Tree_val@U?$_Tree_simple_types@U?$pair@$$CBVvertex_half_edge@?$scanline_base@H@polygon@boost@@PEAVactive_tail_arbitrary@?$polygon_arbitrary_formation@H@34@@std@@@std@@@std@@@1@AEAU?$pair@$$CBVvertex_half_edge@?$scanline_base@H@polygon@boost@@PEAVactive_tail_arbitrary@?$polygon_arbitrary_formation@H@34@@1@PEAU?$_Tree_node@U?$pair@$$CBVvertex_half_edge@?$scanline_base@H@polygon@boost@@PEAVactive_tail_arbitrary@?$polygon_arbitrary_formation@H@34@@std@@PEAX@1@@Z 000000018002ef58     minkowski.obj
 0002:00008f70       $unwind$??$compute_histogram_in_y@V?$_Vector_iterator@V?$_Vector_val@U?$_Simple_types@U?$pair@U?$pair@V?$point_data@H@polygon@boost@@V123@@std@@H@std@@@std@@@std@@@std@@@?$line_intersection@H@polygon@boost@@SAXV?$_Vector_iterator@V?$_Vector_val@U?$_Simple_types@U?$pair@U?$pair@V?$point_data@H@polygon@boost@@V123@@std@@H@std@@@std@@@std@@@std@@0_KAEAV?$vector@U?$pair@HU?$pair@_K_K@std@@@std@@V?$allocator@U?$pair@HU?$pair@_K_K@std@@@std@@@2@@4@@Z 000000018002ef70     minkowski.obj
 0002:00008f88       $unwind$??$compute_y_cuts@V?$_Vector_iterator@V?$_Vector_val@U?$_Simple_types@U?$pair@HU?$pair@_K_K@std@@@std@@@std@@@std@@@std@@@?$line_intersection@H@polygon@boost@@SAXAEAV?$vector@HV?$allocator@H@std@@@std@@V?$_Vector_iterator@V?$_Vector_val@U?$_Simple_types@U?$pair@HU?$pair@_K_K@std@@@std@@@std@@@std@@@4@1_K@Z 000000018002ef88     minkowski.obj
 0002:00008f94       $chain$4$??$compute_y_cuts@V?$_Vector_iterator@V?$_Vector_val@U?$_Simple_types@U?$pair@HU?$pair@_K_K@std@@@std@@@std@@@std@@@std@@@?$line_intersection@H@polygon@boost@@SAXAEAV?$vector@HV?$allocator@H@std@@@std@@V?$_Vector_iterator@V?$_Vector_val@U?$_Simple_types@U?$pair@HU?$pair@_K_K@std@@@std@@@std@@@std@@@4@1_K@Z 000000018002ef94     minkowski.obj
 0002:00008fb8       $chain$5$??$compute_y_cuts@V?$_Vector_iterator@V?$_Vector_val@U?$_Simple_types@U?$pair@HU?$pair@_K_K@std@@@std@@@std@@@std@@@std@@@?$line_intersection@H@polygon@boost@@SAXAEAV?$vector@HV?$allocator@H@std@@@std@@V?$_Vector_iterator@V?$_Vector_val@U?$_Simple_types@U?$pair@HU?$pair@_K_K@std@@@std@@@std@@@std@@@4@1_K@Z 000000018002efb8     minkowski.obj
 0002:00008fc8       $unwind$??$validate_scan@V?$_Vector_iterator@V?$_Vector_val@U?$_Simple_types@U?$pair@U?$pair@V?$point_data@H@polygon@boost@@V123@@std@@H@std@@@std@@@std@@@std@@@?$line_intersection@H@polygon@boost@@SAXAEAV?$vector@V?$set@V?$point_data@H@polygon@boost@@U?$less@V?$point_data@H@polygon@boost@@@std@@V?$allocator@V?$point_data@H@polygon@boost@@@5@@std@@V?$allocator@V?$set@V?$point_data@H@polygon@boost@@U?$less@V?$point_data@H@polygon@boost@@@std@@V?$allocator@V?$point_data@H@polygon@boost@@@5@@std@@@2@@std@@V?$_Vector_iterator@V?$_Vector_val@U?$_Simple_types@U?$pair@U?$pair@V?$point_data@H@polygon@boost@@V123@@std@@H@std@@@std@@@std@@@4@1H@Z 000000018002efc8     minkowski.obj
 0002:00008ff0       $unwind$??$_Emplace_reallocate@V?$polygon_with_holes_data@H@polygon@boost@@@?$vector@V?$polygon_with_holes_data@H@polygon@boost@@V?$allocator@V?$polygon_with_holes_data@H@polygon@boost@@@std@@@std@@QEAAPEAV?$polygon_with_holes_data@H@polygon@boost@@QEAV234@$$QEAV234@@Z 000000018002eff0     minkowski.obj
 0002:00009000       $chain$3$??$_Emplace_reallocate@V?$polygon_with_holes_data@H@polygon@boost@@@?$vector@V?$polygon_with_holes_data@H@polygon@boost@@V?$allocator@V?$polygon_with_holes_data@H@polygon@boost@@@std@@@std@@QEAAPEAV?$polygon_with_holes_data@H@polygon@boost@@QEAV234@$$QEAV234@@Z 000000018002f000     minkowski.obj
 0002:00009020       $chain$4$??$_Emplace_reallocate@V?$polygon_with_holes_data@H@polygon@boost@@@?$vector@V?$polygon_with_holes_data@H@polygon@boost@@V?$allocator@V?$polygon_with_holes_data@H@polygon@boost@@@std@@@std@@QEAAPEAV?$polygon_with_holes_data@H@polygon@boost@@QEAV234@$$QEAV234@@Z 000000018002f020     minkowski.obj
 0002:00009030       $chain$5$??$_Emplace_reallocate@V?$polygon_with_holes_data@H@polygon@boost@@@?$vector@V?$polygon_with_holes_data@H@polygon@boost@@V?$allocator@V?$polygon_with_holes_data@H@polygon@boost@@@std@@@std@@QEAAPEAV?$polygon_with_holes_data@H@polygon@boost@@QEAV234@$$QEAV234@@Z 000000018002f030     minkowski.obj
 0002:00009050       $unwind$?intersects_grid@?$scanline_base@H@polygon@boost@@SA_NV?$point_data@H@23@AEBU?$pair@V?$point_data@H@polygon@boost@@V123@@std@@@Z 000000018002f050     minkowski.obj
 0002:00009074       $unwind$?compute_exact_intersection@compute_intersection_pack@?$scanline_base@H@polygon@boost@@QEAA_NAEAV?$point_data@H@34@AEBU?$pair@V?$point_data@H@polygon@boost@@V123@@std@@1_N2@Z 000000018002f074     minkowski.obj
 0002:0000908c       $unwind$?compute_lazy_intersection@compute_intersection_pack@?$scanline_base@H@polygon@boost@@SA_NAEAV?$point_data@H@34@AEBU?$pair@V?$point_data@H@polygon@boost@@V123@@std@@1_N2@Z 000000018002f08c     minkowski.obj
 0002:000090c4       $chain$6$?compute_lazy_intersection@compute_intersection_pack@?$scanline_base@H@polygon@boost@@SA_NAEAV?$point_data@H@34@AEBU?$pair@V?$point_data@H@polygon@boost@@V123@@std@@1_N2@Z 000000018002f0c4     minkowski.obj
 0002:000090d8       $chain$7$?compute_lazy_intersection@compute_intersection_pack@?$scanline_base@H@polygon@boost@@SA_NAEAV?$point_data@H@34@AEBU?$pair@V?$point_data@H@polygon@boost@@V123@@std@@1_N2@Z 000000018002f0d8     minkowski.obj
 0002:000090e8       $unwind$?intersects@?$scanline_base@H@polygon@boost@@SA_NAEBU?$pair@V?$point_data@H@polygon@boost@@V123@@std@@0@Z 000000018002f0e8     minkowski.obj
 0002:00009100       $unwind$??$_Partition_by_median_guess_unchecked@PEAVvertex_half_edge@?$scanline_base@H@polygon@boost@@U?$less@X@std@@@std@@YA?AU?$pair@PEAVvertex_half_edge@?$scanline_base@H@polygon@boost@@PEAV1234@@0@PEAVvertex_half_edge@?$scanline_base@H@polygon@boost@@0U?$less@X@0@@Z 000000018002f100     minkowski.obj
 0002:00009118       $unwind$??$_Insertion_sort_unchecked@PEAVvertex_half_edge@?$scanline_base@H@polygon@boost@@U?$less@X@std@@@std@@YAPEAVvertex_half_edge@?$scanline_base@H@polygon@boost@@PEAV1234@QEAV1234@U?$less@X@0@@Z 000000018002f118     minkowski.obj
 0002:00009128       $chain$0$??$_Insertion_sort_unchecked@PEAVvertex_half_edge@?$scanline_base@H@polygon@boost@@U?$less@X@std@@@std@@YAPEAVvertex_half_edge@?$scanline_base@H@polygon@boost@@PEAV1234@QEAV1234@U?$less@X@0@@Z 000000018002f128     minkowski.obj
 0002:0000913c       $chain$6$??$_Insertion_sort_unchecked@PEAVvertex_half_edge@?$scanline_base@H@polygon@boost@@U?$less@X@std@@@std@@YAPEAVvertex_half_edge@?$scanline_base@H@polygon@boost@@PEAV1234@QEAV1234@U?$less@X@0@@Z 000000018002f13c     minkowski.obj
 0002:00009164       $chain$7$??$_Insertion_sort_unchecked@PEAVvertex_half_edge@?$scanline_base@H@polygon@boost@@U?$less@X@std@@@std@@YAPEAVvertex_half_edge@?$scanline_base@H@polygon@boost@@PEAV1234@QEAV1234@U?$less@X@0@@Z 000000018002f164     minkowski.obj
 0002:00009174       $chain$8$??$_Insertion_sort_unchecked@PEAVvertex_half_edge@?$scanline_base@H@polygon@boost@@U?$less@X@std@@@std@@YAPEAVvertex_half_edge@?$scanline_base@H@polygon@boost@@PEAV1234@QEAV1234@U?$less@X@0@@Z 000000018002f174     minkowski.obj
 0002:00009174       $chain$11$??$_Insertion_sort_unchecked@PEAVvertex_half_edge@?$scanline_base@H@polygon@boost@@U?$less@X@std@@@std@@YAPEAVvertex_half_edge@?$scanline_base@H@polygon@boost@@PEAV1234@QEAV1234@U?$less@X@0@@Z 000000018002f174     minkowski.obj
 0002:00009184       $chain$9$??$_Insertion_sort_unchecked@PEAVvertex_half_edge@?$scanline_base@H@polygon@boost@@U?$less@X@std@@@std@@YAPEAVvertex_half_edge@?$scanline_base@H@polygon@boost@@PEAV1234@QEAV1234@U?$less@X@0@@Z 000000018002f184     minkowski.obj
 0002:000091b0       $chain$10$??$_Insertion_sort_unchecked@PEAVvertex_half_edge@?$scanline_base@H@polygon@boost@@U?$less@X@std@@@std@@YAPEAVvertex_half_edge@?$scanline_base@H@polygon@boost@@PEAV1234@QEAV1234@U?$less@X@0@@Z 000000018002f1b0     minkowski.obj
 0002:000091c4       $chain$0$??$_Insert_at@AEAU?$pair@$$CBVvertex_half_edge@?$scanline_base@H@polygon@boost@@PEAVactive_tail_arbitrary@?$polygon_arbitrary_formation@H@34@@std@@PEAU?$_Tree_node@U?$pair@$$CBVvertex_half_edge@?$scanline_base@H@polygon@boost@@PEAVactive_tail_arbitrary@?$polygon_arbitrary_formation@H@34@@std@@PEAX@2@@?$_Tree@V?$_Tmap_traits@Vvertex_half_edge@?$scanline_base@H@polygon@boost@@PEAVactive_tail_arbitrary@?$polygon_arbitrary_formation@H@34@Vless_vertex_half_edge@234@V?$allocator@U?$pair@$$CBVvertex_half_edge@?$scanline_base@H@polygon@boost@@PEAVactive_tail_arbitrary@?$polygon_arbitrary_formation@H@34@@std@@@std@@$0A@@std@@@std@@IEAA?AV?$_Tree_iterator@V?$_Tree_val@U?$_Tree_simple_types@U?$pair@$$CBVvertex_half_edge@?$scanline_base@H@polygon@boost@@PEAVactive_tail_arbitrary@?$polygon_arbitrary_formation@H@34@@std@@@std@@@std@@@1@_NPEAU?$_Tree_node@U?$pair@$$CBVvertex_half_edge@?$scanline_base@H@polygon@boost@@PEAVactive_tail_arbitrary@?$polygon_arbitrary_formation@H@34@@std@@PEAX@1@AEAU?$pair@$$CBVvertex_half_edge@?$scanline_base@H@polygon@boost@@PEAVactive_tail_arbitrary@?$polygon_arbitrary_formation@H@34@@1@1@Z 000000018002f1c4     minkowski.obj
 0002:000091d8       $chain$1$??$_Insert_at@AEAU?$pair@$$CBVvertex_half_edge@?$scanline_base@H@polygon@boost@@PEAVactive_tail_arbitrary@?$polygon_arbitrary_formation@H@34@@std@@PEAU?$_Tree_node@U?$pair@$$CBVvertex_half_edge@?$scanline_base@H@polygon@boost@@PEAVactive_tail_arbitrary@?$polygon_arbitrary_formation@H@34@@std@@PEAX@2@@?$_Tree@V?$_Tmap_traits@Vvertex_half_edge@?$scanline_base@H@polygon@boost@@PEAVactive_tail_arbitrary@?$polygon_arbitrary_formation@H@34@Vless_vertex_half_edge@234@V?$allocator@U?$pair@$$CBVvertex_half_edge@?$scanline_base@H@polygon@boost@@PEAVactive_tail_arbitrary@?$polygon_arbitrary_formation@H@34@@std@@@std@@$0A@@std@@@std@@IEAA?AV?$_Tree_iterator@V?$_Tree_val@U?$_Tree_simple_types@U?$pair@$$CBVvertex_half_edge@?$scanline_base@H@polygon@boost@@PEAVactive_tail_arbitrary@?$polygon_arbitrary_formation@H@34@@std@@@std@@@std@@@1@_NPEAU?$_Tree_node@U?$pair@$$CBVvertex_half_edge@?$scanline_base@H@polygon@boost@@PEAVactive_tail_arbitrary@?$polygon_arbitrary_formation@H@34@@std@@PEAX@1@AEAU?$pair@$$CBVvertex_half_edge@?$scanline_base@H@polygon@boost@@PEAVactive_tail_arbitrary@?$polygon_arbitrary_formation@H@34@@1@1@Z 000000018002f1d8     minkowski.obj
 0002:000091e8       $unwind$??$_Insert_range@V?$_Tree_unchecked_const_iterator@V?$_Tree_val@U?$_Tree_simple_types@V?$point_data@H@polygon@boost@@@std@@@std@@U_Iterator_base0@2@@std@@@?$vector@V?$point_data@H@polygon@boost@@V?$allocator@V?$point_data@H@polygon@boost@@@std@@@std@@AEAAXV?$_Vector_const_iterator@V?$_Vector_val@U?$_Simple_types@V?$point_data@H@polygon@boost@@@std@@@std@@@1@V?$_Tree_unchecked_const_iterator@V?$_Tree_val@U?$_Tree_simple_types@V?$point_data@H@polygon@boost@@@std@@@std@@U_Iterator_base0@2@@1@1Uforward_iterator_tag@1@@Z 000000018002f1e8     minkowski.obj
 0002:00009200       $chain$1$??$_Insert_range@V?$_Tree_unchecked_const_iterator@V?$_Tree_val@U?$_Tree_simple_types@V?$point_data@H@polygon@boost@@@std@@@std@@U_Iterator_base0@2@@std@@@?$vector@V?$point_data@H@polygon@boost@@V?$allocator@V?$point_data@H@polygon@boost@@@std@@@std@@AEAAXV?$_Vector_const_iterator@V?$_Vector_val@U?$_Simple_types@V?$point_data@H@polygon@boost@@@std@@@std@@@1@V?$_Tree_unchecked_const_iterator@V?$_Tree_val@U?$_Tree_simple_types@V?$point_data@H@polygon@boost@@@std@@@std@@U_Iterator_base0@2@@1@1Uforward_iterator_tag@1@@Z 000000018002f200     minkowski.obj
 0002:00009214       $chain$2$??$_Insert_range@V?$_Tree_unchecked_const_iterator@V?$_Tree_val@U?$_Tree_simple_types@V?$point_data@H@polygon@boost@@@std@@@std@@U_Iterator_base0@2@@std@@@?$vector@V?$point_data@H@polygon@boost@@V?$allocator@V?$point_data@H@polygon@boost@@@std@@@std@@AEAAXV?$_Vector_const_iterator@V?$_Vector_val@U?$_Simple_types@V?$point_data@H@polygon@boost@@@std@@@std@@@1@V?$_Tree_unchecked_const_iterator@V?$_Tree_val@U?$_Tree_simple_types@V?$point_data@H@polygon@boost@@@std@@@std@@U_Iterator_base0@2@@1@1Uforward_iterator_tag@1@@Z 000000018002f214     minkowski.obj
 0002:00009214       $chain$4$??$_Insert_range@V?$_Tree_unchecked_const_iterator@V?$_Tree_val@U?$_Tree_simple_types@V?$point_data@H@polygon@boost@@@std@@@std@@U_Iterator_base0@2@@std@@@?$vector@V?$point_data@H@polygon@boost@@V?$allocator@V?$point_data@H@polygon@boost@@@std@@@std@@AEAAXV?$_Vector_const_iterator@V?$_Vector_val@U?$_Simple_types@V?$point_data@H@polygon@boost@@@std@@@std@@@1@V?$_Tree_unchecked_const_iterator@V?$_Tree_val@U?$_Tree_simple_types@V?$point_data@H@polygon@boost@@@std@@@std@@U_Iterator_base0@2@@1@1Uforward_iterator_tag@1@@Z 000000018002f214     minkowski.obj
 0002:00009224       $chain$3$??$_Insert_range@V?$_Tree_unchecked_const_iterator@V?$_Tree_val@U?$_Tree_simple_types@V?$point_data@H@polygon@boost@@@std@@@std@@U_Iterator_base0@2@@std@@@?$vector@V?$point_data@H@polygon@boost@@V?$allocator@V?$point_data@H@polygon@boost@@@std@@@std@@AEAAXV?$_Vector_const_iterator@V?$_Vector_val@U?$_Simple_types@V?$point_data@H@polygon@boost@@@std@@@std@@@1@V?$_Tree_unchecked_const_iterator@V?$_Tree_val@U?$_Tree_simple_types@V?$point_data@H@polygon@boost@@@std@@@std@@U_Iterator_base0@2@@1@1Uforward_iterator_tag@1@@Z 000000018002f224     minkowski.obj
 0002:00009238       $unwind$??$_Partition_by_median_guess_unchecked@PEAU?$pair@U?$pair@V?$point_data@H@polygon@boost@@V123@@std@@U?$pair@HH@2@@std@@V?$less_vertex_data@U?$pair@U?$pair@V?$point_data@H@polygon@boost@@V123@@std@@U?$pair@HH@2@@std@@@?$arbitrary_boolean_op@H@polygon@boost@@@std@@YA?AU?$pair@PEAU?$pair@U?$pair@V?$point_data@H@polygon@boost@@V123@@std@@U?$pair@HH@2@@std@@PEAU12@@0@PEAU?$pair@U?$pair@V?$point_data@H@polygon@boost@@V123@@std@@U?$pair@HH@2@@0@0V?$less_vertex_data@U?$pair@U?$pair@V?$point_data@H@polygon@boost@@V123@@std@@U?$pair@HH@2@@std@@@?$arbitrary_boolean_op@H@polygon@boost@@@Z 000000018002f238     minkowski.obj
 0002:00009250       $unwind$??$_Insertion_sort_unchecked@PEAU?$pair@U?$pair@V?$point_data@H@polygon@boost@@V123@@std@@U?$pair@HH@2@@std@@V?$less_vertex_data@U?$pair@U?$pair@V?$point_data@H@polygon@boost@@V123@@std@@U?$pair@HH@2@@std@@@?$arbitrary_boolean_op@H@polygon@boost@@@std@@YAPEAU?$pair@U?$pair@V?$point_data@H@polygon@boost@@V123@@std@@U?$pair@HH@2@@0@PEAU10@QEAU10@V?$less_vertex_data@U?$pair@U?$pair@V?$point_data@H@polygon@boost@@V123@@std@@U?$pair@HH@2@@std@@@?$arbitrary_boolean_op@H@polygon@boost@@@Z 000000018002f250     minkowski.obj
 0002:00009268       $chain$0$??$_Insertion_sort_unchecked@PEAU?$pair@U?$pair@V?$point_data@H@polygon@boost@@V123@@std@@U?$pair@HH@2@@std@@V?$less_vertex_data@U?$pair@U?$pair@V?$point_data@H@polygon@boost@@V123@@std@@U?$pair@HH@2@@std@@@?$arbitrary_boolean_op@H@polygon@boost@@@std@@YAPEAU?$pair@U?$pair@V?$point_data@H@polygon@boost@@V123@@std@@U?$pair@HH@2@@0@PEAU10@QEAU10@V?$less_vertex_data@U?$pair@U?$pair@V?$point_data@H@polygon@boost@@V123@@std@@U?$pair@HH@2@@std@@@?$arbitrary_boolean_op@H@polygon@boost@@@Z 000000018002f268     minkowski.obj
 0002:0000927c       $chain$3$??$_Insertion_sort_unchecked@PEAU?$pair@U?$pair@V?$point_data@H@polygon@boost@@V123@@std@@U?$pair@HH@2@@std@@V?$less_vertex_data@U?$pair@U?$pair@V?$point_data@H@polygon@boost@@V123@@std@@U?$pair@HH@2@@std@@@?$arbitrary_boolean_op@H@polygon@boost@@@std@@YAPEAU?$pair@U?$pair@V?$point_data@H@polygon@boost@@V123@@std@@U?$pair@HH@2@@0@PEAU10@QEAU10@V?$less_vertex_data@U?$pair@U?$pair@V?$point_data@H@polygon@boost@@V123@@std@@U?$pair@HH@2@@std@@@?$arbitrary_boolean_op@H@polygon@boost@@@Z 000000018002f27c     minkowski.obj
 0002:00009298       $chain$4$??$_Insertion_sort_unchecked@PEAU?$pair@U?$pair@V?$point_data@H@polygon@boost@@V123@@std@@U?$pair@HH@2@@std@@V?$less_vertex_data@U?$pair@U?$pair@V?$point_data@H@polygon@boost@@V123@@std@@U?$pair@HH@2@@std@@@?$arbitrary_boolean_op@H@polygon@boost@@@std@@YAPEAU?$pair@U?$pair@V?$point_data@H@polygon@boost@@V123@@std@@U?$pair@HH@2@@0@PEAU10@QEAU10@V?$less_vertex_data@U?$pair@U?$pair@V?$point_data@H@polygon@boost@@V123@@std@@U?$pair@HH@2@@std@@@?$arbitrary_boolean_op@H@polygon@boost@@@Z 000000018002f298     minkowski.obj
 0002:000092a8       $chain$5$??$_Insertion_sort_unchecked@PEAU?$pair@U?$pair@V?$point_data@H@polygon@boost@@V123@@std@@U?$pair@HH@2@@std@@V?$less_vertex_data@U?$pair@U?$pair@V?$point_data@H@polygon@boost@@V123@@std@@U?$pair@HH@2@@std@@@?$arbitrary_boolean_op@H@polygon@boost@@@std@@YAPEAU?$pair@U?$pair@V?$point_data@H@polygon@boost@@V123@@std@@U?$pair@HH@2@@0@PEAU10@QEAU10@V?$less_vertex_data@U?$pair@U?$pair@V?$point_data@H@polygon@boost@@V123@@std@@U?$pair@HH@2@@std@@@?$arbitrary_boolean_op@H@polygon@boost@@@Z 000000018002f2a8     minkowski.obj
 0002:000092a8       $chain$8$??$_Insertion_sort_unchecked@PEAU?$pair@U?$pair@V?$point_data@H@polygon@boost@@V123@@std@@U?$pair@HH@2@@std@@V?$less_vertex_data@U?$pair@U?$pair@V?$point_data@H@polygon@boost@@V123@@std@@U?$pair@HH@2@@std@@@?$arbitrary_boolean_op@H@polygon@boost@@@std@@YAPEAU?$pair@U?$pair@V?$point_data@H@polygon@boost@@V123@@std@@U?$pair@HH@2@@0@PEAU10@QEAU10@V?$less_vertex_data@U?$pair@U?$pair@V?$point_data@H@polygon@boost@@V123@@std@@U?$pair@HH@2@@std@@@?$arbitrary_boolean_op@H@polygon@boost@@@Z 000000018002f2a8     minkowski.obj
 0002:000092b8       $chain$6$??$_Insertion_sort_unchecked@PEAU?$pair@U?$pair@V?$point_data@H@polygon@boost@@V123@@std@@U?$pair@HH@2@@std@@V?$less_vertex_data@U?$pair@U?$pair@V?$point_data@H@polygon@boost@@V123@@std@@U?$pair@HH@2@@std@@@?$arbitrary_boolean_op@H@polygon@boost@@@std@@YAPEAU?$pair@U?$pair@V?$point_data@H@polygon@boost@@V123@@std@@U?$pair@HH@2@@0@PEAU10@QEAU10@V?$less_vertex_data@U?$pair@U?$pair@V?$point_data@H@polygon@boost@@V123@@std@@U?$pair@HH@2@@std@@@?$arbitrary_boolean_op@H@polygon@boost@@@Z 000000018002f2b8     minkowski.obj
 0002:000092d8       $chain$7$??$_Insertion_sort_unchecked@PEAU?$pair@U?$pair@V?$point_data@H@polygon@boost@@V123@@std@@U?$pair@HH@2@@std@@V?$less_vertex_data@U?$pair@U?$pair@V?$point_data@H@polygon@boost@@V123@@std@@U?$pair@HH@2@@std@@@?$arbitrary_boolean_op@H@polygon@boost@@@std@@YAPEAU?$pair@U?$pair@V?$point_data@H@polygon@boost@@V123@@std@@U?$pair@HH@2@@0@PEAU10@QEAU10@V?$less_vertex_data@U?$pair@U?$pair@V?$point_data@H@polygon@boost@@V123@@std@@U?$pair@HH@2@@std@@@?$arbitrary_boolean_op@H@polygon@boost@@@Z 000000018002f2d8     minkowski.obj
 0002:000092ec       $unwind$??$_Sort_unchecked@PEAU?$pair@U?$pair@V?$point_data@H@polygon@boost@@V123@@std@@H@std@@U?$less@X@2@@std@@YAXPEAU?$pair@U?$pair@V?$point_data@H@polygon@boost@@V123@@std@@H@0@0_JU?$less@X@0@@Z 000000018002f2ec     minkowski.obj
 0002:00009308       $chain$0$??$_Insert_at@AEAU?$pair@$$CBU?$pair@V?$point_data@H@polygon@boost@@V123@@std@@V?$vector@U?$pair@HH@std@@V?$allocator@U?$pair@HH@std@@@2@@2@@std@@PEAU?$_Tree_node@U?$pair@$$CBU?$pair@V?$point_data@H@polygon@boost@@V123@@std@@V?$vector@U?$pair@HH@std@@V?$allocator@U?$pair@HH@std@@@2@@2@@std@@PEAX@2@@?$_Tree@V?$_Tmap_traits@U?$pair@V?$point_data@H@polygon@boost@@V123@@std@@V?$vector@U?$pair@HH@std@@V?$allocator@U?$pair@HH@std@@@2@@2@Vless_half_edge@?$scanline_base@H@polygon@boost@@V?$allocator@U?$pair@$$CBU?$pair@V?$point_data@H@polygon@boost@@V123@@std@@V?$vector@U?$pair@HH@std@@V?$allocator@U?$pair@HH@std@@@2@@2@@std@@@2@$0A@@std@@@std@@IEAA?AV?$_Tree_iterator@V?$_Tree_val@U?$_Tree_simple_types@U?$pair@$$CBU?$pair@V?$point_data@H@polygon@boost@@V123@@std@@V?$vector@U?$pair@HH@std@@V?$allocator@U?$pair@HH@std@@@2@@2@@std@@@std@@@std@@@1@_NPEAU?$_Tree_node@U?$pair@$$CBU?$pair@V?$point_data@H@polygon@boost@@V123@@std@@V?$vector@U?$pair@HH@std@@V?$allocator@U?$pair@HH@std@@@2@@2@@std@@PEAX@1@AEAU?$pair@$$CBU?$pair@V?$point_data@H@polygon@boost@@V123@@std@@V?$vector@U?$pair@HH@std@@V?$allocator@U?$pair@HH@std@@@2@@2@@1@1@Z 000000018002f308     minkowski.obj
 0002:0000931c       $chain$1$??$_Insert_at@AEAU?$pair@$$CBU?$pair@V?$point_data@H@polygon@boost@@V123@@std@@V?$vector@U?$pair@HH@std@@V?$allocator@U?$pair@HH@std@@@2@@2@@std@@PEAU?$_Tree_node@U?$pair@$$CBU?$pair@V?$point_data@H@polygon@boost@@V123@@std@@V?$vector@U?$pair@HH@std@@V?$allocator@U?$pair@HH@std@@@2@@2@@std@@PEAX@2@@?$_Tree@V?$_Tmap_traits@U?$pair@V?$point_data@H@polygon@boost@@V123@@std@@V?$vector@U?$pair@HH@std@@V?$allocator@U?$pair@HH@std@@@2@@2@Vless_half_edge@?$scanline_base@H@polygon@boost@@V?$allocator@U?$pair@$$CBU?$pair@V?$point_data@H@polygon@boost@@V123@@std@@V?$vector@U?$pair@HH@std@@V?$allocator@U?$pair@HH@std@@@2@@2@@std@@@2@$0A@@std@@@std@@IEAA?AV?$_Tree_iterator@V?$_Tree_val@U?$_Tree_simple_types@U?$pair@$$CBU?$pair@V?$point_data@H@polygon@boost@@V123@@std@@V?$vector@U?$pair@HH@std@@V?$allocator@U?$pair@HH@std@@@2@@2@@std@@@std@@@std@@@1@_NPEAU?$_Tree_node@U?$pair@$$CBU?$pair@V?$point_data@H@polygon@boost@@V123@@std@@V?$vector@U?$pair@HH@std@@V?$allocator@U?$pair@HH@std@@@2@@2@@std@@PEAX@1@AEAU?$pair@$$CBU?$pair@V?$point_data@H@polygon@boost@@V123@@std@@V?$vector@U?$pair@HH@std@@V?$allocator@U?$pair@HH@std@@@2@@2@@1@1@Z 000000018002f31c     minkowski.obj
 0002:0000932c       $unwind$??$_Sort_unchecked@PEAU?$pair@U?$pair@U?$pair@V?$point_data@H@polygon@boost@@V123@@std@@H@std@@PEAVactive_tail_arbitrary@?$polygon_arbitrary_formation@H@polygon@boost@@@std@@U?$_Ref_fn@Vless_incoming_count@?$polygon_arbitrary_formation@H@polygon@boost@@@2@@std@@YAXPEAU?$pair@U?$pair@U?$pair@V?$point_data@H@polygon@boost@@V123@@std@@H@std@@PEAVactive_tail_arbitrary@?$polygon_arbitrary_formation@H@polygon@boost@@@0@0_JU?$_Ref_fn@Vless_incoming_count@?$polygon_arbitrary_formation@H@polygon@boost@@@0@@Z 000000018002f32c     minkowski.obj
 0002:00009348       $unwind$??$_Sort_unchecked@PEAU?$pair@V?$point_data@H@polygon@boost@@H@std@@U?$_Ref_fn@Vless_half_edge_count@?$polygon_arbitrary_formation@H@polygon@boost@@@2@@std@@YAXPEAU?$pair@V?$point_data@H@polygon@boost@@H@0@0_JU?$_Ref_fn@Vless_half_edge_count@?$polygon_arbitrary_formation@H@polygon@boost@@@0@@Z 000000018002f348     minkowski.obj
 0002:00009364       $chain$1$??$_Emplace_reallocate@U?$pair@HU?$pair@_K_K@std@@@std@@@?$vector@U?$pair@HU?$pair@_K_K@std@@@std@@V?$allocator@U?$pair@HU?$pair@_K_K@std@@@std@@@2@@std@@QEAAPEAU?$pair@HU?$pair@_K_K@std@@@1@QEAU21@$$QEAU21@@Z 000000018002f364     minkowski.obj
 0002:0000937c       $chain$3$??$_Emplace_reallocate@U?$pair@HU?$pair@_K_K@std@@@std@@@?$vector@U?$pair@HU?$pair@_K_K@std@@@std@@V?$allocator@U?$pair@HU?$pair@_K_K@std@@@std@@@2@@std@@QEAAPEAU?$pair@HU?$pair@_K_K@std@@@1@QEAU21@$$QEAU21@@Z 000000018002f37c     minkowski.obj
 0002:00009394       $chain$4$??$_Emplace_reallocate@U?$pair@HU?$pair@_K_K@std@@@std@@@?$vector@U?$pair@HU?$pair@_K_K@std@@@std@@V?$allocator@U?$pair@HU?$pair@_K_K@std@@@std@@@2@@std@@QEAAPEAU?$pair@HU?$pair@_K_K@std@@@1@QEAU21@$$QEAU21@@Z 000000018002f394     minkowski.obj
 0002:000093a4       $unwind$??$_Pop_heap_hole_by_index@PEAVvertex_half_edge@?$scanline_base@H@polygon@boost@@V1234@U?$less@X@std@@@std@@YAXPEAVvertex_half_edge@?$scanline_base@H@polygon@boost@@_J1$$QEAV1234@U?$less@X@0@@Z 000000018002f3a4     minkowski.obj
 0002:000093b8       $chain$0$??$_Pop_heap_hole_by_index@PEAVvertex_half_edge@?$scanline_base@H@polygon@boost@@V1234@U?$less@X@std@@@std@@YAXPEAVvertex_half_edge@?$scanline_base@H@polygon@boost@@_J1$$QEAV1234@U?$less@X@0@@Z 000000018002f3b8     minkowski.obj
 0002:000093cc       $chain$1$??$_Pop_heap_hole_by_index@PEAVvertex_half_edge@?$scanline_base@H@polygon@boost@@V1234@U?$less@X@std@@@std@@YAXPEAVvertex_half_edge@?$scanline_base@H@polygon@boost@@_J1$$QEAV1234@U?$less@X@0@@Z 000000018002f3cc     minkowski.obj
 0002:000093e0       $chain$2$??$_Pop_heap_hole_by_index@PEAVvertex_half_edge@?$scanline_base@H@polygon@boost@@V1234@U?$less@X@std@@@std@@YAXPEAVvertex_half_edge@?$scanline_base@H@polygon@boost@@_J1$$QEAV1234@U?$less@X@0@@Z 000000018002f3e0     minkowski.obj
 0002:000093f0       $chain$3$??$_Pop_heap_hole_by_index@PEAVvertex_half_edge@?$scanline_base@H@polygon@boost@@V1234@U?$less@X@std@@@std@@YAXPEAVvertex_half_edge@?$scanline_base@H@polygon@boost@@_J1$$QEAV1234@U?$less@X@0@@Z 000000018002f3f0     minkowski.obj
 0002:00009400       $unwind$??$_Pop_heap_hole_by_index@PEAU?$pair@U?$pair@V?$point_data@H@polygon@boost@@V123@@std@@U?$pair@HH@2@@std@@U12@V?$less_vertex_data@U?$pair@U?$pair@V?$point_data@H@polygon@boost@@V123@@std@@U?$pair@HH@2@@std@@@?$arbitrary_boolean_op@H@polygon@boost@@@std@@YAXPEAU?$pair@U?$pair@V?$point_data@H@polygon@boost@@V123@@std@@U?$pair@HH@2@@0@_J1$$QEAU10@V?$less_vertex_data@U?$pair@U?$pair@V?$point_data@H@polygon@boost@@V123@@std@@U?$pair@HH@2@@std@@@?$arbitrary_boolean_op@H@polygon@boost@@@Z 000000018002f400     minkowski.obj
 0002:00009418       $unwind$??$_Partition_by_median_guess_unchecked@PEAU?$pair@U?$pair@V?$point_data@H@polygon@boost@@V123@@std@@H@std@@U?$less@X@2@@std@@YA?AU?$pair@PEAU?$pair@U?$pair@V?$point_data@H@polygon@boost@@V123@@std@@H@std@@PEAU12@@0@PEAU?$pair@U?$pair@V?$point_data@H@polygon@boost@@V123@@std@@H@0@0U?$less@X@0@@Z 000000018002f418     minkowski.obj
 0002:0000942c       $chain$0$??$_Partition_by_median_guess_unchecked@PEAU?$pair@U?$pair@V?$point_data@H@polygon@boost@@V123@@std@@H@std@@U?$less@X@2@@std@@YA?AU?$pair@PEAU?$pair@U?$pair@V?$point_data@H@polygon@boost@@V123@@std@@H@std@@PEAU12@@0@PEAU?$pair@U?$pair@V?$point_data@H@polygon@boost@@V123@@std@@H@0@0U?$less@X@0@@Z 000000018002f42c     minkowski.obj
 0002:00009440       $chain$1$??$_Partition_by_median_guess_unchecked@PEAU?$pair@U?$pair@V?$point_data@H@polygon@boost@@V123@@std@@H@std@@U?$less@X@2@@std@@YA?AU?$pair@PEAU?$pair@U?$pair@V?$point_data@H@polygon@boost@@V123@@std@@H@std@@PEAU12@@0@PEAU?$pair@U?$pair@V?$point_data@H@polygon@boost@@V123@@std@@H@0@0U?$less@X@0@@Z 000000018002f440     minkowski.obj
 0002:00009454       $chain$2$??$_Partition_by_median_guess_unchecked@PEAU?$pair@U?$pair@V?$point_data@H@polygon@boost@@V123@@std@@H@std@@U?$less@X@2@@std@@YA?AU?$pair@PEAU?$pair@U?$pair@V?$point_data@H@polygon@boost@@V123@@std@@H@std@@PEAU12@@0@PEAU?$pair@U?$pair@V?$point_data@H@polygon@boost@@V123@@std@@H@0@0U?$less@X@0@@Z 000000018002f454     minkowski.obj
 0002:00009464       $chain$3$??$_Partition_by_median_guess_unchecked@PEAU?$pair@U?$pair@V?$point_data@H@polygon@boost@@V123@@std@@H@std@@U?$less@X@2@@std@@YA?AU?$pair@PEAU?$pair@U?$pair@V?$point_data@H@polygon@boost@@V123@@std@@H@std@@PEAU12@@0@PEAU?$pair@U?$pair@V?$point_data@H@polygon@boost@@V123@@std@@H@0@0U?$less@X@0@@Z 000000018002f464     minkowski.obj
 0002:00009474       $unwind$??$_Make_heap_unchecked@PEAU?$pair@U?$pair@V?$point_data@H@polygon@boost@@V123@@std@@H@std@@U?$less@X@2@@std@@YAXPEAU?$pair@U?$pair@V?$point_data@H@polygon@boost@@V123@@std@@H@0@0U?$less@X@0@@Z 000000018002f474     minkowski.obj
 0002:00009480       $chain$3$??$_Make_heap_unchecked@PEAU?$pair@U?$pair@V?$point_data@H@polygon@boost@@V123@@std@@H@std@@U?$less@X@2@@std@@YAXPEAU?$pair@U?$pair@V?$point_data@H@polygon@boost@@V123@@std@@H@0@0U?$less@X@0@@Z 000000018002f480     minkowski.obj
 0002:000094a0       $chain$4$??$_Make_heap_unchecked@PEAU?$pair@U?$pair@V?$point_data@H@polygon@boost@@V123@@std@@H@std@@U?$less@X@2@@std@@YAXPEAU?$pair@U?$pair@V?$point_data@H@polygon@boost@@V123@@std@@H@0@0U?$less@X@0@@Z 000000018002f4a0     minkowski.obj
 0002:000094b0       $unwind$??$_Insertion_sort_unchecked@PEAU?$pair@U?$pair@V?$point_data@H@polygon@boost@@V123@@std@@H@std@@U?$less@X@2@@std@@YAPEAU?$pair@U?$pair@V?$point_data@H@polygon@boost@@V123@@std@@H@0@PEAU10@QEAU10@U?$less@X@0@@Z 000000018002f4b0     minkowski.obj
 0002:000094b8       $chain$5$??$_Insertion_sort_unchecked@PEAU?$pair@U?$pair@V?$point_data@H@polygon@boost@@V123@@std@@H@std@@U?$less@X@2@@std@@YAPEAU?$pair@U?$pair@V?$point_data@H@polygon@boost@@V123@@std@@H@0@PEAU10@QEAU10@U?$less@X@0@@Z 000000018002f4b8     minkowski.obj
 0002:000094e0       $chain$7$??$_Insertion_sort_unchecked@PEAU?$pair@U?$pair@V?$point_data@H@polygon@boost@@V123@@std@@H@std@@U?$less@X@2@@std@@YAPEAU?$pair@U?$pair@V?$point_data@H@polygon@boost@@V123@@std@@H@0@PEAU10@QEAU10@U?$less@X@0@@Z 000000018002f4e0     minkowski.obj
 0002:000094f4       $chain$8$??$_Insertion_sort_unchecked@PEAU?$pair@U?$pair@V?$point_data@H@polygon@boost@@V123@@std@@H@std@@U?$less@X@2@@std@@YAPEAU?$pair@U?$pair@V?$point_data@H@polygon@boost@@V123@@std@@H@0@PEAU10@QEAU10@U?$less@X@0@@Z 000000018002f4f4     minkowski.obj
 0002:00009504       $unwind$??$_Partition_by_median_guess_unchecked@PEAU?$pair@U?$pair@U?$pair@V?$point_data@H@polygon@boost@@V123@@std@@H@std@@PEAVactive_tail_arbitrary@?$polygon_arbitrary_formation@H@polygon@boost@@@std@@U?$_Ref_fn@Vless_incoming_count@?$polygon_arbitrary_formation@H@polygon@boost@@@2@@std@@YA?AU?$pair@PEAU?$pair@U?$pair@U?$pair@V?$point_data@H@polygon@boost@@V123@@std@@H@std@@PEAVactive_tail_arbitrary@?$polygon_arbitrary_formation@H@polygon@boost@@@std@@PEAU12@@0@PEAU?$pair@U?$pair@U?$pair@V?$point_data@H@polygon@boost@@V123@@std@@H@std@@PEAVactive_tail_arbitrary@?$polygon_arbitrary_formation@H@polygon@boost@@@0@0U?$_Ref_fn@Vless_incoming_count@?$polygon_arbitrary_formation@H@polygon@boost@@@0@@Z 000000018002f504     minkowski.obj
 0002:0000951c       $unwind$??$_Make_heap_unchecked@PEAU?$pair@U?$pair@U?$pair@V?$point_data@H@polygon@boost@@V123@@std@@H@std@@PEAVactive_tail_arbitrary@?$polygon_arbitrary_formation@H@polygon@boost@@@std@@U?$_Ref_fn@Vless_incoming_count@?$polygon_arbitrary_formation@H@polygon@boost@@@2@@std@@YAXPEAU?$pair@U?$pair@U?$pair@V?$point_data@H@polygon@boost@@V123@@std@@H@std@@PEAVactive_tail_arbitrary@?$polygon_arbitrary_formation@H@polygon@boost@@@0@0U?$_Ref_fn@Vless_incoming_count@?$polygon_arbitrary_formation@H@polygon@boost@@@0@@Z 000000018002f51c     minkowski.obj
 0002:00009528       $chain$5$??$_Make_heap_unchecked@PEAU?$pair@U?$pair@U?$pair@V?$point_data@H@polygon@boost@@V123@@std@@H@std@@PEAVactive_tail_arbitrary@?$polygon_arbitrary_formation@H@polygon@boost@@@std@@U?$_Ref_fn@Vless_incoming_count@?$polygon_arbitrary_formation@H@polygon@boost@@@2@@std@@YAXPEAU?$pair@U?$pair@U?$pair@V?$point_data@H@polygon@boost@@V123@@std@@H@std@@PEAVactive_tail_arbitrary@?$polygon_arbitrary_formation@H@polygon@boost@@@0@0U?$_Ref_fn@Vless_incoming_count@?$polygon_arbitrary_formation@H@polygon@boost@@@0@@Z 000000018002f528     minkowski.obj
 0002:00009550       $chain$6$??$_Make_heap_unchecked@PEAU?$pair@U?$pair@U?$pair@V?$point_data@H@polygon@boost@@V123@@std@@H@std@@PEAVactive_tail_arbitrary@?$polygon_arbitrary_formation@H@polygon@boost@@@std@@U?$_Ref_fn@Vless_incoming_count@?$polygon_arbitrary_formation@H@polygon@boost@@@2@@std@@YAXPEAU?$pair@U?$pair@U?$pair@V?$point_data@H@polygon@boost@@V123@@std@@H@std@@PEAVactive_tail_arbitrary@?$polygon_arbitrary_formation@H@polygon@boost@@@0@0U?$_Ref_fn@Vless_incoming_count@?$polygon_arbitrary_formation@H@polygon@boost@@@0@@Z 000000018002f550     minkowski.obj
 0002:00009560       $unwind$??$_Insertion_sort_unchecked@PEAU?$pair@U?$pair@U?$pair@V?$point_data@H@polygon@boost@@V123@@std@@H@std@@PEAVactive_tail_arbitrary@?$polygon_arbitrary_formation@H@polygon@boost@@@std@@U?$_Ref_fn@Vless_incoming_count@?$polygon_arbitrary_formation@H@polygon@boost@@@2@@std@@YAPEAU?$pair@U?$pair@U?$pair@V?$point_data@H@polygon@boost@@V123@@std@@H@std@@PEAVactive_tail_arbitrary@?$polygon_arbitrary_formation@H@polygon@boost@@@0@PEAU10@QEAU10@U?$_Ref_fn@Vless_incoming_count@?$polygon_arbitrary_formation@H@polygon@boost@@@0@@Z 000000018002f560     minkowski.obj
 0002:0000956c       $chain$5$??$_Insertion_sort_unchecked@PEAU?$pair@U?$pair@U?$pair@V?$point_data@H@polygon@boost@@V123@@std@@H@std@@PEAVactive_tail_arbitrary@?$polygon_arbitrary_formation@H@polygon@boost@@@std@@U?$_Ref_fn@Vless_incoming_count@?$polygon_arbitrary_formation@H@polygon@boost@@@2@@std@@YAPEAU?$pair@U?$pair@U?$pair@V?$point_data@H@polygon@boost@@V123@@std@@H@std@@PEAVactive_tail_arbitrary@?$polygon_arbitrary_formation@H@polygon@boost@@@0@PEAU10@QEAU10@U?$_Ref_fn@Vless_incoming_count@?$polygon_arbitrary_formation@H@polygon@boost@@@0@@Z 000000018002f56c     minkowski.obj
 0002:00009594       $chain$7$??$_Insertion_sort_unchecked@PEAU?$pair@U?$pair@U?$pair@V?$point_data@H@polygon@boost@@V123@@std@@H@std@@PEAVactive_tail_arbitrary@?$polygon_arbitrary_formation@H@polygon@boost@@@std@@U?$_Ref_fn@Vless_incoming_count@?$polygon_arbitrary_formation@H@polygon@boost@@@2@@std@@YAPEAU?$pair@U?$pair@U?$pair@V?$point_data@H@polygon@boost@@V123@@std@@H@std@@PEAVactive_tail_arbitrary@?$polygon_arbitrary_formation@H@polygon@boost@@@0@PEAU10@QEAU10@U?$_Ref_fn@Vless_incoming_count@?$polygon_arbitrary_formation@H@polygon@boost@@@0@@Z 000000018002f594     minkowski.obj
 0002:000095a8       $chain$8$??$_Insertion_sort_unchecked@PEAU?$pair@U?$pair@U?$pair@V?$point_data@H@polygon@boost@@V123@@std@@H@std@@PEAVactive_tail_arbitrary@?$polygon_arbitrary_formation@H@polygon@boost@@@std@@U?$_Ref_fn@Vless_incoming_count@?$polygon_arbitrary_formation@H@polygon@boost@@@2@@std@@YAPEAU?$pair@U?$pair@U?$pair@V?$point_data@H@polygon@boost@@V123@@std@@H@std@@PEAVactive_tail_arbitrary@?$polygon_arbitrary_formation@H@polygon@boost@@@0@PEAU10@QEAU10@U?$_Ref_fn@Vless_incoming_count@?$polygon_arbitrary_formation@H@polygon@boost@@@0@@Z 000000018002f5a8     minkowski.obj
 0002:000095b8       $unwind$??$_Partition_by_median_guess_unchecked@PEAU?$pair@V?$point_data@H@polygon@boost@@H@std@@U?$_Ref_fn@Vless_half_edge_count@?$polygon_arbitrary_formation@H@polygon@boost@@@2@@std@@YA?AU?$pair@PEAU?$pair@V?$point_data@H@polygon@boost@@H@std@@PEAU12@@0@PEAU?$pair@V?$point_data@H@polygon@boost@@H@0@0U?$_Ref_fn@Vless_half_edge_count@?$polygon_arbitrary_formation@H@polygon@boost@@@0@@Z 000000018002f5b8     minkowski.obj
 0002:000095d0       $unwind$??$?RAEAU?$pair@V?$point_data@H@polygon@boost@@H@std@@AEAU01@@?$_Ref_fn@Vless_half_edge_count@?$polygon_arbitrary_formation@H@polygon@boost@@@std@@QEAA_NAEAU?$pair@V?$point_data@H@polygon@boost@@H@1@0@Z 000000018002f5d0     minkowski.obj
 0002:000095e8       $unwind$??$_Make_heap_unchecked@PEAU?$pair@V?$point_data@H@polygon@boost@@H@std@@U?$_Ref_fn@Vless_half_edge_count@?$polygon_arbitrary_formation@H@polygon@boost@@@2@@std@@YAXPEAU?$pair@V?$point_data@H@polygon@boost@@H@0@0U?$_Ref_fn@Vless_half_edge_count@?$polygon_arbitrary_formation@H@polygon@boost@@@0@@Z 000000018002f5e8     minkowski.obj
 0002:00009600       $chain$4$??$_Make_heap_unchecked@PEAU?$pair@V?$point_data@H@polygon@boost@@H@std@@U?$_Ref_fn@Vless_half_edge_count@?$polygon_arbitrary_formation@H@polygon@boost@@@2@@std@@YAXPEAU?$pair@V?$point_data@H@polygon@boost@@H@0@0U?$_Ref_fn@Vless_half_edge_count@?$polygon_arbitrary_formation@H@polygon@boost@@@0@@Z 000000018002f600     minkowski.obj
 0002:00009624       $chain$5$??$_Make_heap_unchecked@PEAU?$pair@V?$point_data@H@polygon@boost@@H@std@@U?$_Ref_fn@Vless_half_edge_count@?$polygon_arbitrary_formation@H@polygon@boost@@@2@@std@@YAXPEAU?$pair@V?$point_data@H@polygon@boost@@H@0@0U?$_Ref_fn@Vless_half_edge_count@?$polygon_arbitrary_formation@H@polygon@boost@@@0@@Z 000000018002f624     minkowski.obj
 0002:00009634       $unwind$??$_Insertion_sort_unchecked@PEAU?$pair@V?$point_data@H@polygon@boost@@H@std@@U?$_Ref_fn@Vless_half_edge_count@?$polygon_arbitrary_formation@H@polygon@boost@@@2@@std@@YAPEAU?$pair@V?$point_data@H@polygon@boost@@H@0@PEAU10@QEAU10@U?$_Ref_fn@Vless_half_edge_count@?$polygon_arbitrary_formation@H@polygon@boost@@@0@@Z 000000018002f634     minkowski.obj
 0002:00009640       $chain$5$??$_Insertion_sort_unchecked@PEAU?$pair@V?$point_data@H@polygon@boost@@H@std@@U?$_Ref_fn@Vless_half_edge_count@?$polygon_arbitrary_formation@H@polygon@boost@@@2@@std@@YAPEAU?$pair@V?$point_data@H@polygon@boost@@H@0@PEAU10@QEAU10@U?$_Ref_fn@Vless_half_edge_count@?$polygon_arbitrary_formation@H@polygon@boost@@@0@@Z 000000018002f640     minkowski.obj
 0002:00009668       $chain$7$??$_Insertion_sort_unchecked@PEAU?$pair@V?$point_data@H@polygon@boost@@H@std@@U?$_Ref_fn@Vless_half_edge_count@?$polygon_arbitrary_formation@H@polygon@boost@@@2@@std@@YAPEAU?$pair@V?$point_data@H@polygon@boost@@H@0@PEAU10@QEAU10@U?$_Ref_fn@Vless_half_edge_count@?$polygon_arbitrary_formation@H@polygon@boost@@@0@@Z 000000018002f668     minkowski.obj
 0002:0000967c       $chain$8$??$_Insertion_sort_unchecked@PEAU?$pair@V?$point_data@H@polygon@boost@@H@std@@U?$_Ref_fn@Vless_half_edge_count@?$polygon_arbitrary_formation@H@polygon@boost@@@2@@std@@YAPEAU?$pair@V?$point_data@H@polygon@boost@@H@0@PEAU10@QEAU10@U?$_Ref_fn@Vless_half_edge_count@?$polygon_arbitrary_formation@H@polygon@boost@@@0@@Z 000000018002f67c     minkowski.obj
 0002:0000968c       $unwind$??$_Med3_unchecked@PEAVvertex_half_edge@?$scanline_base@H@polygon@boost@@U?$less@X@std@@@std@@YAXPEAVvertex_half_edge@?$scanline_base@H@polygon@boost@@00U?$less@X@0@@Z 000000018002f68c     minkowski.obj
 0002:0000969c       $unwind$??$_Sort_unchecked@PEAV?$point_data@H@polygon@boost@@Vless_point_down_slope@?$line_intersection@H@23@@std@@YAXPEAV?$point_data@H@polygon@boost@@0_JVless_point_down_slope@?$line_intersection@H@23@@Z 000000018002f69c     minkowski.obj
 0002:000096b0       $unwind$??$_Med3_unchecked@PEAU?$pair@U?$pair@V?$point_data@H@polygon@boost@@V123@@std@@U?$pair@HH@2@@std@@V?$less_vertex_data@U?$pair@U?$pair@V?$point_data@H@polygon@boost@@V123@@std@@U?$pair@HH@2@@std@@@?$arbitrary_boolean_op@H@polygon@boost@@@std@@YAXPEAU?$pair@U?$pair@V?$point_data@H@polygon@boost@@V123@@std@@U?$pair@HH@2@@0@00V?$less_vertex_data@U?$pair@U?$pair@V?$point_data@H@polygon@boost@@V123@@std@@U?$pair@HH@2@@std@@@?$arbitrary_boolean_op@H@polygon@boost@@@Z 000000018002f6b0     minkowski.obj
 0002:000096c4       $unwind$??$_Pop_heap_hole_by_index@PEAU?$pair@U?$pair@V?$point_data@H@polygon@boost@@V123@@std@@H@std@@U12@U?$less@X@2@@std@@YAXPEAU?$pair@U?$pair@V?$point_data@H@polygon@boost@@V123@@std@@H@0@_J1$$QEAU10@U?$less@X@0@@Z 000000018002f6c4     minkowski.obj
 0002:000096dc       $unwind$??$_Pop_heap_hole_by_index@PEAU?$pair@U?$pair@U?$pair@V?$point_data@H@polygon@boost@@V123@@std@@H@std@@PEAVactive_tail_arbitrary@?$polygon_arbitrary_formation@H@polygon@boost@@@std@@U12@U?$_Ref_fn@Vless_incoming_count@?$polygon_arbitrary_formation@H@polygon@boost@@@2@@std@@YAXPEAU?$pair@U?$pair@U?$pair@V?$point_data@H@polygon@boost@@V123@@std@@H@std@@PEAVactive_tail_arbitrary@?$polygon_arbitrary_formation@H@polygon@boost@@@0@_J1$$QEAU10@U?$_Ref_fn@Vless_incoming_count@?$polygon_arbitrary_formation@H@polygon@boost@@@0@@Z 000000018002f6dc     minkowski.obj
 0002:000096f4       $chain$0$??$_Pop_heap_hole_by_index@PEAU?$pair@U?$pair@U?$pair@V?$point_data@H@polygon@boost@@V123@@std@@H@std@@PEAVactive_tail_arbitrary@?$polygon_arbitrary_formation@H@polygon@boost@@@std@@U12@U?$_Ref_fn@Vless_incoming_count@?$polygon_arbitrary_formation@H@polygon@boost@@@2@@std@@YAXPEAU?$pair@U?$pair@U?$pair@V?$point_data@H@polygon@boost@@V123@@std@@H@std@@PEAVactive_tail_arbitrary@?$polygon_arbitrary_formation@H@polygon@boost@@@0@_J1$$QEAU10@U?$_Ref_fn@Vless_incoming_count@?$polygon_arbitrary_formation@H@polygon@boost@@@0@@Z 000000018002f6f4     minkowski.obj
 0002:00009708       $chain$1$??$_Pop_heap_hole_by_index@PEAU?$pair@U?$pair@U?$pair@V?$point_data@H@polygon@boost@@V123@@std@@H@std@@PEAVactive_tail_arbitrary@?$polygon_arbitrary_formation@H@polygon@boost@@@std@@U12@U?$_Ref_fn@Vless_incoming_count@?$polygon_arbitrary_formation@H@polygon@boost@@@2@@std@@YAXPEAU?$pair@U?$pair@U?$pair@V?$point_data@H@polygon@boost@@V123@@std@@H@std@@PEAVactive_tail_arbitrary@?$polygon_arbitrary_formation@H@polygon@boost@@@0@_J1$$QEAU10@U?$_Ref_fn@Vless_incoming_count@?$polygon_arbitrary_formation@H@polygon@boost@@@0@@Z 000000018002f708     minkowski.obj
 0002:00009718       $unwind$??$_Pop_heap_hole_by_index@PEAU?$pair@V?$point_data@H@polygon@boost@@H@std@@U12@U?$_Ref_fn@Vless_half_edge_count@?$polygon_arbitrary_formation@H@polygon@boost@@@2@@std@@YAXPEAU?$pair@V?$point_data@H@polygon@boost@@H@0@_J1$$QEAU10@U?$_Ref_fn@Vless_half_edge_count@?$polygon_arbitrary_formation@H@polygon@boost@@@0@@Z 000000018002f718     minkowski.obj
 0002:00009724       $chain$0$??$_Pop_heap_hole_by_index@PEAU?$pair@V?$point_data@H@polygon@boost@@H@std@@U12@U?$_Ref_fn@Vless_half_edge_count@?$polygon_arbitrary_formation@H@polygon@boost@@@2@@std@@YAXPEAU?$pair@V?$point_data@H@polygon@boost@@H@0@_J1$$QEAU10@U?$_Ref_fn@Vless_half_edge_count@?$polygon_arbitrary_formation@H@polygon@boost@@@0@@Z 000000018002f724     minkowski.obj
 0002:00009738       $chain$4$??$_Pop_heap_hole_by_index@PEAU?$pair@V?$point_data@H@polygon@boost@@H@std@@U12@U?$_Ref_fn@Vless_half_edge_count@?$polygon_arbitrary_formation@H@polygon@boost@@@2@@std@@YAXPEAU?$pair@V?$point_data@H@polygon@boost@@H@0@_J1$$QEAU10@U?$_Ref_fn@Vless_half_edge_count@?$polygon_arbitrary_formation@H@polygon@boost@@@0@@Z 000000018002f738     minkowski.obj
 0002:00009758       $chain$5$??$_Pop_heap_hole_by_index@PEAU?$pair@V?$point_data@H@polygon@boost@@H@std@@U12@U?$_Ref_fn@Vless_half_edge_count@?$polygon_arbitrary_formation@H@polygon@boost@@@2@@std@@YAXPEAU?$pair@V?$point_data@H@polygon@boost@@H@0@_J1$$QEAU10@U?$_Ref_fn@Vless_half_edge_count@?$polygon_arbitrary_formation@H@polygon@boost@@@0@@Z 000000018002f758     minkowski.obj
 0002:00009768       $chain$6$??$_Pop_heap_hole_by_index@PEAU?$pair@V?$point_data@H@polygon@boost@@H@std@@U12@U?$_Ref_fn@Vless_half_edge_count@?$polygon_arbitrary_formation@H@polygon@boost@@@2@@std@@YAXPEAU?$pair@V?$point_data@H@polygon@boost@@H@0@_J1$$QEAU10@U?$_Ref_fn@Vless_half_edge_count@?$polygon_arbitrary_formation@H@polygon@boost@@@0@@Z 000000018002f768     minkowski.obj
 0002:00009778       $unwind$??$_Insert_hint@AEAU?$pair@$$CBHV?$vector@U?$pair@U?$pair@V?$point_data@H@polygon@boost@@V123@@std@@H@std@@V?$allocator@U?$pair@U?$pair@V?$point_data@H@polygon@boost@@V123@@std@@H@std@@@2@@std@@@std@@PEAU?$_Tree_node@U?$pair@$$CBHV?$vector@U?$pair@U?$pair@V?$point_data@H@polygon@boost@@V123@@std@@H@std@@V?$allocator@U?$pair@U?$pair@V?$point_data@H@polygon@boost@@V123@@std@@H@std@@@2@@std@@@std@@PEAX@2@@?$_Tree@V?$_Tmap_traits@HV?$vector@U?$pair@U?$pair@V?$point_data@H@polygon@boost@@V123@@std@@H@std@@V?$allocator@U?$pair@U?$pair@V?$point_data@H@polygon@boost@@V123@@std@@H@std@@@2@@std@@U?$less@H@2@V?$allocator@U?$pair@$$CBHV?$vector@U?$pair@U?$pair@V?$point_data@H@polygon@boost@@V123@@std@@H@std@@V?$allocator@U?$pair@U?$pair@V?$point_data@H@polygon@boost@@V123@@std@@H@std@@@2@@std@@@std@@@2@$0A@@std@@@std@@IEAA?AV?$_Tree_iterator@V?$_Tree_val@U?$_Tree_simple_types@U?$pair@$$CBHV?$vector@U?$pair@U?$pair@V?$point_data@H@polygon@boost@@V123@@std@@H@std@@V?$allocator@U?$pair@U?$pair@V?$point_data@H@polygon@boost@@V123@@std@@H@std@@@2@@std@@@std@@@std@@@std@@@1@V?$_Tree_const_iterator@V?$_Tree_val@U?$_Tree_simple_types@U?$pair@$$CBHV?$vector@U?$pair@U?$pair@V?$point_data@H@polygon@boost@@V123@@std@@H@std@@V?$allocator@U?$pair@U?$pair@V?$point_data@H@polygon@boost@@V123@@std@@H@std@@@2@@std@@@std@@@std@@@std@@@1@AEAU?$pair@$$CBHV?$vector@U?$pair@U?$pair@V?$point_data@H@polygon@boost@@V123@@std@@H@std@@V?$allocator@U?$pair@U?$pair@V?$point_data@H@polygon@boost@@V123@@std@@H@std@@@2@@std@@@1@PEAU?$_Tree_node@U?$pair@$$CBHV?$vector@U?$pair@U?$pair@V?$point_data@H@polygon@boost@@V123@@std@@H@std@@V?$allocator@U?$pair@U?$pair@V?$point_data@H@polygon@boost@@V123@@std@@H@std@@@2@@std@@@std@@PEAX@1@@Z 000000018002f778     minkowski.obj
 0002:00009784       $chain$0$??$_Insert_hint@AEAU?$pair@$$CBHV?$vector@U?$pair@U?$pair@V?$point_data@H@polygon@boost@@V123@@std@@H@std@@V?$allocator@U?$pair@U?$pair@V?$point_data@H@polygon@boost@@V123@@std@@H@std@@@2@@std@@@std@@PEAU?$_Tree_node@U?$pair@$$CBHV?$vector@U?$pair@U?$pair@V?$point_data@H@polygon@boost@@V123@@std@@H@std@@V?$allocator@U?$pair@U?$pair@V?$point_data@H@polygon@boost@@V123@@std@@H@std@@@2@@std@@@std@@PEAX@2@@?$_Tree@V?$_Tmap_traits@HV?$vector@U?$pair@U?$pair@V?$point_data@H@polygon@boost@@V123@@std@@H@std@@V?$allocator@U?$pair@U?$pair@V?$point_data@H@polygon@boost@@V123@@std@@H@std@@@2@@std@@U?$less@H@2@V?$allocator@U?$pair@$$CBHV?$vector@U?$pair@U?$pair@V?$point_data@H@polygon@boost@@V123@@std@@H@std@@V?$allocator@U?$pair@U?$pair@V?$point_data@H@polygon@boost@@V123@@std@@H@std@@@2@@std@@@std@@@2@$0A@@std@@@std@@IEAA?AV?$_Tree_iterator@V?$_Tree_val@U?$_Tree_simple_types@U?$pair@$$CBHV?$vector@U?$pair@U?$pair@V?$point_data@H@polygon@boost@@V123@@std@@H@std@@V?$allocator@U?$pair@U?$pair@V?$point_data@H@polygon@boost@@V123@@std@@H@std@@@2@@std@@@std@@@std@@@std@@@1@V?$_Tree_const_iterator@V?$_Tree_val@U?$_Tree_simple_types@U?$pair@$$CBHV?$vector@U?$pair@U?$pair@V?$point_data@H@polygon@boost@@V123@@std@@H@std@@V?$allocator@U?$pair@U?$pair@V?$point_data@H@polygon@boost@@V123@@std@@H@std@@@2@@std@@@std@@@std@@@std@@@1@AEAU?$pair@$$CBHV?$vector@U?$pair@U?$pair@V?$point_data@H@polygon@boost@@V123@@std@@H@std@@V?$allocator@U?$pair@U?$pair@V?$point_data@H@polygon@boost@@V123@@std@@H@std@@@2@@std@@@1@PEAU?$_Tree_node@U?$pair@$$CBHV?$vector@U?$pair@U?$pair@V?$point_data@H@polygon@boost@@V123@@std@@H@std@@V?$allocator@U?$pair@U?$pair@V?$point_data@H@polygon@boost@@V123@@std@@H@std@@@2@@std@@@std@@PEAX@1@@Z 000000018002f784     minkowski.obj
 0002:00009798       $chain$6$??$_Insert_hint@AEAU?$pair@$$CBHV?$vector@U?$pair@U?$pair@V?$point_data@H@polygon@boost@@V123@@std@@H@std@@V?$allocator@U?$pair@U?$pair@V?$point_data@H@polygon@boost@@V123@@std@@H@std@@@2@@std@@@std@@PEAU?$_Tree_node@U?$pair@$$CBHV?$vector@U?$pair@U?$pair@V?$point_data@H@polygon@boost@@V123@@std@@H@std@@V?$allocator@U?$pair@U?$pair@V?$point_data@H@polygon@boost@@V123@@std@@H@std@@@2@@std@@@std@@PEAX@2@@?$_Tree@V?$_Tmap_traits@HV?$vector@U?$pair@U?$pair@V?$point_data@H@polygon@boost@@V123@@std@@H@std@@V?$allocator@U?$pair@U?$pair@V?$point_data@H@polygon@boost@@V123@@std@@H@std@@@2@@std@@U?$less@H@2@V?$allocator@U?$pair@$$CBHV?$vector@U?$pair@U?$pair@V?$point_data@H@polygon@boost@@V123@@std@@H@std@@V?$allocator@U?$pair@U?$pair@V?$point_data@H@polygon@boost@@V123@@std@@H@std@@@2@@std@@@std@@@2@$0A@@std@@@std@@IEAA?AV?$_Tree_iterator@V?$_Tree_val@U?$_Tree_simple_types@U?$pair@$$CBHV?$vector@U?$pair@U?$pair@V?$point_data@H@polygon@boost@@V123@@std@@H@std@@V?$allocator@U?$pair@U?$pair@V?$point_data@H@polygon@boost@@V123@@std@@H@std@@@2@@std@@@std@@@std@@@std@@@1@V?$_Tree_const_iterator@V?$_Tree_val@U?$_Tree_simple_types@U?$pair@$$CBHV?$vector@U?$pair@U?$pair@V?$point_data@H@polygon@boost@@V123@@std@@H@std@@V?$allocator@U?$pair@U?$pair@V?$point_data@H@polygon@boost@@V123@@std@@H@std@@@2@@std@@@std@@@std@@@std@@@1@AEAU?$pair@$$CBHV?$vector@U?$pair@U?$pair@V?$point_data@H@polygon@boost@@V123@@std@@H@std@@V?$allocator@U?$pair@U?$pair@V?$point_data@H@polygon@boost@@V123@@std@@H@std@@@2@@std@@@1@PEAU?$_Tree_node@U?$pair@$$CBHV?$vector@U?$pair@U?$pair@V?$point_data@H@polygon@boost@@V123@@std@@H@std@@V?$allocator@U?$pair@U?$pair@V?$point_data@H@polygon@boost@@V123@@std@@H@std@@@2@@std@@@std@@PEAX@1@@Z 000000018002f798     minkowski.obj
 0002:00009798       $chain$2$??$_Insert_hint@AEAU?$pair@$$CBHV?$vector@U?$pair@U?$pair@V?$point_data@H@polygon@boost@@V123@@std@@H@std@@V?$allocator@U?$pair@U?$pair@V?$point_data@H@polygon@boost@@V123@@std@@H@std@@@2@@std@@@std@@PEAU?$_Tree_node@U?$pair@$$CBHV?$vector@U?$pair@U?$pair@V?$point_data@H@polygon@boost@@V123@@std@@H@std@@V?$allocator@U?$pair@U?$pair@V?$point_data@H@polygon@boost@@V123@@std@@H@std@@@2@@std@@@std@@PEAX@2@@?$_Tree@V?$_Tmap_traits@HV?$vector@U?$pair@U?$pair@V?$point_data@H@polygon@boost@@V123@@std@@H@std@@V?$allocator@U?$pair@U?$pair@V?$point_data@H@polygon@boost@@V123@@std@@H@std@@@2@@std@@U?$less@H@2@V?$allocator@U?$pair@$$CBHV?$vector@U?$pair@U?$pair@V?$point_data@H@polygon@boost@@V123@@std@@H@std@@V?$allocator@U?$pair@U?$pair@V?$point_data@H@polygon@boost@@V123@@std@@H@std@@@2@@std@@@std@@@2@$0A@@std@@@std@@IEAA?AV?$_Tree_iterator@V?$_Tree_val@U?$_Tree_simple_types@U?$pair@$$CBHV?$vector@U?$pair@U?$pair@V?$point_data@H@polygon@boost@@V123@@std@@H@std@@V?$allocator@U?$pair@U?$pair@V?$point_data@H@polygon@boost@@V123@@std@@H@std@@@2@@std@@@std@@@std@@@std@@@1@V?$_Tree_const_iterator@V?$_Tree_val@U?$_Tree_simple_types@U?$pair@$$CBHV?$vector@U?$pair@U?$pair@V?$point_data@H@polygon@boost@@V123@@std@@H@std@@V?$allocator@U?$pair@U?$pair@V?$point_data@H@polygon@boost@@V123@@std@@H@std@@@2@@std@@@std@@@std@@@std@@@1@AEAU?$pair@$$CBHV?$vector@U?$pair@U?$pair@V?$point_data@H@polygon@boost@@V123@@std@@H@std@@V?$allocator@U?$pair@U?$pair@V?$point_data@H@polygon@boost@@V123@@std@@H@std@@@2@@std@@@1@PEAU?$_Tree_node@U?$pair@$$CBHV?$vector@U?$pair@U?$pair@V?$point_data@H@polygon@boost@@V123@@std@@H@std@@V?$allocator@U?$pair@U?$pair@V?$point_data@H@polygon@boost@@V123@@std@@H@std@@@2@@std@@@std@@PEAX@1@@Z 000000018002f798     minkowski.obj
 0002:00009798       $chain$4$??$_Insert_hint@AEAU?$pair@$$CBHV?$vector@U?$pair@U?$pair@V?$point_data@H@polygon@boost@@V123@@std@@H@std@@V?$allocator@U?$pair@U?$pair@V?$point_data@H@polygon@boost@@V123@@std@@H@std@@@2@@std@@@std@@PEAU?$_Tree_node@U?$pair@$$CBHV?$vector@U?$pair@U?$pair@V?$point_data@H@polygon@boost@@V123@@std@@H@std@@V?$allocator@U?$pair@U?$pair@V?$point_data@H@polygon@boost@@V123@@std@@H@std@@@2@@std@@@std@@PEAX@2@@?$_Tree@V?$_Tmap_traits@HV?$vector@U?$pair@U?$pair@V?$point_data@H@polygon@boost@@V123@@std@@H@std@@V?$allocator@U?$pair@U?$pair@V?$point_data@H@polygon@boost@@V123@@std@@H@std@@@2@@std@@U?$less@H@2@V?$allocator@U?$pair@$$CBHV?$vector@U?$pair@U?$pair@V?$point_data@H@polygon@boost@@V123@@std@@H@std@@V?$allocator@U?$pair@U?$pair@V?$point_data@H@polygon@boost@@V123@@std@@H@std@@@2@@std@@@std@@@2@$0A@@std@@@std@@IEAA?AV?$_Tree_iterator@V?$_Tree_val@U?$_Tree_simple_types@U?$pair@$$CBHV?$vector@U?$pair@U?$pair@V?$point_data@H@polygon@boost@@V123@@std@@H@std@@V?$allocator@U?$pair@U?$pair@V?$point_data@H@polygon@boost@@V123@@std@@H@std@@@2@@std@@@std@@@std@@@std@@@1@V?$_Tree_const_iterator@V?$_Tree_val@U?$_Tree_simple_types@U?$pair@$$CBHV?$vector@U?$pair@U?$pair@V?$point_data@H@polygon@boost@@V123@@std@@H@std@@V?$allocator@U?$pair@U?$pair@V?$point_data@H@polygon@boost@@V123@@std@@H@std@@@2@@std@@@std@@@std@@@std@@@1@AEAU?$pair@$$CBHV?$vector@U?$pair@U?$pair@V?$point_data@H@polygon@boost@@V123@@std@@H@std@@V?$allocator@U?$pair@U?$pair@V?$point_data@H@polygon@boost@@V123@@std@@H@std@@@2@@std@@@1@PEAU?$_Tree_node@U?$pair@$$CBHV?$vector@U?$pair@U?$pair@V?$point_data@H@polygon@boost@@V123@@std@@H@std@@V?$allocator@U?$pair@U?$pair@V?$point_data@H@polygon@boost@@V123@@std@@H@std@@@2@@std@@@std@@PEAX@1@@Z 000000018002f798     minkowski.obj
 0002:000097ac       $chain$9$??$_Insert_hint@AEAU?$pair@$$CBHV?$vector@U?$pair@U?$pair@V?$point_data@H@polygon@boost@@V123@@std@@H@std@@V?$allocator@U?$pair@U?$pair@V?$point_data@H@polygon@boost@@V123@@std@@H@std@@@2@@std@@@std@@PEAU?$_Tree_node@U?$pair@$$CBHV?$vector@U?$pair@U?$pair@V?$point_data@H@polygon@boost@@V123@@std@@H@std@@V?$allocator@U?$pair@U?$pair@V?$point_data@H@polygon@boost@@V123@@std@@H@std@@@2@@std@@@std@@PEAX@2@@?$_Tree@V?$_Tmap_traits@HV?$vector@U?$pair@U?$pair@V?$point_data@H@polygon@boost@@V123@@std@@H@std@@V?$allocator@U?$pair@U?$pair@V?$point_data@H@polygon@boost@@V123@@std@@H@std@@@2@@std@@U?$less@H@2@V?$allocator@U?$pair@$$CBHV?$vector@U?$pair@U?$pair@V?$point_data@H@polygon@boost@@V123@@std@@H@std@@V?$allocator@U?$pair@U?$pair@V?$point_data@H@polygon@boost@@V123@@std@@H@std@@@2@@std@@@std@@@2@$0A@@std@@@std@@IEAA?AV?$_Tree_iterator@V?$_Tree_val@U?$_Tree_simple_types@U?$pair@$$CBHV?$vector@U?$pair@U?$pair@V?$point_data@H@polygon@boost@@V123@@std@@H@std@@V?$allocator@U?$pair@U?$pair@V?$point_data@H@polygon@boost@@V123@@std@@H@std@@@2@@std@@@std@@@std@@@std@@@1@V?$_Tree_const_iterator@V?$_Tree_val@U?$_Tree_simple_types@U?$pair@$$CBHV?$vector@U?$pair@U?$pair@V?$point_data@H@polygon@boost@@V123@@std@@H@std@@V?$allocator@U?$pair@U?$pair@V?$point_data@H@polygon@boost@@V123@@std@@H@std@@@2@@std@@@std@@@std@@@std@@@1@AEAU?$pair@$$CBHV?$vector@U?$pair@U?$pair@V?$point_data@H@polygon@boost@@V123@@std@@H@std@@V?$allocator@U?$pair@U?$pair@V?$point_data@H@polygon@boost@@V123@@std@@H@std@@@2@@std@@@1@PEAU?$_Tree_node@U?$pair@$$CBHV?$vector@U?$pair@U?$pair@V?$point_data@H@polygon@boost@@V123@@std@@H@std@@V?$allocator@U?$pair@U?$pair@V?$point_data@H@polygon@boost@@V123@@std@@H@std@@@2@@std@@@std@@PEAX@1@@Z 000000018002f7ac     minkowski.obj
 0002:000097c4       $unwind$??$_Partition_by_median_guess_unchecked@PEAV?$point_data@H@polygon@boost@@Vless_point_down_slope@?$line_intersection@H@23@@std@@YA?AU?$pair@PEAV?$point_data@H@polygon@boost@@PEAV123@@0@PEAV?$point_data@H@polygon@boost@@0Vless_point_down_slope@?$line_intersection@H@34@@Z 000000018002f7c4     minkowski.obj
 0002:000097d4       $chain$0$??$_Partition_by_median_guess_unchecked@PEAV?$point_data@H@polygon@boost@@Vless_point_down_slope@?$line_intersection@H@23@@std@@YA?AU?$pair@PEAV?$point_data@H@polygon@boost@@PEAV123@@0@PEAV?$point_data@H@polygon@boost@@0Vless_point_down_slope@?$line_intersection@H@34@@Z 000000018002f7d4     minkowski.obj
 0002:000097e8       $chain$2$??$_Partition_by_median_guess_unchecked@PEAV?$point_data@H@polygon@boost@@Vless_point_down_slope@?$line_intersection@H@23@@std@@YA?AU?$pair@PEAV?$point_data@H@polygon@boost@@PEAV123@@0@PEAV?$point_data@H@polygon@boost@@0Vless_point_down_slope@?$line_intersection@H@34@@Z 000000018002f7e8     minkowski.obj
 0002:00009800       $chain$3$??$_Partition_by_median_guess_unchecked@PEAV?$point_data@H@polygon@boost@@Vless_point_down_slope@?$line_intersection@H@23@@std@@YA?AU?$pair@PEAV?$point_data@H@polygon@boost@@PEAV123@@0@PEAV?$point_data@H@polygon@boost@@0Vless_point_down_slope@?$line_intersection@H@34@@Z 000000018002f800     minkowski.obj
 0002:00009810       $chain$4$??$_Partition_by_median_guess_unchecked@PEAV?$point_data@H@polygon@boost@@Vless_point_down_slope@?$line_intersection@H@23@@std@@YA?AU?$pair@PEAV?$point_data@H@polygon@boost@@PEAV123@@0@PEAV?$point_data@H@polygon@boost@@0Vless_point_down_slope@?$line_intersection@H@34@@Z 000000018002f810     minkowski.obj
 0002:00009820       $unwind$??$_Make_heap_unchecked@PEAV?$point_data@H@polygon@boost@@Vless_point_down_slope@?$line_intersection@H@23@@std@@YAXPEAV?$point_data@H@polygon@boost@@0Vless_point_down_slope@?$line_intersection@H@23@@Z 000000018002f820     minkowski.obj
 0002:00009828       $chain$2$??$_Make_heap_unchecked@PEAV?$point_data@H@polygon@boost@@Vless_point_down_slope@?$line_intersection@H@23@@std@@YAXPEAV?$point_data@H@polygon@boost@@0Vless_point_down_slope@?$line_intersection@H@23@@Z 000000018002f828     minkowski.obj
 0002:00009844       $chain$3$??$_Make_heap_unchecked@PEAV?$point_data@H@polygon@boost@@Vless_point_down_slope@?$line_intersection@H@23@@std@@YAXPEAV?$point_data@H@polygon@boost@@0Vless_point_down_slope@?$line_intersection@H@23@@Z 000000018002f844     minkowski.obj
 0002:00009854       $chain$5$??$_Sort_heap_unchecked@PEAV?$point_data@H@polygon@boost@@Vless_point_down_slope@?$line_intersection@H@23@@std@@YAXPEAV?$point_data@H@polygon@boost@@0Vless_point_down_slope@?$line_intersection@H@23@@Z 000000018002f854     minkowski.obj
 0002:0000987c       $chain$6$??$_Sort_heap_unchecked@PEAV?$point_data@H@polygon@boost@@Vless_point_down_slope@?$line_intersection@H@23@@std@@YAXPEAV?$point_data@H@polygon@boost@@0Vless_point_down_slope@?$line_intersection@H@23@@Z 000000018002f87c     minkowski.obj
 0002:0000988c       $unwind$??$_Med3_unchecked@PEAU?$pair@U?$pair@U?$pair@V?$point_data@H@polygon@boost@@V123@@std@@H@std@@PEAVactive_tail_arbitrary@?$polygon_arbitrary_formation@H@polygon@boost@@@std@@U?$_Ref_fn@Vless_incoming_count@?$polygon_arbitrary_formation@H@polygon@boost@@@2@@std@@YAXPEAU?$pair@U?$pair@U?$pair@V?$point_data@H@polygon@boost@@V123@@std@@H@std@@PEAVactive_tail_arbitrary@?$polygon_arbitrary_formation@H@polygon@boost@@@0@00U?$_Ref_fn@Vless_incoming_count@?$polygon_arbitrary_formation@H@polygon@boost@@@0@@Z 000000018002f88c     minkowski.obj
 0002:000098a4       $unwind$??$_Med3_unchecked@PEAU?$pair@V?$point_data@H@polygon@boost@@H@std@@U?$_Ref_fn@Vless_half_edge_count@?$polygon_arbitrary_formation@H@polygon@boost@@@2@@std@@YAXPEAU?$pair@V?$point_data@H@polygon@boost@@H@0@00U?$_Ref_fn@Vless_half_edge_count@?$polygon_arbitrary_formation@H@polygon@boost@@@0@@Z 000000018002f8a4     minkowski.obj
 0002:000098a4       $unwind$__acrt_lowio_destroy_handle_array 000000018002f8a4     libucrt:osfinfo.obj
 0002:000098b4       $unwind$??$_Push_heap_by_index@PEAU?$pair@V?$point_data@H@polygon@boost@@H@std@@U12@U?$_Ref_fn@Vless_half_edge_count@?$polygon_arbitrary_formation@H@polygon@boost@@@2@@std@@YAXPEAU?$pair@V?$point_data@H@polygon@boost@@H@0@_J1$$QEAU10@U?$_Ref_fn@Vless_half_edge_count@?$polygon_arbitrary_formation@H@polygon@boost@@@0@@Z 000000018002f8b4     minkowski.obj
 0002:000098c0       $chain$4$??$_Push_heap_by_index@PEAU?$pair@V?$point_data@H@polygon@boost@@H@std@@U12@U?$_Ref_fn@Vless_half_edge_count@?$polygon_arbitrary_formation@H@polygon@boost@@@2@@std@@YAXPEAU?$pair@V?$point_data@H@polygon@boost@@H@0@_J1$$QEAU10@U?$_Ref_fn@Vless_half_edge_count@?$polygon_arbitrary_formation@H@polygon@boost@@@0@@Z 000000018002f8c0     minkowski.obj
 0002:000098e4       $chain$5$??$_Push_heap_by_index@PEAU?$pair@V?$point_data@H@polygon@boost@@H@std@@U12@U?$_Ref_fn@Vless_half_edge_count@?$polygon_arbitrary_formation@H@polygon@boost@@@2@@std@@YAXPEAU?$pair@V?$point_data@H@polygon@boost@@H@0@_J1$$QEAU10@U?$_Ref_fn@Vless_half_edge_count@?$polygon_arbitrary_formation@H@polygon@boost@@@0@@Z 000000018002f8e4     minkowski.obj
 0002:000098f4       $chain$0$??$_Insert_at@AEAU?$pair@$$CBHV?$vector@U?$pair@U?$pair@V?$point_data@H@polygon@boost@@V123@@std@@H@std@@V?$allocator@U?$pair@U?$pair@V?$point_data@H@polygon@boost@@V123@@std@@H@std@@@2@@std@@@std@@PEAU?$_Tree_node@U?$pair@$$CBHV?$vector@U?$pair@U?$pair@V?$point_data@H@polygon@boost@@V123@@std@@H@std@@V?$allocator@U?$pair@U?$pair@V?$point_data@H@polygon@boost@@V123@@std@@H@std@@@2@@std@@@std@@PEAX@2@@?$_Tree@V?$_Tmap_traits@HV?$vector@U?$pair@U?$pair@V?$point_data@H@polygon@boost@@V123@@std@@H@std@@V?$allocator@U?$pair@U?$pair@V?$point_data@H@polygon@boost@@V123@@std@@H@std@@@2@@std@@U?$less@H@2@V?$allocator@U?$pair@$$CBHV?$vector@U?$pair@U?$pair@V?$point_data@H@polygon@boost@@V123@@std@@H@std@@V?$allocator@U?$pair@U?$pair@V?$point_data@H@polygon@boost@@V123@@std@@H@std@@@2@@std@@@std@@@2@$0A@@std@@@std@@IEAA?AV?$_Tree_iterator@V?$_Tree_val@U?$_Tree_simple_types@U?$pair@$$CBHV?$vector@U?$pair@U?$pair@V?$point_data@H@polygon@boost@@V123@@std@@H@std@@V?$allocator@U?$pair@U?$pair@V?$point_data@H@polygon@boost@@V123@@std@@H@std@@@2@@std@@@std@@@std@@@std@@@1@_NPEAU?$_Tree_node@U?$pair@$$CBHV?$vector@U?$pair@U?$pair@V?$point_data@H@polygon@boost@@V123@@std@@H@std@@V?$allocator@U?$pair@U?$pair@V?$point_data@H@polygon@boost@@V123@@std@@H@std@@@2@@std@@@std@@PEAX@1@AEAU?$pair@$$CBHV?$vector@U?$pair@U?$pair@V?$point_data@H@polygon@boost@@V123@@std@@H@std@@V?$allocator@U?$pair@U?$pair@V?$point_data@H@polygon@boost@@V123@@std@@H@std@@@2@@std@@@1@1@Z 000000018002f8f4     minkowski.obj
 0002:00009908       $chain$1$??$_Insert_at@AEAU?$pair@$$CBHV?$vector@U?$pair@U?$pair@V?$point_data@H@polygon@boost@@V123@@std@@H@std@@V?$allocator@U?$pair@U?$pair@V?$point_data@H@polygon@boost@@V123@@std@@H@std@@@2@@std@@@std@@PEAU?$_Tree_node@U?$pair@$$CBHV?$vector@U?$pair@U?$pair@V?$point_data@H@polygon@boost@@V123@@std@@H@std@@V?$allocator@U?$pair@U?$pair@V?$point_data@H@polygon@boost@@V123@@std@@H@std@@@2@@std@@@std@@PEAX@2@@?$_Tree@V?$_Tmap_traits@HV?$vector@U?$pair@U?$pair@V?$point_data@H@polygon@boost@@V123@@std@@H@std@@V?$allocator@U?$pair@U?$pair@V?$point_data@H@polygon@boost@@V123@@std@@H@std@@@2@@std@@U?$less@H@2@V?$allocator@U?$pair@$$CBHV?$vector@U?$pair@U?$pair@V?$point_data@H@polygon@boost@@V123@@std@@H@std@@V?$allocator@U?$pair@U?$pair@V?$point_data@H@polygon@boost@@V123@@std@@H@std@@@2@@std@@@std@@@2@$0A@@std@@@std@@IEAA?AV?$_Tree_iterator@V?$_Tree_val@U?$_Tree_simple_types@U?$pair@$$CBHV?$vector@U?$pair@U?$pair@V?$point_data@H@polygon@boost@@V123@@std@@H@std@@V?$allocator@U?$pair@U?$pair@V?$point_data@H@polygon@boost@@V123@@std@@H@std@@@2@@std@@@std@@@std@@@std@@@1@_NPEAU?$_Tree_node@U?$pair@$$CBHV?$vector@U?$pair@U?$pair@V?$point_data@H@polygon@boost@@V123@@std@@H@std@@V?$allocator@U?$pair@U?$pair@V?$point_data@H@polygon@boost@@V123@@std@@H@std@@@2@@std@@@std@@PEAX@1@AEAU?$pair@$$CBHV?$vector@U?$pair@U?$pair@V?$point_data@H@polygon@boost@@V123@@std@@H@std@@V?$allocator@U?$pair@U?$pair@V?$point_data@H@polygon@boost@@V123@@std@@H@std@@@2@@std@@@1@1@Z 000000018002f908     minkowski.obj
 0002:00009918       $unwind$??$_Insert_range@V?$_List_unchecked_const_iterator@V?$_List_val@U?$_List_simple_types@V?$point_data@H@polygon@boost@@@std@@@std@@U_Iterator_base0@2@@std@@@?$vector@V?$point_data@H@polygon@boost@@V?$allocator@V?$point_data@H@polygon@boost@@@std@@@std@@AEAAXV?$_Vector_const_iterator@V?$_Vector_val@U?$_Simple_types@V?$point_data@H@polygon@boost@@@std@@@std@@@1@V?$_List_unchecked_const_iterator@V?$_List_val@U?$_List_simple_types@V?$point_data@H@polygon@boost@@@std@@@std@@U_Iterator_base0@2@@1@1Uforward_iterator_tag@1@@Z 000000018002f918     minkowski.obj
 0002:00009934       $unwind$??$_Sort_unchecked@PEAU?$pair@HH@std@@U?$less@X@2@@std@@YAXPEAU?$pair@HH@0@0_JU?$less@X@0@@Z 000000018002f934     minkowski.obj
 0002:0000994c       $unwind$??$create_environment@D@@YAQEAPEADQEAD@Z 000000018002f94c     libucrt:environment_initialization.obj
 0002:0000994c       $unwind$??$_Sort_unchecked@PEAV?$point_data@H@polygon@boost@@U?$less@X@std@@@std@@YAXPEAV?$point_data@H@polygon@boost@@0_JU?$less@X@0@@Z 000000018002f94c     minkowski.obj
 0002:00009964       $unwind$??$_Partition_by_median_guess_unchecked@PEAU?$pair@HH@std@@U?$less@X@2@@std@@YA?AU?$pair@PEAU?$pair@HH@std@@PEAU12@@0@PEAU?$pair@HH@0@0U?$less@X@0@@Z 000000018002f964     minkowski.obj
 0002:00009974       $chain$0$??$_Partition_by_median_guess_unchecked@PEAU?$pair@HH@std@@U?$less@X@2@@std@@YA?AU?$pair@PEAU?$pair@HH@std@@PEAU12@@0@PEAU?$pair@HH@0@0U?$less@X@0@@Z 000000018002f974     minkowski.obj
 0002:00009988       $chain$2$??$_Partition_by_median_guess_unchecked@PEAU?$pair@HH@std@@U?$less@X@2@@std@@YA?AU?$pair@PEAU?$pair@HH@std@@PEAU12@@0@PEAU?$pair@HH@0@0U?$less@X@0@@Z 000000018002f988     minkowski.obj
 0002:000099a0       $chain$3$??$_Partition_by_median_guess_unchecked@PEAU?$pair@HH@std@@U?$less@X@2@@std@@YA?AU?$pair@PEAU?$pair@HH@std@@PEAU12@@0@PEAU?$pair@HH@0@0U?$less@X@0@@Z 000000018002f9a0     minkowski.obj
 0002:000099b0       $chain$4$??$_Partition_by_median_guess_unchecked@PEAU?$pair@HH@std@@U?$less@X@2@@std@@YA?AU?$pair@PEAU?$pair@HH@std@@PEAU12@@0@PEAU?$pair@HH@0@0U?$less@X@0@@Z 000000018002f9b0     minkowski.obj
 0002:000099c0       $unwind$??$_Sort_heap_unchecked@PEAU?$pair@HH@std@@U?$less@X@2@@std@@YAXPEAU?$pair@HH@0@0U?$less@X@0@@Z 000000018002f9c0     minkowski.obj
 0002:000099c8       $chain$3$??$_Sort_heap_unchecked@PEAU?$pair@HH@std@@U?$less@X@2@@std@@YAXPEAU?$pair@HH@0@0U?$less@X@0@@Z 000000018002f9c8     minkowski.obj
 0002:000099e8       $chain$4$??$_Sort_heap_unchecked@PEAU?$pair@HH@std@@U?$less@X@2@@std@@YAXPEAU?$pair@HH@0@0U?$less@X@0@@Z 000000018002f9e8     minkowski.obj
 0002:000099f8       $unwind$??$_Partition_by_median_guess_unchecked@PEAV?$point_data@H@polygon@boost@@U?$less@X@std@@@std@@YA?AU?$pair@PEAV?$point_data@H@polygon@boost@@PEAV123@@0@PEAV?$point_data@H@polygon@boost@@0U?$less@X@0@@Z 000000018002f9f8     minkowski.obj
 0002:00009a0c       $chain$0$??$_Partition_by_median_guess_unchecked@PEAV?$point_data@H@polygon@boost@@U?$less@X@std@@@std@@YA?AU?$pair@PEAV?$point_data@H@polygon@boost@@PEAV123@@0@PEAV?$point_data@H@polygon@boost@@0U?$less@X@0@@Z 000000018002fa0c     minkowski.obj
 0002:00009a20       $chain$1$??$_Partition_by_median_guess_unchecked@PEAV?$point_data@H@polygon@boost@@U?$less@X@std@@@std@@YA?AU?$pair@PEAV?$point_data@H@polygon@boost@@PEAV123@@0@PEAV?$point_data@H@polygon@boost@@0U?$less@X@0@@Z 000000018002fa20     minkowski.obj
 0002:00009a34       $chain$2$??$_Partition_by_median_guess_unchecked@PEAV?$point_data@H@polygon@boost@@U?$less@X@std@@@std@@YA?AU?$pair@PEAV?$point_data@H@polygon@boost@@PEAV123@@0@PEAV?$point_data@H@polygon@boost@@0U?$less@X@0@@Z 000000018002fa34     minkowski.obj
 0002:00009a44       $chain$3$??$_Partition_by_median_guess_unchecked@PEAV?$point_data@H@polygon@boost@@U?$less@X@std@@@std@@YA?AU?$pair@PEAV?$point_data@H@polygon@boost@@PEAV123@@0@PEAV?$point_data@H@polygon@boost@@0U?$less@X@0@@Z 000000018002fa44     minkowski.obj
 0002:00009a54       $unwind$??$_Make_heap_unchecked@PEAV?$point_data@H@polygon@boost@@U?$less@X@std@@@std@@YAXPEAV?$point_data@H@polygon@boost@@0U?$less@X@0@@Z 000000018002fa54     minkowski.obj
 0002:00009a5c       $chain$2$??$_Make_heap_unchecked@PEAV?$point_data@H@polygon@boost@@U?$less@X@std@@@std@@YAXPEAV?$point_data@H@polygon@boost@@0U?$less@X@0@@Z 000000018002fa5c     minkowski.obj
 0002:00009a78       $chain$3$??$_Make_heap_unchecked@PEAV?$point_data@H@polygon@boost@@U?$less@X@std@@@std@@YAXPEAV?$point_data@H@polygon@boost@@0U?$less@X@0@@Z 000000018002fa78     minkowski.obj
 0002:00009a88       $chain$5$??$_Sort_heap_unchecked@PEAV?$point_data@H@polygon@boost@@U?$less@X@std@@@std@@YAXPEAV?$point_data@H@polygon@boost@@0U?$less@X@0@@Z 000000018002fa88     minkowski.obj
 0002:00009ab0       $chain$6$??$_Sort_heap_unchecked@PEAV?$point_data@H@polygon@boost@@U?$less@X@std@@@std@@YAXPEAV?$point_data@H@polygon@boost@@0U?$less@X@0@@Z 000000018002fab0     minkowski.obj
 0002:00009ac0       $unwind$?__scrt_throw_std_bad_array_new_length@@YAXXZ 000000018002fac0     LIBCMT:throw_bad_alloc.obj
 0002:00009ac0       $unwind$?_Xlength_error@std@@YAXPEBD@Z 000000018002fac0     libcpmt:xthrow.obj
 0002:00009ac0       $unwind$_raise_exc         000000018002fac0     libucrt:fpexcept.obj
 0002:00009ac0       $unwind$?__scrt_throw_std_bad_alloc@@YAXXZ 000000018002fac0     LIBCMT:throw_bad_alloc.obj
 0002:00009ac8       $unwind$??0length_error@std@@QEAA@PEBD@Z 000000018002fac8     libcpmt:xthrow.obj
 0002:00009ac8       $unwind$?__mbrtowc_utf8@__crt_mbstring@@YA_KPEA_WPEBD_KPEAU_Mbstatet@@@Z 000000018002fac8     libucrt:mbrtowc.obj
 0002:00009ad0       $xdatasym                  000000018002fad0     LIBCMT:amdsecgs.obj
 0002:00009ad4       $unwind$?dllmain_crt_process_attach@@YAHQEAUHINSTANCE__@@QEAX@Z 000000018002fad4     LIBCMT:dll_dllmain.obj
 0002:00009b10       $unwind$_IsNonwritableInCurrentImage$filt$0 000000018002fb10     LIBCMT:pesect.obj
 0002:00009b10       $unwind$?fin$0@?0???$?RV<lambda_0ae27a3a962d80f24befdcbee591983d>@@AEAV<lambda_8d0ee55de4b1038c4002e0adecdf1839>@@V<lambda_dc504788e8f1664fe9b84e20bfb512f2>@@@?$__crt_seh_guarded_call@X@@QEAAX$$QEAV<lambda_0ae27a3a962d80f24befdcbee591983d>@@AEAV<lambda_8d0ee55de4b1038c4002e0adecdf1839>@@$$QEAV<lambda_dc504788e8f1664fe9b84e20bfb512f2>@@@Z@4HA 000000018002fb10     libucrt:per_thread_data.obj
 0002:00009b10       $unwind$?fin$0@?0??dllmain_crt_process_attach@@YAHQEAUHINSTANCE__@@QEAX@Z@4HA 000000018002fb10     LIBCMT:dll_dllmain.obj
 0002:00009b10       $unwind$?fin$0@?0???$?RV<lambda_7777bce6b2f8c936911f934f8298dc43>@@AEAV<lambda_f03950bc5685219e0bcd2087efbe011e>@@V<lambda_3883c3dff614d5e0c5f61bb1ac94921c>@@@?$__crt_seh_guarded_call@H@@QEAAH$$QEAV<lambda_7777bce6b2f8c936911f934f8298dc43>@@AEAV<lambda_f03950bc5685219e0bcd2087efbe011e>@@$$QEAV<lambda_3883c3dff614d5e0c5f61bb1ac94921c>@@@Z@4HA 000000018002fb10     libucrt:onexit.obj
 0002:00009b10       $unwind$?fin$0@?0??dllmain_crt_process_detach@@YAH_N@Z@4HA 000000018002fb10     LIBCMT:dll_dllmain.obj
 0002:00009b10       $unwind$_ctrlfp$filt$0     000000018002fb10     libucrt:fpctrl.obj
 0002:00009b10       $unwind$?fin$0@?0???$?RV<lambda_aa87e3671a710a21b5dc78c0bdf72e11>@@AEAV<lambda_92619d2358a28f41a33ba319515a20b9>@@V<lambda_6992ecaafeb10aed2b74cb1fae11a551>@@@?$__crt_seh_guarded_call@X@@QEAAX$$QEAV<lambda_aa87e3671a710a21b5dc78c0bdf72e11>@@AEAV<lambda_92619d2358a28f41a33ba319515a20b9>@@$$QEAV<lambda_6992ecaafeb10aed2b74cb1fae11a551>@@@Z@4HA 000000018002fb10     libucrt:per_thread_data.obj
 0002:00009b10       $unwind$?fin$0@?0???$?RV<lambda_2d41944a1d46af3157314b8a01080d33>@@AEAV<lambda_8f455de75cd7d7f24b4096f044d8b9e6>@@V<lambda_aa500f224e6afead328df44964fe2772>@@@?$__crt_seh_guarded_call@X@@QEAAX$$QEAV<lambda_2d41944a1d46af3157314b8a01080d33>@@AEAV<lambda_8f455de75cd7d7f24b4096f044d8b9e6>@@$$QEAV<lambda_aa500f224e6afead328df44964fe2772>@@@Z@4HA 000000018002fb10     libucrt:per_thread_data.obj
 0002:00009b10       $unwind$?fin$0@?0???$?RV<lambda_d80eeec6fff315bfe5c115232f3240e3>@@AEAV<lambda_6e4b09c48022b2350581041d5f6b0c4c>@@V<lambda_2358e3775559c9db80273638284d5e45>@@@?$__crt_seh_guarded_call@X@@QEAAX$$QEAV<lambda_d80eeec6fff315bfe5c115232f3240e3>@@AEAV<lambda_6e4b09c48022b2350581041d5f6b0c4c>@@$$QEAV<lambda_2358e3775559c9db80273638284d5e45>@@@Z@4HA 000000018002fb10     libucrt:exit.obj
 0002:00009b10       $unwind$__acrt_initialize_lowio$fin$0 000000018002fb10     libucrt:ioinit.obj
 0002:00009b10       $unwind$?fin$0@?0???$?RV<lambda_efdfa57d1f175319df784efa44bb7b81>@@AEAV<lambda_5f0a4c1567f8adc6734073e5d1e1b35c>@@V<lambda_2e8a7d3640ea6ccb4c2413664c2db6fd>@@@?$__crt_seh_guarded_call@X@@QEAAX$$QEAV<lambda_efdfa57d1f175319df784efa44bb7b81>@@AEAV<lambda_5f0a4c1567f8adc6734073e5d1e1b35c>@@$$QEAV<lambda_2e8a7d3640ea6ccb4c2413664c2db6fd>@@@Z@4HA 000000018002fb10     libucrt:mbctype.obj
 0002:00009b10       $unwind$?filt$0@?0???R<lambda_6e4b09c48022b2350581041d5f6b0c4c>@@QEBA@XZ@4HA 000000018002fb10     libucrt:exit.obj
 0002:00009b10       $unwind$fclose$fin$0       000000018002fb10     libucrt:fclose.obj
 0002:00009b10       $unwind$?fin$0@?0??update_thread_multibyte_data_internal@@YAPEAU__crt_multibyte_data@@QEAU__acrt_ptd@@QEAPEAU1@@Z@4HA 000000018002fb10     libucrt:mbctype.obj
 0002:00009b10       $unwind$?fin$0@?0???$?RV<lambda_410d79af7f07d98d83a3f525b3859a53>@@AEAV<lambda_3e16ef9562a7dcce91392c22ab16ea36>@@V<lambda_38119f0e861e05405d8a144b9b982f0a>@@@?$__crt_seh_guarded_call@X@@QEAAX$$QEAV<lambda_410d79af7f07d98d83a3f525b3859a53>@@AEAV<lambda_3e16ef9562a7dcce91392c22ab16ea36>@@$$QEAV<lambda_38119f0e861e05405d8a144b9b982f0a>@@@Z@4HA 000000018002fb10     libucrt:wsetlocale.obj
 0002:00009b10       $unwind$_fcloseall$fin$0   000000018002fb10     libucrt:closeall.obj
 0002:00009b10       $unwind$_write$fin$0       000000018002fb10     libucrt:write.obj
 0002:00009b10       $unwind$?fin$0@?0???$?RV<lambda_751a882b2c74d4b022dec766aa51a29a>@@AEAV<lambda_628dfdc04ba53c8bfc02c9951375f3f5>@@V<lambda_f6c7be5f7998530c34de24c7437d6b54>@@@?$__crt_seh_guarded_call@H@@QEAAH$$QEAV<lambda_751a882b2c74d4b022dec766aa51a29a>@@AEAV<lambda_628dfdc04ba53c8bfc02c9951375f3f5>@@$$QEAV<lambda_f6c7be5f7998530c34de24c7437d6b54>@@@Z@4HA 000000018002fb10     libucrt:close.obj
 0002:00009b10       $unwind$?fin$0@?0???$?RV<lambda_a37b2b86f63e897a80ea819b0eb08c01>@@AEAV<lambda_38ce7e780aa69e748d6df282ebc68efe>@@V<lambda_99fb1378e971ab6e7edea83e3a7a83a2>@@@?$__crt_seh_guarded_call@H@@QEAAH$$QEAV<lambda_a37b2b86f63e897a80ea819b0eb08c01>@@AEAV<lambda_38ce7e780aa69e748d6df282ebc68efe>@@$$QEAV<lambda_99fb1378e971ab6e7edea83e3a7a83a2>@@@Z@4HA 000000018002fb10     libucrt:commit.obj
 0002:00009b10       $unwind$__acrt_lowio_ensure_fh_exists$fin$0 000000018002fb10     libucrt:osfinfo.obj
 0002:00009b10       $unwind$__DestructExceptionObject$filt$0 000000018002fb10     libvcruntime:ehhelpers.obj
 0002:00009b10       $unwind$raise$fin$0        000000018002fb10     libucrt:signal.obj
 0002:00009b10       $unwind$__acrt_update_thread_locale_data$fin$0 000000018002fb10     libucrt:locale_refcounting.obj
 0002:00009b10       $unwind$?fin$0@?0???$?RV<lambda_886d6c58226a84441f68b9f2b8217b83>@@AEAV<lambda_ab61a845afdef5b7c387490eaf3616ee>@@V<lambda_f7f22ab5edc0698d5f6905b0d3f44752>@@@?$__crt_seh_guarded_call@X@@QEAAX$$QEAV<lambda_886d6c58226a84441f68b9f2b8217b83>@@AEAV<lambda_ab61a845afdef5b7c387490eaf3616ee>@@$$QEAV<lambda_f7f22ab5edc0698d5f6905b0d3f44752>@@@Z@4HA 000000018002fb10     libucrt:fflush.obj
 0002:00009b10       $unwind$?fin$0@?0???$?RV<lambda_842d9ff0dc9ef11c61343bbaebe7f885>@@AEAV<lambda_c5860995281e5c4ce005b3de8f5874ee>@@V<lambda_d90129c13df834fdcbf8d2b88dafcf2d>@@@?$__crt_seh_guarded_call@X@@QEAAX$$QEAV<lambda_842d9ff0dc9ef11c61343bbaebe7f885>@@AEAV<lambda_c5860995281e5c4ce005b3de8f5874ee>@@$$QEAV<lambda_d90129c13df834fdcbf8d2b88dafcf2d>@@@Z@4HA 000000018002fb10     libucrt:fflush.obj
 0002:00009b10       $unwind$_query_new_handler$fin$0 000000018002fb10     libucrt:new_handler.obj
 0002:00009b10       $unwind$?fin$0@?0???$?RV<lambda_450d765d439847d4c735a33c368b5fc0>@@AEAV<lambda_44731a7d0e6d81c3e6aa82d741081786>@@V<lambda_601a2a7da3b7a96e9554ac7215c4b07c>@@@?$__crt_seh_guarded_call@P6AXH@Z@@QEAAP6AXH@Z$$QEAV<lambda_450d765d439847d4c735a33c368b5fc0>@@AEAV<lambda_44731a7d0e6d81c3e6aa82d741081786>@@$$QEAV<lambda_601a2a7da3b7a96e9554ac7215c4b07c>@@@Z@4HA 000000018002fb10     libucrt:signal.obj
 0002:00009b10       $unwind$?fin$0@?0???$?RV<lambda_f2e299630e499de9f9a165e60fcd3db5>@@AEAV<lambda_2ae9d31cdba2644fcbeaf08da7c24588>@@V<lambda_40d01ff24d0e7b3814fdbdcee8eab3c7>@@@?$__crt_seh_guarded_call@X@@QEAAX$$QEAV<lambda_f2e299630e499de9f9a165e60fcd3db5>@@AEAV<lambda_2ae9d31cdba2644fcbeaf08da7c24588>@@$$QEAV<lambda_40d01ff24d0e7b3814fdbdcee8eab3c7>@@@Z@4HA 000000018002fb10     libucrt:per_thread_data.obj
 0002:00009b18       $unwind$?dllmain_crt_process_detach@@YAH_N@Z 000000018002fb18     LIBCMT:dll_dllmain.obj
 0002:00009b50       $unwind$?dllmain_dispatch@@YAHQEAUHINSTANCE__@@KQEAX@Z 000000018002fb50     LIBCMT:dll_dllmain.obj
 0002:00009b78       $unwind$?filt$0@?0??dllmain_dispatch@@YAHQEAUHINSTANCE__@@KQEAX@Z@4HA 000000018002fb78     LIBCMT:dll_dllmain.obj
 0002:00009b80       $unwind$__report_securityfailure 000000018002fb80     LIBCMT:gs_report.obj
 0002:00009b88       $unwind$__report_gsfailure 000000018002fb88     LIBCMT:gs_report.obj
 0002:00009b90       $unwind$capture_current_context 000000018002fb90     LIBCMT:gs_report.obj
 0002:00009b9c       $unwind$capture_previous_context 000000018002fb9c     LIBCMT:gs_report.obj
 0002:00009ba8       $unwind$__security_init_cookie 000000018002fba8     LIBCMT:gs_support.obj
 0002:00009bb4       $unwind$__scrt_is_nonwritable_in_current_image 000000018002fbb4     LIBCMT:utility.obj
 0002:00009bd4       $unwind$__scrt_is_nonwritable_in_current_image$filt$0 000000018002fbd4     LIBCMT:utility.obj
 0002:00009bdc       $unwind$__scrt_initialize_onexit_tables 000000018002fbdc     LIBCMT:utility.obj
 0002:00009bdc       $unwind$__dcrt_lowio_ensure_console_output_initialized 000000018002fbdc     libucrt:initcon.obj
 0002:00009bdc       $unwind$_isleadbyte_l      000000018002fbdc     libucrt:_wctype.obj
 0002:00009bdc       $unwind$?getSystemCP@@YAHH@Z 000000018002fbdc     libucrt:mbctype.obj
 0002:00009be4       $unwind$__scrt_fastfail    000000018002fbe4     LIBCMT:utility_desktop.obj
 0002:00009bf4       $unwind$__isa_available_init 000000018002fbf4     LIBCMT:cpu_disp.obj
 0002:00009c08       $xdatasym                  000000018002fc08     LIBCMT:guard_dispatch.obj
 0002:00009c0c       $unwind$_CxxThrowException 000000018002fc0c     libvcruntime:throw.obj
 0002:00009c1c       $unwind$__C_specific_handler 000000018002fc1c     libvcruntime:riscchandler.obj
 0002:00009c38       $xdatasym                  000000018002fc38     libvcruntime:memset.obj
 0002:00009c48       $xdatasym                  000000018002fc48     libvcruntime:notify.obj
 0002:00009c54       $unwind$__DestructExceptionObject 000000018002fc54     libvcruntime:ehhelpers.obj
 0002:00009c74       $unwind$__acrt_initialize_winapi_thunks 000000018002fc74     libucrt:winapi_thunks.obj
 0002:00009c74       $unwind$__vcrt_initialize_winapi_thunks 000000018002fc74     libvcruntime:winapi_downlevel.obj
 0002:00009c7c       $unwind$__vcrt_uninitialize_winapi_thunks 000000018002fc7c     libvcruntime:winapi_downlevel.obj
 0002:00009c88       $xdatasym                  000000018002fc88     libvcruntime:memcpy.obj
 0002:00009c98       $xdatasym                  000000018002fc98     libvcruntime:handlers.obj
 0002:00009ca8       $unwind$_invalid_parameter_noinfo 000000018002fca8     libucrt:invalid_parameter.obj
 0002:00009ca8       $unwind$_invalid_parameter_noinfo_noreturn 000000018002fca8     libucrt:invalid_parameter.obj
 0002:00009ca8       $unwind$_log10_special     000000018002fca8     libucrt:log_special.obj
 0002:00009cb0       $unwind$__acrt_call_reportfault 000000018002fcb0     libucrt:invalid_parameter.obj
 0002:00009cd0       $unwind$_query_new_handler 000000018002fcd0     libucrt:new_handler.obj
 0002:00009cf0       $unwind$?common_exit@@YAXHW4_crt_exit_cleanup_mode@@W4_crt_exit_return_mode@@@Z 000000018002fcf0     libucrt:exit.obj
 0002:00009cfc       $unwind$??R<lambda_6e4b09c48022b2350581041d5f6b0c4c>@@QEBA@XZ 000000018002fcfc     libucrt:exit.obj
 0002:00009d1c       $unwind$??$?RV<lambda_d80eeec6fff315bfe5c115232f3240e3>@@AEAV<lambda_6e4b09c48022b2350581041d5f6b0c4c>@@V<lambda_2358e3775559c9db80273638284d5e45>@@@?$__crt_seh_guarded_call@X@@QEAAX$$QEAV<lambda_d80eeec6fff315bfe5c115232f3240e3>@@AEAV<lambda_6e4b09c48022b2350581041d5f6b0c4c>@@$$QEAV<lambda_2358e3775559c9db80273638284d5e45>@@@Z 000000018002fd1c     libucrt:exit.obj
 0002:00009d40       $unwind$_configure_narrow_argv 000000018002fd40     libucrt:argv_parsing.obj
 0002:00009d54       $unwind$??$parse_command_line@D@@YAXPEADPEAPEAD0PEA_K2@Z 000000018002fd54     libucrt:argv_parsing.obj
 0002:00009d70       $unwind$??$free_environment@D@@YAXQEAPEAD@Z 000000018002fd70     libucrt:environment_initialization.obj
 0002:00009d70       $unwind$??$free_environment@_W@@YAXQEAPEA_W@Z 000000018002fd70     libucrt:environment_initialization.obj
 0002:00009d7c       $unwind$_execute_onexit_table 000000018002fd7c     libucrt:onexit.obj
 0002:00009d84       $unwind$??$?RV<lambda_7777bce6b2f8c936911f934f8298dc43>@@AEAV<lambda_f03950bc5685219e0bcd2087efbe011e>@@V<lambda_3883c3dff614d5e0c5f61bb1ac94921c>@@@?$__crt_seh_guarded_call@H@@QEAAH$$QEAV<lambda_7777bce6b2f8c936911f934f8298dc43>@@AEAV<lambda_f03950bc5685219e0bcd2087efbe011e>@@$$QEAV<lambda_3883c3dff614d5e0c5f61bb1ac94921c>@@@Z 000000018002fd84     libucrt:onexit.obj
 0002:00009da8       $unwind$terminate          000000018002fda8     libucrt:terminate.obj
 0002:00009dc8       $xdatasym                  000000018002fdc8     libucrt:strncmp.obj
 0002:00009dcc       $unwind$_free_base         000000018002fdcc     libucrt:free_base.obj
 0002:00009dcc       $unwind$__acrt_locale_free_numeric 000000018002fdcc     libucrt:initnum.obj
 0002:00009dcc       $unwind$__acrt_locale_free_lc_time_if_unreferenced 000000018002fdcc     libucrt:locale_refcounting.obj
 0002:00009dcc       $unwind$?destroy_fls@@YAXPEAX@Z 000000018002fdcc     libucrt:per_thread_data.obj
 0002:00009dd4       $unwind$?destroy_ptd_array@@YAXQEAU__acrt_ptd@@@Z 000000018002fdd4     libucrt:per_thread_data.obj
 0002:00009ddc       $unwind$??$?RV<lambda_0ae27a3a962d80f24befdcbee591983d>@@AEAV<lambda_8d0ee55de4b1038c4002e0adecdf1839>@@V<lambda_dc504788e8f1664fe9b84e20bfb512f2>@@@?$__crt_seh_guarded_call@X@@QEAAX$$QEAV<lambda_0ae27a3a962d80f24befdcbee591983d>@@AEAV<lambda_8d0ee55de4b1038c4002e0adecdf1839>@@$$QEAV<lambda_dc504788e8f1664fe9b84e20bfb512f2>@@@Z 000000018002fddc     libucrt:per_thread_data.obj
 0002:00009e00       $unwind$??$?RV<lambda_aa87e3671a710a21b5dc78c0bdf72e11>@@AEAV<lambda_92619d2358a28f41a33ba319515a20b9>@@V<lambda_6992ecaafeb10aed2b74cb1fae11a551>@@@?$__crt_seh_guarded_call@X@@QEAAX$$QEAV<lambda_aa87e3671a710a21b5dc78c0bdf72e11>@@AEAV<lambda_92619d2358a28f41a33ba319515a20b9>@@$$QEAV<lambda_6992ecaafeb10aed2b74cb1fae11a551>@@@Z 000000018002fe00     libucrt:per_thread_data.obj
 0002:00009e24       $unwind$??$?RV<lambda_f2e299630e499de9f9a165e60fcd3db5>@@AEAV<lambda_2ae9d31cdba2644fcbeaf08da7c24588>@@V<lambda_40d01ff24d0e7b3814fdbdcee8eab3c7>@@@?$__crt_seh_guarded_call@X@@QEAAX$$QEAV<lambda_f2e299630e499de9f9a165e60fcd3db5>@@AEAV<lambda_2ae9d31cdba2644fcbeaf08da7c24588>@@$$QEAV<lambda_40d01ff24d0e7b3814fdbdcee8eab3c7>@@@Z 000000018002fe24     libucrt:per_thread_data.obj
 0002:00009e48       $unwind$??$?RV<lambda_2d41944a1d46af3157314b8a01080d33>@@AEAV<lambda_8f455de75cd7d7f24b4096f044d8b9e6>@@V<lambda_aa500f224e6afead328df44964fe2772>@@@?$__crt_seh_guarded_call@X@@QEAAX$$QEAV<lambda_2d41944a1d46af3157314b8a01080d33>@@AEAV<lambda_8f455de75cd7d7f24b4096f044d8b9e6>@@$$QEAV<lambda_aa500f224e6afead328df44964fe2772>@@@Z 000000018002fe48     libucrt:per_thread_data.obj
 0002:00009e6c       $unwind$__acrt_get_sigabrt_handler 000000018002fe6c     libucrt:signal.obj
 0002:00009e6c       $unwind$__acrt_uninitialize_locale 000000018002fe6c     libucrt:wsetlocale.obj
 0002:00009e74       $unwind$??$?RV<lambda_410d79af7f07d98d83a3f525b3859a53>@@AEAV<lambda_3e16ef9562a7dcce91392c22ab16ea36>@@V<lambda_38119f0e861e05405d8a144b9b982f0a>@@@?$__crt_seh_guarded_call@X@@QEAAX$$QEAV<lambda_410d79af7f07d98d83a3f525b3859a53>@@AEAV<lambda_3e16ef9562a7dcce91392c22ab16ea36>@@$$QEAV<lambda_38119f0e861e05405d8a144b9b982f0a>@@@Z 000000018002fe74     libucrt:wsetlocale.obj
 0002:00009e9c       $unwind$??$__acrt_mbs_to_wcs_cp@U__crt_win32_buffer_internal_dynamic_resizing@@@@YAHQEBDAEAV?$__crt_win32_buffer@_WU__crt_win32_buffer_internal_dynamic_resizing@@@@I@Z 000000018002fe9c     libucrt:argv_wildcards.obj
 0002:00009eb4       $unwind$__dcrt_get_narrow_environment_from_os 000000018002feb4     libucrt:get_environment_from_os.obj
 0002:00009eb4       $unwind$??$__acrt_wcs_to_mbs_cp@U__crt_win32_buffer_internal_dynamic_resizing@@@@YAHQEB_WAEAV?$__crt_win32_buffer@DU__crt_win32_buffer_internal_dynamic_resizing@@@@I@Z 000000018002feb4     libucrt:argv_wildcards.obj
 0002:00009ecc       $unwind$??$common_expand_argv_wildcards@D@@YAHQEAPEADQEAPEAPEAD@Z 000000018002fecc     libucrt:argv_wildcards.obj
 0002:00009ee4       $unwind$??$copy_and_add_argument_to_buffer@D@@YAHQEBD0_KAEAV?$argument_list@D@?A0x5f5c8891@@@Z 000000018002fee4     libucrt:argv_wildcards.obj
 0002:00009f00       $unwind$??$expand_argument_wildcards@D@@YAHQEAD0AEAV?$argument_list@D@?A0x5f5c8891@@@Z 000000018002ff00     libucrt:argv_wildcards.obj
 0002:00009f24       $unwind$__acrt_GetModuleFileNameA 000000018002ff24     libucrt:getmodulefilenamea.obj
 0002:00009f40       $unwind$__dcrt_write_console 000000018002ff40     libucrt:initcon.obj
 0002:00009f40       $unwind$??$__acrt_wcs_to_mbs_cp@U__crt_win32_buffer_no_resizing@@@@YAHQEB_WAEAV?$__crt_win32_buffer@DU__crt_win32_buffer_no_resizing@@@@I@Z 000000018002ff40     libucrt:getmodulefilenamea.obj
 0002:00009f54       $unwind$_setmbcp_nolock    000000018002ff54     libucrt:mbctype.obj
 0002:00009f74       $unwind$?update_thread_multibyte_data_internal@@YAPEAU__crt_multibyte_data@@QEAU__acrt_ptd@@QEAPEAU1@@Z 000000018002ff74     libucrt:mbctype.obj
 0002:00009f9c       $unwind$?setmbcp_internal@@YAHH_NQEAU__acrt_ptd@@QEAPEAU__crt_multibyte_data@@@Z 000000018002ff9c     libucrt:mbctype.obj
 0002:00009fac       $unwind$?setSBUpLow@@YAXPEAU__crt_multibyte_data@@@Z 000000018002ffac     libucrt:mbctype.obj
 0002:00009fc8       $unwind$??$?RV<lambda_efdfa57d1f175319df784efa44bb7b81>@@AEAV<lambda_5f0a4c1567f8adc6734073e5d1e1b35c>@@V<lambda_2e8a7d3640ea6ccb4c2413664c2db6fd>@@@?$__crt_seh_guarded_call@X@@QEAAX$$QEAV<lambda_efdfa57d1f175319df784efa44bb7b81>@@AEAV<lambda_5f0a4c1567f8adc6734073e5d1e1b35c>@@$$QEAV<lambda_2e8a7d3640ea6ccb4c2413664c2db6fd>@@@Z 000000018002ffc8     libucrt:mbctype.obj
 0002:00009fec       $unwind$?x_ismbbtype_l@@YAHPEAU__crt_locale_pointers@@IHH@Z 000000018002ffec     libucrt:ismbbyte.obj
 0002:00009ffc       $unwind$__acrt_WideCharToMultiByte 000000018002fffc     libucrt:widechartomultibyte.obj
 0002:00009ffc       $unwind$__GSHandlerCheckCommon 000000018002fffc     LIBCMT:gshandler.obj
 0002:0000a004       $unwind$_mbtowc_l          0000000180030004     libucrt:mbtowc.obj
 0002:0000a004       $unwind$__acrt_LCMapStringEx 0000000180030004     libucrt:winapi_thunks.obj
 0002:0000a018       $unwind$__acrt_initialize_lowio 0000000180030018     libucrt:ioinit.obj
 0002:0000a038       $unwind$?initialize_inherited_file_handles_nolock@@YAXXZ 0000000180030038     libucrt:ioinit.obj
 0002:0000a054       $unwind$__acrt_initialize_stdio 0000000180030054     libucrt:_file.obj
 0002:0000a054       $unwind$?initialize_stdio_handles_nolock@@YAXXZ 0000000180030054     libucrt:ioinit.obj
 0002:0000a06c       $unwind$raise              000000018003006c     libucrt:signal.obj
 0002:0000a0a8       $unwind$??$?RV<lambda_450d765d439847d4c735a33c368b5fc0>@@AEAV<lambda_44731a7d0e6d81c3e6aa82d741081786>@@V<lambda_601a2a7da3b7a96e9554ac7215c4b07c>@@@?$__crt_seh_guarded_call@P6AXH@Z@@QEAAP6AXH@Z$$QEAV<lambda_450d765d439847d4c735a33c368b5fc0>@@AEAV<lambda_44731a7d0e6d81c3e6aa82d741081786>@@$$QEAV<lambda_601a2a7da3b7a96e9554ac7215c4b07c>@@@Z 00000001800300a8     libucrt:signal.obj
 0002:0000a0cc       $unwind$?common_flush_all@@YAH_N@Z 00000001800300cc     libucrt:fflush.obj
 0002:0000a0d4       $unwind$??$?RV<lambda_842d9ff0dc9ef11c61343bbaebe7f885>@@AEAV<lambda_c5860995281e5c4ce005b3de8f5874ee>@@V<lambda_d90129c13df834fdcbf8d2b88dafcf2d>@@@?$__crt_seh_guarded_call@X@@QEAAX$$QEAV<lambda_842d9ff0dc9ef11c61343bbaebe7f885>@@AEAV<lambda_c5860995281e5c4ce005b3de8f5874ee>@@$$QEAV<lambda_d90129c13df834fdcbf8d2b88dafcf2d>@@@Z 00000001800300d4     libucrt:fflush.obj
 0002:0000a0f8       $unwind$??$?RV<lambda_886d6c58226a84441f68b9f2b8217b83>@@AEAV<lambda_ab61a845afdef5b7c387490eaf3616ee>@@V<lambda_f7f22ab5edc0698d5f6905b0d3f44752>@@@?$__crt_seh_guarded_call@X@@QEAAX$$QEAV<lambda_886d6c58226a84441f68b9f2b8217b83>@@AEAV<lambda_ab61a845afdef5b7c387490eaf3616ee>@@$$QEAV<lambda_f7f22ab5edc0698d5f6905b0d3f44752>@@@Z 00000001800300f8     libucrt:fflush.obj
 0002:0000a120       $unwind$__acrt_update_thread_locale_data 0000000180030120     libucrt:locale_refcounting.obj
 0002:0000a144       $unwind$__acrt_LCMapStringA 0000000180030144     libucrt:lcmapstringa.obj
 0002:0000a154       $unwind$?__acrt_LCMapStringA_stat@@YAHPEAU__crt_locale_pointers@@PEB_WKPEBDHPEADHHH@Z 0000000180030154     libucrt:lcmapstringa.obj
 0002:0000a17c       $unwind$__acrt_locale_free_monetary 000000018003017c     libucrt:initmon.obj
 0002:0000a184       $unwind$__acrt_locale_free_time 0000000180030184     libucrt:inittime.obj
 0002:0000a194       $unwind$__acrt_GetStringTypeA 0000000180030194     libucrt:getstringtypea.obj
 0002:0000a1bc       $unwind$qsort              00000001800301bc     libucrt:qsort.obj
 0002:0000a1d4       $chain$4$qsort             00000001800301d4     libucrt:qsort.obj
 0002:0000a1f8       $chain$5$qsort             00000001800301f8     libucrt:qsort.obj
 0002:0000a208       $unwind$strpbrk            0000000180030208     libucrt:strpbrk.obj
 0002:0000a218       $unwind$fallbackMethod     0000000180030218     libucrt:strpbrk.obj
 0002:0000a228       $unwind$_mbsdec_l          0000000180030228     libucrt:mbsdec.obj
 0002:0000a234       $unwind$?GetTableIndexFromLocaleName@@YAHPEB_W@Z 0000000180030234     libucrt:lcidtoname_downlevel.obj
 0002:0000a24c       $unwind$__acrt_lowio_ensure_fh_exists 000000018003024c     libucrt:osfinfo.obj
 0002:0000a278       $unwind$_close             0000000180030278     libucrt:close.obj
 0002:0000a278       $unwind$_commit            0000000180030278     libucrt:commit.obj
 0002:0000a280       $unwind$??$?RV<lambda_a37b2b86f63e897a80ea819b0eb08c01>@@AEAV<lambda_38ce7e780aa69e748d6df282ebc68efe>@@V<lambda_99fb1378e971ab6e7edea83e3a7a83a2>@@@?$__crt_seh_guarded_call@H@@QEAAH$$QEAV<lambda_a37b2b86f63e897a80ea819b0eb08c01>@@AEAV<lambda_38ce7e780aa69e748d6df282ebc68efe>@@$$QEAV<lambda_99fb1378e971ab6e7edea83e3a7a83a2>@@@Z 0000000180030280     libucrt:commit.obj
 0002:0000a2a4       $unwind$_write             00000001800302a4     libucrt:write.obj
 0002:0000a2d4       $unwind$_write_nolock      00000001800302d4     libucrt:write.obj
 0002:0000a2ec       $unwind$?write_double_translated_ansi_nolock@@YA?AUwrite_result@?A0x17268360@@HQEBDI@Z 00000001800302ec     libucrt:write.obj
 0002:0000a310       $unwind$?write_text_utf16le_nolock@@YA?AUwrite_result@?A0x17268360@@HQEBDI@Z 0000000180030310     libucrt:write.obj
 0002:0000a310       $unwind$?write_text_ansi_nolock@@YA?AUwrite_result@?A0x17268360@@HQEBDI@Z 0000000180030310     libucrt:write.obj
 0002:0000a330       $unwind$?write_text_utf8_nolock@@YA?AUwrite_result@?A0x17268360@@HQEBDI@Z 0000000180030330     libucrt:write.obj
 0002:0000a354       $unwind$_fcloseall         0000000180030354     libucrt:closeall.obj
 0002:0000a378       $unwind$?__mbsrtowcs_utf8@__crt_mbstring@@YA_KPEA_WPEAPEBD_KPEAU_Mbstatet@@@Z 0000000180030378     libucrt:mbrtowc.obj
 0002:0000a390       $unwind$_putwch_nolock     0000000180030390     libucrt:putwch.obj
 0002:0000a398       $unwind$fclose             0000000180030398     libucrt:fclose.obj
 0002:0000a3bc       $unwind$?__mbrtoc32_utf8@__crt_mbstring@@YA_KPEA_UPEBD_KPEAU_Mbstatet@@@Z 00000001800303bc     libucrt:mbrtoc32.obj
 0002:0000a3d8       $xdatasym                  00000001800303d8     libucrt:log10.obj
 0002:0000a3e4       $unwind$??$?RV<lambda_751a882b2c74d4b022dec766aa51a29a>@@AEAV<lambda_628dfdc04ba53c8bfc02c9951375f3f5>@@V<lambda_f6c7be5f7998530c34de24c7437d6b54>@@@?$__crt_seh_guarded_call@H@@QEAAH$$QEAV<lambda_751a882b2c74d4b022dec766aa51a29a>@@AEAV<lambda_628dfdc04ba53c8bfc02c9951375f3f5>@@$$QEAV<lambda_f6c7be5f7998530c34de24c7437d6b54>@@@Z 00000001800303e4     libucrt:close.obj
 0002:0000a408       $unwind$_call_matherr      0000000180030408     libucrt:libm_error.obj
 0002:0000a410       $unwind$_handle_error      0000000180030410     libucrt:libm_error.obj
 0002:0000a430       $unwind$__acrt_initialize_fma3 0000000180030430     libucrt:fma3_available.obj
 0002:0000a438       $unwind$_log_special_common 0000000180030438     libucrt:log_special.obj
 0002:0000a448       $xdatasym                  0000000180030448     libucrt:fpsr.obj
 0002:0000a450       $unwind$_raise_exc_ex      0000000180030450     libucrt:fpexcept.obj
 0002:0000a464       $unwind$_ctrlfp            0000000180030464     libucrt:fpctrl.obj
 0002:0000a48c       $unwind$_IsNonwritableInCurrentImage 000000018003048c     LIBCMT:pesect.obj
 0002:0000a4b0       $xdatasym                  00000001800304b0     LIBCMT:chkstk.obj
 0002:0000a4b8       $xdatasym                  00000001800304b8     libvcruntime:memcmp.obj
 0002:0000a640       .edata                     0000000180030640     addon.exp
 0002:0000a668       rgpv                       0000000180030668     addon.exp
 0002:0000a66c       rgszName                   000000018003066c     addon.exp
 0002:0000a670       rgwOrd                     0000000180030670     addon.exp
 0002:0000a672       szName                     0000000180030672     addon.exp
 0002:0000a67d       $N00001                    000000018003067d     addon.exp
 0002:0000a9e8       .idata$6                   00000001800309e8     kernel32:KERNEL32.dll
 0002:0000b1d2       .idata$6                   00000001800311d2     iojs:node.dll
 0003:00000030       ?__vcrt_flsindex@@3KA      0000000180032030     libvcruntime:per_thread_data.obj
 0003:00000044       ?__acrt_flsindex@@3KA      0000000180032044     libucrt:per_thread_data.obj
 0003:00000048       ?errno_no_memory@@3HA      0000000180032048     libucrt:errno.obj
 0003:0000004c       ?doserrno_no_memory@@3KA   000000018003204c     libucrt:errno.obj
 0003:000001c0       _mbctypes                  00000001800321c0     libucrt:mbctype.obj
 0003:000002d0       _mbcasemaps                00000001800322d0     libucrt:mbctype.obj
 0003:000003d0       ?__rgctypeflag@@3PADA      00000001800323d0     libucrt:mbctype.obj
 0003:000003e0       ?__rgcode_page_info@@3PAUcode_page_info@@A 00000001800323e0     libucrt:mbctype.obj
 0003:000009b0       ?__dcrt_lowio_console_output_handle@@3PEAXEA 00000001800329b0     libucrt:initcon.obj
